
firmware.elf:     file format elf32-avr

Sections:
Idx Name          Size      VMA       LMA       File off  Algn
  0 .text         000054d0  00000000  00000000  00000094  2**1
                  CONTENTS, ALLOC, LOAD, READONLY, CODE
  1 .data         00000276  00800060  000054d0  00005564  2**0
                  CONTENTS, ALLOC, LOAD, DATA
  2 .bss          0000000c  008002d6  008002d6  000057da  2**0
                  ALLOC
  3 .comment      0000005c  00000000  00000000  000057da  2**0
                  CONTENTS, READONLY
  4 .debug_aranges 00000120  00000000  00000000  00005836  2**0
                  CONTENTS, READONLY, DEBUGGING
  5 .debug_info   00004d3b  00000000  00000000  00005956  2**0
                  CONTENTS, READONLY, DEBUGGING
  6 .debug_abbrev 00000355  00000000  00000000  0000a691  2**0
                  CONTENTS, READONLY, DEBUGGING
  7 .debug_line   0000089d  00000000  00000000  0000a9e6  2**0
                  CONTENTS, READONLY, DEBUGGING
  8 .debug_frame  000005d0  00000000  00000000  0000b284  2**2
                  CONTENTS, READONLY, DEBUGGING
  9 .debug_str    000004b6  00000000  00000000  0000b854  2**0
                  CONTENTS, READONLY, DEBUGGING
 10 .debug_loc    00002d18  00000000  00000000  0000bd0a  2**0
                  CONTENTS, READONLY, DEBUGGING
 11 .debug_ranges 00000110  00000000  00000000  0000ea22  2**0
                  CONTENTS, READONLY, DEBUGGING

Disassembly of section .text:

00000000 <__vectors>:
       0:	0c 94 e7 11 	jmp	0x23ce	; 0x23ce <__ctors_end>
       4:	0c 94 93 18 	jmp	0x3126	; 0x3126 <__vector_1>
       8:	0c 94 04 12 	jmp	0x2408	; 0x2408 <__bad_interrupt>
       c:	0c 94 04 12 	jmp	0x2408	; 0x2408 <__bad_interrupt>
      10:	0c 94 04 12 	jmp	0x2408	; 0x2408 <__bad_interrupt>
      14:	0c 94 04 12 	jmp	0x2408	; 0x2408 <__bad_interrupt>
      18:	0c 94 04 12 	jmp	0x2408	; 0x2408 <__bad_interrupt>
      1c:	0c 94 b8 18 	jmp	0x3170	; 0x3170 <__vector_7>
      20:	0c 94 04 12 	jmp	0x2408	; 0x2408 <__bad_interrupt>
      24:	0c 94 04 12 	jmp	0x2408	; 0x2408 <__bad_interrupt>
      28:	0c 94 04 12 	jmp	0x2408	; 0x2408 <__bad_interrupt>
      2c:	0c 94 04 12 	jmp	0x2408	; 0x2408 <__bad_interrupt>
      30:	0c 94 04 12 	jmp	0x2408	; 0x2408 <__bad_interrupt>
      34:	0c 94 04 12 	jmp	0x2408	; 0x2408 <__bad_interrupt>
      38:	0c 94 04 12 	jmp	0x2408	; 0x2408 <__bad_interrupt>
      3c:	0c 94 04 12 	jmp	0x2408	; 0x2408 <__bad_interrupt>
      40:	0c 94 04 12 	jmp	0x2408	; 0x2408 <__bad_interrupt>
      44:	0c 94 04 12 	jmp	0x2408	; 0x2408 <__bad_interrupt>
      48:	0c 94 04 12 	jmp	0x2408	; 0x2408 <__bad_interrupt>
      4c:	0c 94 04 12 	jmp	0x2408	; 0x2408 <__bad_interrupt>
      50:	0c 94 04 12 	jmp	0x2408	; 0x2408 <__bad_interrupt>

00000054 <FONT_16x16>:
	...
      78:	07 00 0f 80 0f 80 0f 80 0f 80 0f 80 07 00 07 00     ................
      88:	00 00 00 00 07 00 07 00 07 00 00 00 00 00 0e 38     ...............8
      98:	0e 38 0e 38 0e 38 06 30 00 00 00 00 00 00 00 00     .8.8.8.0........
	...
      b4:	00 00 0c 30 0c 30 0c 30 7f fe 7f fe 0c 30 0c 30     ...0.0.0.....0.0
      c4:	0c 30 0c 30 7f fe 7f fe 0c 30 0c 30 0c 30 00 00     .0.0.....0.0.0..
      d4:	00 00 02 40 02 40 0f f8 1f f8 1a 40 1a 40 1f f0     ...@.@.....@.@..
      e4:	0f f8 02 58 02 58 1f f8 1f f0 02 40 02 40 00 00     ...X.X.....@.@..
      f4:	00 00 00 00 00 00 0e 10 0e 30 0e 70 00 e0 01 c0     .........0.p....
     104:	03 80 07 00 0e 70 0c 70 08 70 00 00 00 00 00 00     .....p.p.p......
     114:	00 00 00 00 0f 00 19 80 19 80 19 80 0f 00 0f 08     ................
     124:	0f 98 19 f8 18 f0 18 e0 19 f0 0f 98 00 00 00 00     ................
     134:	00 00 00 00 07 00 07 00 07 00 0e 00 00 00 00 00     ................
	...
     158:	00 f0 01 c0 03 80 07 00 0e 00 0e 00 0e 00 0e 00     ................
     168:	07 00 03 80 01 c0 00 f0 00 00 00 00 00 00 00 00     ................
     178:	0f 00 03 80 01 c0 00 e0 00 70 00 70 00 70 00 70     .........p.p.p.p
     188:	00 e0 01 c0 03 80 0f 00 00 00 00 00 00 00 00 00     ................
     198:	01 80 11 88 09 90 07 e0 07 e0 3f fc 3f fc 07 e0     ..........?.?...
     1a8:	07 e0 09 90 11 88 01 80 00 00 00 00 00 00 00 00     ................
     1b8:	00 00 00 00 01 80 01 80 01 80 0f f0 0f f0 01 80     ................
     1c8:	01 80 01 80 00 00 00 00 00 00 00 00 00 00 00 00     ................
	...
     1e8:	00 00 07 00 07 00 07 00 0e 00 00 00 00 00 00 00     ................
	...
     200:	00 00 1f f8 1f f8 00 00 00 00 00 00 00 00 00 00     ................
	...
     228:	00 00 07 00 07 00 07 00 00 00 00 00 00 00 00 00     ................
     238:	00 02 00 06 00 0e 00 1c 00 38 00 70 00 e0 01 c0     .........8.p....
     248:	03 80 07 00 0e 00 1c 00 00 00 00 00 00 00 00 00     ................
     258:	0f f0 1c 38 1c 78 1c f8 1c f8 1d b8 1d b8 1f 38     ...8.x.........8
     268:	1f 38 1e 38 1c 38 0f f0 00 00 00 00 00 00 00 00     .8.8.8..........
     278:	01 80 01 80 03 80 1f 80 1f 80 03 80 03 80 03 80     ................
     288:	03 80 03 80 03 80 1f f0 00 00 00 00 00 00 00 00     ................
     298:	0f e0 1c 70 1c 38 00 38 00 70 00 e0 01 c0 03 80     ...p.8.8.p......
     2a8:	07 00 0e 38 1c 38 1f f8 00 00 00 00 00 00 00 00     ...8.8..........
     2b8:	0f e0 1c 70 1c 38 00 38 00 70 03 c0 03 c0 00 70     ...p.8.8.p.....p
     2c8:	00 38 1c 38 1c 70 0f e0 00 00 00 00 00 00 00 00     .8.8.p..........
     2d8:	00 e0 01 e0 03 e0 06 e0 0c e0 18 e0 1f f8 1f f8     ................
     2e8:	00 e0 00 e0 00 e0 03 f8 00 00 00 00 00 00 00 00     ................
     2f8:	1f f8 1c 00 1c 00 1c 00 1c 00 1f e0 1f f0 00 78     ...............x
     308:	00 38 1c 38 1c 70 0f e0 00 00 00 00 00 00 00 00     .8.8.p..........
     318:	03 e0 07 00 0e 00 1c 00 1c 00 1f f0 1f f8 1c 38     ...............8
     328:	1c 38 1c 38 1c 38 0f f0 00 00 00 00 00 00 00 00     .8.8.8..........
     338:	1f fc 1c 1c 1c 1c 1c 1c 00 1c 00 38 00 70 00 e0     ...........8.p..
     348:	01 c0 03 80 03 80 03 80 00 00 00 00 00 00 00 00     ................
     358:	0f f0 1c 38 1c 38 1c 38 1f 38 07 e0 07 e0 1c f8     ...8.8.8.8......
     368:	1c 38 1c 38 1c 38 0f f0 00 00 00 00 00 00 00 00     .8.8.8..........
     378:	0f f0 1c 38 1c 38 1c 38 1c 38 1f f8 0f f8 00 38     ...8.8.8.8.....8
     388:	00 38 00 70 00 e0 07 c0 00 00 00 00 00 00 00 00     .8.p............
     398:	00 00 00 00 03 80 03 80 03 80 00 00 00 00 03 80     ................
     3a8:	03 80 03 80 00 00 00 00 00 00 00 00 00 00 00 00     ................
     3b8:	00 00 00 00 03 80 03 80 03 80 00 00 00 00 03 80     ................
     3c8:	03 80 03 80 07 00 00 00 00 00 00 00 00 00 00 70     ...............p
     3d8:	00 e0 01 c0 03 80 07 00 0e 00 1c 00 1c 00 0e 00     ................
     3e8:	07 00 03 80 01 c0 00 e0 00 70 00 00 00 00 00 00     .........p......
     3f8:	00 00 00 00 00 00 3f fc 3f fc 00 00 00 00 3f fc     ......?.?.....?.
     408:	3f fc 00 00 00 00 00 00 00 00 00 00 00 00 1c 00     ?...............
     418:	0e 00 07 00 03 80 01 c0 00 e0 00 70 00 70 00 e0     ...........p.p..
     428:	01 c0 03 80 07 00 0e 00 1c 00 00 00 00 00 03 c0     ................
     438:	0f f0 1e 78 18 38 00 38 00 70 00 e0 01 c0 01 c0     ...x.8.8.p......
     448:	00 00 00 00 01 c0 01 c0 01 c0 00 00 00 00 0f f8     ................
     458:	1c 1c 1c 1c 1c 1c 1c 1c 1c fc 1c fc 1c fc 1c fc     ................
     468:	1c 00 1c 00 1c 00 1f f0 07 f8 00 00 00 00 00 00     ................
     478:	03 c0 07 e0 0e 70 1c 38 1c 38 1c 38 1c 38 1f f8     .....p.8.8.8.8..
     488:	1c 38 1c 38 1c 38 1c 38 00 00 00 00 00 00 00 00     .8.8.8.8........
     498:	1f f0 0e 38 0e 38 0e 38 0e 38 0f f0 0f f0 0e 38     ...8.8.8.8.....8
     4a8:	0e 38 0e 38 0e 38 1f f0 00 00 00 00 00 00 00 00     .8.8.8..........
     4b8:	07 f0 0e 38 1c 38 1c 00 1c 00 1c 00 1c 00 1c 00     ...8.8..........
     4c8:	1c 00 1c 38 0e 38 07 f0 00 00 00 00 00 00 00 00     ...8.8..........
     4d8:	1f e0 0e 70 0e 38 0e 38 0e 38 0e 38 0e 38 0e 38     ...p.8.8.8.8.8.8
     4e8:	0e 38 0e 38 0e 70 1f e0 00 00 00 00 00 00 00 00     .8.8.p..........
     4f8:	1f f8 0e 18 0e 08 0e 00 0e 30 0f f0 0f f0 0e 30     .........0.....0
     508:	0e 00 0e 08 0e 18 1f f8 00 00 00 00 00 00 00 00     ................
     518:	1f f8 0e 18 0e 08 0e 00 0e 30 0f f0 0f f0 0e 30     .........0.....0
     528:	0e 00 0e 00 0e 00 1f 00 00 00 00 00 00 00 00 00     ................
     538:	07 f0 0e 38 1c 38 1c 38 1c 00 1c 00 1c 00 1c f8     ...8.8.8........
     548:	1c 38 1c 38 0e 38 07 f8 00 00 00 00 00 00 00 00     .8.8.8..........
     558:	1c 70 1c 70 1c 70 1c 70 1c 70 1f f0 1f f0 1c 70     .p.p.p.p.p.....p
     568:	1c 70 1c 70 1c 70 1c 70 00 00 00 00 00 00 00 00     .p.p.p.p........
     578:	0f e0 03 80 03 80 03 80 03 80 03 80 03 80 03 80     ................
     588:	03 80 03 80 03 80 0f e0 00 00 00 00 00 00 00 00     ................
     598:	01 fc 00 70 00 70 00 70 00 70 00 70 00 70 38 70     ...p.p.p.p.p.p8p
     5a8:	38 70 38 70 38 70 0f e0 00 00 00 00 00 00 00 00     8p8p8p..........
     5b8:	1e 38 0e 38 0e 70 0e e0 0f c0 0f 80 0f 80 0f c0     .8.8.p..........
     5c8:	0e e0 0e 70 0e 38 1e 38 00 00 00 00 00 00 00 00     ...p.8.8........
     5d8:	1f 00 0e 00 0e 00 0e 00 0e 00 0e 00 0e 00 0e 00     ................
     5e8:	0e 08 0e 18 0e 38 1f f8 00 00 00 00 00 00 00 00     .....8..........
     5f8:	1c 1c 1e 3c 1f 7c 1f fc 1f fc 1d dc 1c 9c 1c 1c     ...<.|..........
     608:	1c 1c 1c 1c 1c 1c 1c 1c 00 00 00 00 00 00 00 00     ................
     618:	1c 1c 1c 1c 1e 1c 1f 1c 1f 9c 1d dc 1c fc 1c 7c     ...............|
     628:	1c 3c 1c 1c 1c 1c 1c 1c 00 00 00 00 00 00 00 00     .<..............
     638:	03 e0 07 f0 0e 38 1c 1c 1c 1c 1c 1c 1c 1c 1c 1c     .....8..........
     648:	1c 1c 0e 38 07 f0 03 e0 00 00 00 00 00 00 00 00     ...8............
     658:	1f f0 0e 38 0e 38 0e 38 0e 38 0f f0 0f f0 0e 00     ...8.8.8.8......
     668:	0e 00 0e 00 0e 00 1f 00 00 00 00 00 00 00 00 00     ................
     678:	03 e0 0f 78 0e 38 1c 1c 1c 1c 1c 1c 1c 1c 1c 7c     ...x.8.........|
     688:	1c fc 0f f8 0f f8 00 38 00 fc 00 00 00 00 00 00     .......8........
     698:	1f f0 0e 38 0e 38 0e 38 0e 38 0f f0 0f f0 0e 70     ...8.8.8.8.....p
     6a8:	0e 38 0e 38 0e 38 1e 38 00 00 00 00 00 00 00 00     .8.8.8.8........
     6b8:	0f f0 1c 38 1c 38 1c 38 1c 00 0f e0 07 f0 00 38     ...8.8.8.......8
     6c8:	1c 38 1c 38 1c 38 0f f0 00 00 00 00 00 00 00 00     .8.8.8..........
     6d8:	1f fc 19 cc 11 c4 01 c0 01 c0 01 c0 01 c0 01 c0     ................
     6e8:	01 c0 01 c0 01 c0 07 f0 00 00 00 00 00 00 00 00     ................
     6f8:	1c 70 1c 70 1c 70 1c 70 1c 70 1c 70 1c 70 1c 70     .p.p.p.p.p.p.p.p
     708:	1c 70 1c 70 1c 70 0f e0 00 00 00 00 00 00 00 00     .p.p.p..........
     718:	1c 70 1c 70 1c 70 1c 70 1c 70 1c 70 1c 70 1c 70     .p.p.p.p.p.p.p.p
     728:	1c 70 0e e0 07 c0 03 80 00 00 00 00 00 00 00 00     .p..............
     738:	1c 1c 1c 1c 1c 1c 1c 1c 1c 1c 1c 9c 1c 9c 1c 9c     ................
     748:	0f f8 0f f8 07 70 07 70 00 00 00 00 00 00 00 00     .....p.p........
     758:	1c 70 1c 70 1c 70 0e e0 07 c0 03 80 03 80 07 c0     .p.p.p..........
     768:	0e e0 1c 70 1c 70 1c 70 00 00 00 00 00 00 00 00     ...p.p.p........
     778:	1c 70 1c 70 1c 70 1c 70 1c 70 0e e0 07 c0 03 80     .p.p.p.p.p......
     788:	03 80 03 80 03 80 0f e0 00 00 00 00 00 00 00 00     ................
     798:	1f f8 1c 38 18 38 10 70 00 e0 01 c0 03 80 07 00     ...8.8.p........
     7a8:	0e 08 1c 18 1c 38 1f f8 00 00 00 00 00 00 00 00     .....8..........
     7b8:	07 f0 07 00 07 00 07 00 07 00 07 00 07 00 07 00     ................
     7c8:	07 00 07 00 07 00 07 f0 00 00 00 00 00 00 00 00     ................
     7d8:	10 00 18 00 1c 00 0e 00 07 00 03 80 01 c0 00 e0     ................
     7e8:	00 70 00 38 00 1c 00 07 00 00 00 00 00 00 00 00     .p.8............
     7f8:	07 f0 00 70 00 70 00 70 00 70 00 70 00 70 00 70     ...p.p.p.p.p.p.p
     808:	00 70 00 70 00 70 07 f0 00 00 00 00 00 00 01 80     .p.p.p..........
     818:	03 c0 07 e0 0e 70 1c 38 00 00 00 00 00 00 00 00     .....p.8........
	...
     850:	7f ff 7f ff 00 00 00 00 1c 00 1c 00 07 00 07 00     ................
	...
     880:	0f e0 00 70 00 70 0f f0 1c 70 1c 70 1c 70 0f d8     ...p.p...p.p.p..
	...
     898:	1e 00 0e 00 0e 00 0e 00 0f f0 0e 38 0e 38 0e 38     ...........8.8.8
     8a8:	0e 38 0e 38 0e 38 1b f0 00 00 00 00 00 00 00 00     .8.8.8..........
	...
     8c0:	0f e0 1c 70 1c 70 1c 00 1c 00 1c 70 1c 70 0f e0     ...p.p.....p.p..
	...
     8d8:	00 f8 00 70 00 70 00 70 0f f0 1c 70 1c 70 1c 70     ...p.p.p...p.p.p
     8e8:	1c 70 1c 70 1c 70 0f d8 00 00 00 00 00 00 00 00     .p.p.p..........
	...
     900:	0f e0 1c 70 1c 70 1f f0 1c 00 1c 70 1c 70 0f e0     ...p.p.....p.p..
	...
     918:	03 e0 07 70 07 70 07 00 07 00 1f e0 1f e0 07 00     ...p.p..........
     928:	07 00 07 00 07 00 1f c0 00 00 00 00 00 00 00 00     ................
	...
     940:	0f d8 1c 70 1c 70 1c 70 1c 70 0f f0 07 f0 00 70     ...p.p.p.p.....p
     950:	1c 70 0f e0 00 00 00 00 1e 00 0e 00 0e 00 0e 00     .p..............
     960:	0e f0 0f 38 0f 38 0e 38 0e 38 0e 38 0e 38 1e 38     ...8.8.8.8.8.8.8
	...
     978:	01 c0 01 c0 01 c0 00 00 0f c0 01 c0 01 c0 01 c0     ................
     988:	01 c0 01 c0 01 c0 0f f8 00 00 00 00 00 00 00 00     ................
     998:	00 70 00 70 00 70 00 00 03 f0 00 70 00 70 00 70     .p.p.p.....p.p.p
     9a8:	00 70 00 70 00 70 1c 70 0c f0 07 e0 00 00 00 00     .p.p.p.p........
     9b8:	1e 00 0e 00 0e 00 0e 00 0e 38 0e 70 0e e0 0f c0     .........8.p....
     9c8:	0e e0 0e 70 0e 38 1e 38 00 00 00 00 00 00 00 00     ...p.8.8........
     9d8:	0f c0 01 c0 01 c0 01 c0 01 c0 01 c0 01 c0 01 c0     ................
     9e8:	01 c0 01 c0 01 c0 0f f8 00 00 00 00 00 00 00 00     ................
	...
     a00:	1f f8 1c 9c 1c 9c 1c 9c 1c 9c 1c 9c 1c 9c 1c 9c     ................
	...
     a20:	1f e0 1c 70 1c 70 1c 70 1c 70 1c 70 1c 70 1c 70     ...p.p.p.p.p.p.p
	...
     a40:	0f e0 1c 70 1c 70 1c 70 1c 70 1c 70 1c 70 0f e0     ...p.p.p.p.p.p..
	...
     a60:	1b f0 0e 38 0e 38 0e 38 0e 38 0e 38 0f f0 0e 00     ...8.8.8.8.8....
     a70:	0e 00 1f 00 00 00 00 00 00 00 00 00 00 00 00 00     ................
     a80:	1f b0 38 e0 38 e0 38 e0 38 e0 38 e0 1f e0 00 e0     ..8.8.8.8.8.....
     a90:	00 e0 01 f0 00 00 00 00 00 00 00 00 00 00 00 00     ................
     aa0:	1e f0 0f f8 0f 38 0e 00 0e 00 0e 00 0e 00 1f 00     .....8..........
	...
     ac0:	0f e0 1c 30 1c 30 0f 80 03 e0 18 70 18 70 0f e0     ...0.0.....p.p..
	...
     ad8:	00 00 01 00 03 00 07 00 1f f0 07 00 07 00 07 00     ................
     ae8:	07 00 07 70 07 70 03 e0 00 00 00 00 00 00 00 00     ...p.p..........
	...
     b00:	1c 70 1c 70 1c 70 1c 70 1c 70 1c 70 1c 70 0f d8     .p.p.p.p.p.p.p..
	...
     b20:	1c 70 1c 70 1c 70 1c 70 1c 70 0e e0 07 c0 03 80     .p.p.p.p.p......
	...
     b40:	1c 1c 1c 1c 1c 1c 1c 9c 1c 9c 0f f8 07 70 07 70     .............p.p
	...
     b60:	1c e0 1c e0 0f c0 07 80 07 80 0f c0 1c e0 1c e0     ................
	...
     b80:	0e 38 0e 38 0e 38 0e 38 0e 38 07 f0 03 e0 00 e0     .8.8.8.8.8......
     b90:	01 c0 1f 80 00 00 00 00 00 00 00 00 00 00 00 00     ................
     ba0:	1f e0 18 e0 11 c0 03 80 07 00 0e 20 1c 60 1f e0     ........... .`..
	...
     bb8:	01 f8 03 80 03 80 03 80 07 00 1c 00 1c 00 07 00     ................
     bc8:	03 80 03 80 03 80 01 f8 00 00 00 00 00 00 01 c0     ................
     bd8:	01 c0 01 c0 01 c0 01 c0 01 c0 01 c0 01 c0 01 c0     ................
     be8:	01 c0 01 c0 01 c0 01 c0 01 c0 00 00 00 00 00 00     ................
     bf8:	1f 80 01 c0 01 c0 01 c0 00 e0 00 38 00 38 00 e0     ...........8.8..
     c08:	01 c0 01 c0 01 c0 1f 80 00 00 00 00 00 00 00 00     ................
     c18:	1f 1c 3b 9c 39 dc 38 f8 00 00 00 00 00 00 00 00     ..;.9.8.........
	...

00000c34 <FONT_8x8>:
	...
     c3c:	30 78 78 30 30 00 30 00 6c 6c 6c 00 00 00 00 00     0xx00.0.lll.....
     c4c:	6c 6c fe 6c fe 6c 6c 00 18 3e 60 3c 06 7c 18 00     ll.l.ll..>`<.|..
     c5c:	00 63 66 0c 18 33 63 00 1c 36 1c 3b 6e 66 3b 00     .cf..3c..6.;nf;.
     c6c:	30 30 60 00 00 00 00 00 0c 18 30 30 30 18 0c 00     00`.......000...
     c7c:	30 18 0c 0c 0c 18 30 00 00 66 3c ff 3c 66 00 00     0.....0..f<.<f..
     c8c:	00 30 30 fc 30 30 00 00 00 00 00 00 00 18 18 30     .00.00.........0
     c9c:	00 00 00 7e 00 00 00 00 00 00 00 00 00 18 18 00     ...~............
     cac:	03 06 0c 18 30 60 40 00 3e 63 63 6b 63 63 3e 00     ....0`@.>cckcc>.
     cbc:	18 38 58 18 18 18 7e 00 3c 66 06 1c 30 66 7e 00     .8X...~.<f..0f~.
     ccc:	3c 66 06 1c 06 66 3c 00 0e 1e 36 66 7f 06 0f 00     <f...f<...6f....
     cdc:	7e 60 7c 06 06 66 3c 00 1c 30 60 7c 66 66 3c 00     ~`|..f<..0`|ff<.
     cec:	7e 66 06 0c 18 18 18 00 3c 66 66 3c 66 66 3c 00     ~f......<ff<ff<.
     cfc:	3c 66 66 3e 06 0c 38 00 00 18 18 00 00 18 18 00     <ff>..8.........
     d0c:	00 18 18 00 00 18 18 30 0c 18 30 60 30 18 0c 00     .......0..0`0...
     d1c:	00 00 7e 00 00 7e 00 00 30 18 0c 06 0c 18 30 00     ..~..~..0.....0.
     d2c:	3c 66 06 0c 18 00 18 00 3e 63 6f 69 6f 60 3e 00     <f......>coio`>.
     d3c:	18 3c 66 66 7e 66 66 00 7e 33 33 3e 33 33 7e 00     .<ff~ff.~33>33~.
     d4c:	1e 33 60 60 60 33 1e 00 7c 36 33 33 33 36 7c 00     .3```3..|63336|.
     d5c:	7f 31 34 3c 34 31 7f 00 7f 31 34 3c 34 30 78 00     .14<41...14<40x.
     d6c:	1e 33 60 60 67 33 1f 00 66 66 66 7e 66 66 66 00     .3``g3..fff~fff.
     d7c:	3c 18 18 18 18 18 3c 00 0f 06 06 06 66 66 3c 00     <.....<.....ff<.
     d8c:	73 33 36 3c 36 33 73 00 78 30 30 30 31 33 7f 00     s36<63s.x00013..
     d9c:	63 77 7f 7f 6b 63 63 00 63 73 7b 6f 67 63 63 00     cw..kcc.cs{ogcc.
     dac:	3e 63 63 63 63 63 3e 00 7e 33 33 3e 30 30 78 00     >ccccc>.~33>00x.
     dbc:	3c 66 66 66 6e 3c 0e 00 7e 33 33 3e 36 33 73 00     <fffn<..~33>63s.
     dcc:	3c 66 30 18 0c 66 3c 00 7e 5a 18 18 18 18 3c 00     <f0..f<.~Z....<.
     ddc:	66 66 66 66 66 66 7e 00 66 66 66 66 66 3c 18 00     ffffff~.fffff<..
     dec:	63 63 63 6b 7f 77 63 00 63 63 36 1c 1c 36 63 00     ccck.wc.cc6..6c.
     dfc:	66 66 66 3c 18 18 3c 00 7f 63 46 0c 19 33 7f 00     fff<..<..cF..3..
     e0c:	3c 30 30 30 30 30 3c 00 60 30 18 0c 06 03 01 00     <00000<.`0......
     e1c:	3c 0c 0c 0c 0c 0c 3c 00 08 1c 36 63 00 00 00 00     <.....<...6c....
     e2c:	00 00 00 00 00 00 00 ff 18 18 0c 00 00 00 00 00     ................
     e3c:	00 00 3c 06 3e 66 3b 00 70 30 3e 33 33 33 6e 00     ..<.>f;.p0>333n.
     e4c:	00 00 3c 66 60 66 3c 00 0e 06 3e 66 66 66 3b 00     ..<f`f<...>fff;.
     e5c:	00 00 3c 66 7e 60 3c 00 1c 36 30 78 30 30 78 00     ..<f~`<..60x00x.
     e6c:	00 00 3b 66 66 3e 06 7c 70 30 36 3b 33 33 73 00     ..;ff>.|p06;33s.
     e7c:	18 00 38 18 18 18 3c 00 06 00 06 06 06 66 66 3c     ..8...<......ff<
     e8c:	70 30 33 36 3c 36 73 00 38 18 18 18 18 18 3c 00     p036<6s.8.....<.
     e9c:	00 00 66 7f 7f 6b 63 00 00 00 7c 66 66 66 66 00     ..f..kc...|ffff.
     eac:	00 00 3c 66 66 66 3c 00 00 00 6e 33 33 3e 30 78     ..<fff<...n33>0x
     ebc:	00 00 3b 66 66 3e 06 0f 00 00 6e 3b 33 30 78 00     ..;ff>....n;30x.
     ecc:	00 00 3e 60 3c 06 7c 00 08 18 3e 18 18 1a 0c 00     ..>`<.|...>.....
     edc:	00 00 66 66 66 66 3b 00 00 00 66 66 66 3c 18 00     ..ffff;...fff<..
     eec:	00 00 63 6b 7f 7f 36 00 00 00 63 36 1c 36 63 00     ..ck..6...c6.6c.
     efc:	00 00 66 66 66 3e 06 7c 00 00 7e 4c 18 32 7e 00     ..fff>.|..~L.2~.
     f0c:	0e 18 18 70 18 18 0e 00 0c 0c 0c 00 0c 0c 0c 00     ...p............
     f1c:	70 18 18 0e 18 18 70 00 3b 6e 00 00 00 00 00 00     p.....p.;n......
     f2c:	1c 36 36 1c 00 00 00 00 60 90 90 60 00 00 00 00     .66.....`..`....
     f3c:	22 77 7f 7f 3e 1c 08 00                             "w..>...

00000f44 <image_data_astex_logo>:
     f44:	fe ff df ff df ff ff ff ff ff ff ff df ff ff ff     ................
     f54:	ff f7 ff f7 ff ff df ff ff ff ff f7 ff ef ff ef     ................
     f64:	de ff 9e ff 7e ff 1d ff 97 fd 11 f4 0c d3 49 ba     ....~.........I.
     f74:	c6 a1 e7 a1 07 a2 69 b2 4d cb 72 f4 f8 fd 1d ff     ......i.M.r.....
     f84:	5f ff 9e ff ff ff ff e7 ff e7 ff f7 be ff bd ff     _...............
     f94:	df ff ff f7 ff f7 ff f7 ff ff ff ff ff ff df ff     ................
     fa4:	ff ff ff ff df ff ff ff ff ff ff ff ff ff ff ff     ................
     fb4:	ff ff ff ff df ff ff ff ff f7 ff f7 ff ff 9e ff     ................
     fc4:	9f ff 7f ff 9e ff d7 d5 51 ac cf a3 ef b3 51 cc     ........Q.....Q.
     fd4:	f3 ec 55 fd b7 fd d7 fd 96 fd 35 fd d4 ec 51 cc     ..U.......5...Q.
     fe4:	ae b3 8e a3 72 ac 18 d6 df ff be ff 9d ff ff ff     ....r...........
     ff4:	ff f7 ff f7 df ff ff ff fe ff fe ff fe ff ff ff     ................
    1004:	ff ff ff ff ff ff ff ff df ff ff ff ff f7 fe ff     ................
    1014:	ff ff ff ff ff ff ff ff df ff df ff ff ff ff f7     ................
    1024:	ff ff 9f ff 5b fe d1 e3 8f 9b 31 ac f8 dd 7d ff     ....[.....1...}.
    1034:	9e ff 7d ff 1c ff 9a fe b7 fd 56 fd b8 fd 9b fe     ..}.......V.....
    1044:	3d ff 7d ff 7d ff 5d ff d6 d5 ef 9b 4e 9b 71 dc     =.}.}.].....N.q.
    1054:	da fe 9d ff ff f7 ff e7 ff f7 de ff dd ff ff ff     ................
    1064:	ff ff ff ff ff ff ff ff ff ff ff ff df ff ff ff     ................
    1074:	fe f7 ff f7 ff f7 ff ff de ff ff ff ff f7 ff ff     ................
    1084:	bf ff be ff 5d ff b2 ac 6d a3 b2 ec 3d ff 3c ff     ....]...m...=.<.
    1094:	59 fe 92 ec 2c cb 08 b2 45 a9 a3 a8 a3 b0 a3 b0     Y...,...E.......
    10a4:	83 a8 c3 a0 66 a9 08 b2 4d d3 d3 fc fa fe 3c ff     ....f...M.....<.
    10b4:	fc fe 72 dc 4d 9b f3 bc 9e ff ff ff ff ff de ff     ..r.M...........
    10c4:	ff ff df ff bf f7 ff f7 ff ff fe ff ff ff ff ff     ................
    10d4:	ff ff ff ff ff ff ff ef ff f7 fe ff dd ff fe ff     ................
    10e4:	ff f7 ff ff 7f ff 15 ed 4c 9b 12 bd dc ff 9b ff     ........L.......
    10f4:	0f fc 07 da 82 b8 61 c0 21 c8 01 d0 21 d0 20 d0     ......a.!...!. .
    1104:	20 d0 20 c8 41 d0 61 d0 41 c8 41 c0 41 c0 20 c0      . .A.a.A.A.A. .
    1114:	82 b8 e7 e1 52 fc 5d ff bf ff b2 b4 0b a3 b5 fd     ....R.].........
    1124:	bd ff ff ff ff ff ff ff ff ff ff f7 ff ff fd ff     ................
    1134:	ff ff ff ff ff ff ff ff ff ff ff ff fe ff fe ff     ................
    1144:	ff ff ff ff df ff 5e ff 32 bc 6e ab ba fe 5b ff     ......^.2.n...[.
    1154:	90 ec c5 99 20 c8 20 d0 00 d8 00 e8 00 f0 00 f0     .... . .........
    1164:	00 e8 00 e8 00 e0 20 e8 00 e0 00 e0 00 e8 00 e8     ...... .........
    1174:	00 e8 00 e8 00 e0 42 e0 62 b8 a7 a9 14 ed 5c ff     ......B.b.....\.
    1184:	57 fe 0b b3 51 c4 bf ff df ff df ff ff ff ff ff     W...Q...........
    1194:	fe ff fe ff ff ff ff ff df ff ff ff ff ff de ff     ................
    11a4:	fd ff ff ff ff f7 bf ff 1c ff 0b b3 92 cc 7e ff     ..............~.
    11b4:	76 fd 86 d9 21 d0 22 d0 00 e0 00 e0 00 e8 00 e8     v...!.".........
    11c4:	00 e0 00 e8 00 e8 00 e0 00 e8 00 e0 00 e0 00 e8     ................
    11d4:	00 e8 00 e8 00 e8 00 e8 01 f0 00 d0 41 d0 41 d0     ............A.A.
    11e4:	40 c0 28 d2 38 fe 5d ff 11 c4 8f b3 7f ff df ff     @.(.8.].........
    11f4:	de ff fe ff de ff ff ff ff ff ff ff df ff df ff     ................
    1204:	df ff ff ff fe ff ff ff 9f ff fd fe ec aa 13 f5     ................
    1214:	5c ff 10 e4 83 a8 21 d8 00 f0 01 f0 00 e8 00 e0     \.....!.........
    1224:	00 d8 20 d8 20 d0 00 d8 00 d8 00 e0 00 e0 00 e8     .. . ...........
    1234:	00 e0 00 d8 00 e0 00 e0 00 d8 00 e0 01 e0 22 e0     ..............".
    1244:	00 e0 00 f0 00 f0 21 d0 a4 98 94 ec 1e ff 72 e4     ......!.......r.
    1254:	4c ab bd ff fe ff ff ff ff ff ff ff ff ff ff ff     L...............
    1264:	ff ff df ff df ff ff f7 ff f7 9e ff dc fe ec aa     ................
    1274:	95 e5 7c ff ca da 21 c8 21 d8 01 d0 01 e0 00 f0     ..|...!.!.......
    1284:	00 e0 00 e0 00 d8 20 d8 20 d8 00 d8 00 e0 00 e0     ...... . .......
    1294:	00 e0 00 e0 00 e0 00 d8 00 d8 20 d8 00 d8 00 d8     .......... .....
    12a4:	01 e0 00 e0 00 e0 00 e8 00 f0 00 e8 02 d8 64 b8     ..............d.
    12b4:	4e eb 1c ff 12 e5 6c 9b df ff ff ff ff ff de ff     N.....l.........
    12c4:	ff ff df ff ff ff ff ff fe ff ff f7 df ff 5e ff     ..............^.
    12d4:	0c b3 53 ed 9d ff aa b2 21 c0 00 f0 00 f0 41 d0     ..S.....!.....A.
    12e4:	41 c8 40 d8 00 e0 00 e0 00 e0 00 e0 00 e0 00 e0     A.@.............
    12f4:	00 e0 00 e0 00 e0 00 e0 00 e0 00 e0 00 e0 00 e0     ................
    1304:	00 d8 00 d8 00 e0 00 e0 00 e0 00 d8 01 d8 00 e8     ................
    1314:	00 f0 00 f0 62 c0 eb d2 5c ff d3 dc 8e a3 9f ff     ....b...\.......
    1324:	ff ff ff ff ff ff ff ff ff ff ff ef ff ef df ff     ................
    1334:	5f ff f2 cb d2 cc 7b ff ea ca 21 c0 41 e8 00 e8     _.....{...!.A...
    1344:	00 e0 00 e0 20 d8 40 d0 00 d8 00 e0 00 e0 00 e8     .... .@.........
    1354:	00 e8 00 e0 00 e0 00 e0 00 e0 00 e0 00 e0 00 e0     ................
    1364:	00 e0 00 e0 00 d8 20 d8 00 e0 00 e0 00 e0 21 d8     ...... .......!.
    1374:	21 d0 00 e0 00 f0 00 f0 00 e0 83 b8 4d d3 3d ff     !...........M.=.
    1384:	10 cc d2 d4 de ff ff ef df ff ff ff df ff ff ef     ................
    1394:	ff f7 be ff f5 f4 4e b3 9e ff ef db 41 c8 00 f0     ......N.....A...
    13a4:	00 e8 20 d0 40 d8 00 e8 00 f0 00 e8 00 e0 00 e0     .. .@...........
    13b4:	00 e0 00 e0 00 e0 00 e0 00 d8 00 d8 00 d8 00 d8     ................
    13c4:	00 e0 00 e0 00 e0 00 e0 00 e0 00 e0 20 d8 20 d8     ............ . .
    13d4:	01 d8 00 e0 00 e0 20 d8 20 d8 00 e0 00 e8 00 d8     ...... . .......
    13e4:	63 b8 31 fc 1c ff 0b a3 38 ee df ff ff ff ff ff     c.1.....8.......
    13f4:	ff ff ff ff bf ff 5d ff 6c 93 1b ff d4 fc 43 b8     ......].l.....C.
    1404:	01 e0 00 e8 00 e8 40 e0 00 d8 00 e8 00 f0 00 e8     ......@.........
    1414:	00 e8 00 e8 00 e0 00 e0 00 e0 00 e0 00 e0 00 e0     ................
    1424:	00 e0 00 d8 00 d8 00 d8 00 e0 00 e0 00 e8 00 e8     ................
    1434:	20 d8 00 d8 00 e0 00 e0 00 e0 20 d8 20 d0 20 d0      ......... . . .
    1444:	00 e0 00 e8 00 e0 62 b0 75 fd 99 fe 2d 9b 3d ff     ......b.u...-.=.
    1454:	df ff df ff ff f7 9f ff 5f ff b2 b4 b4 bd 5b ff     ........_.....[.
    1464:	a3 d0 01 f0 01 e0 21 d0 00 e0 00 e8 00 e8 40 d8     ......!.......@.
    1474:	00 d0 01 e8 00 e8 00 e8 00 e0 00 e0 00 e0 00 e0     ................
    1484:	00 e0 00 e0 00 e0 00 e0 00 d8 20 d8 00 e0 00 e0     .......... .....
    1494:	00 e8 00 f0 00 d8 00 e0 00 e0 00 e0 01 d8 00 e0     ................
    14a4:	00 e0 20 d8 20 d8 00 e8 00 e8 21 d0 09 ba 3d ff     .. . .....!...=.
    14b4:	31 cc b2 fc ff ff df ff ff f7 9f ff 7b fe 6d 9b     1...........{.m.
    14c4:	dc ff ad db 00 d0 01 f8 01 e0 40 c8 00 e0 00 f8     ..........@.....
    14d4:	00 f0 20 d0 20 d0 00 d8 00 e0 00 e0 00 e0 00 e0     .. . ...........
    14e4:	00 e0 00 e0 00 e0 00 e0 00 e0 00 e0 00 e0 00 e0     ................
    14f4:	00 e0 00 e0 00 e0 00 e0 00 e0 00 e0 00 e0 00 e0     ................
    1504:	01 e0 01 e0 00 e0 00 e0 00 d8 00 e0 00 e0 21 d8     ..............!.
    1514:	42 b8 11 fc fc fe 4c a3 9e f7 ff ff ff ff 9f ff     B.....L.........
    1524:	72 d4 13 ed b9 fe c2 98 42 c8 01 e8 00 e8 00 e0     r.......B.......
    1534:	00 e0 00 f0 00 e8 01 e0 00 d8 00 d8 01 d8 01 d8     ................
    1544:	01 d8 00 e0 00 e0 00 e0 00 e0 00 e0 00 e0 00 e0     ................
    1554:	00 e8 00 e8 00 e0 00 e0 20 d8 20 d0 00 e0 00 e0     ........ . .....
    1564:	00 e0 00 f0 00 f0 01 e8 01 d8 00 e0 00 e8 00 e0     ................
    1574:	41 d8 00 d0 00 e0 c3 d8 1c ff f3 a4 96 b5 df ff     A...............
    1584:	de ff bd ff ad 93 3c ff 0d f3 22 c8 21 d8 20 d8     ......<...".!. .
    1594:	20 d8 00 e0 01 e0 01 e0 00 e0 00 e0 00 e0 03 e8      ...............
    15a4:	03 d8 00 d8 20 d8 40 e0 00 d8 00 d8 21 e0 01 e0     .... .@.....!...
    15b4:	03 e8 03 e0 01 d8 20 d8 40 e0 20 e0 00 d8 40 d0     ...... .@. ...@.
    15c4:	60 c0 22 d8 02 e0 00 e0 60 d8 00 d0 02 e0 01 f0     `.".....`.......
    15d4:	00 f0 00 e0 01 e8 01 e8 00 e8 40 c0 71 f4 ff fe     ..........@.q...
    15e4:	2e bb 7e ff 9e ff 38 d6 92 ac 1c ff 03 d1 00 e0     ..~...8.........
    15f4:	00 e8 00 e8 00 e0 01 f0 00 e0 00 d8 20 d0 20 d8     ............ . .
    1604:	00 e8 00 f0 00 e8 20 e8 00 d8 00 e0 00 f8 00 f0     ...... .........
    1614:	00 d8 21 d8 01 d8 00 e8 00 f0 00 e0 00 d8 00 e0     ..!.............
    1624:	00 e0 00 e8 00 e0 00 d8 02 e0 00 e0 00 e0 00 e8     ................
    1634:	01 e8 02 e8 00 e0 00 d8 00 e0 00 e8 00 e8 20 d0     .............. .
    1644:	e8 b9 5f ff 8f c3 d8 fd 5d ff b3 ac 19 de 15 fd     .._.....].......
    1654:	20 c8 00 f8 00 f0 01 e0 01 e0 00 e8 00 e8 40 d8      .............@.
    1664:	40 d8 00 d8 00 e8 00 e8 00 e8 00 d8 21 d8 01 e0     @...........!...
    1674:	00 e0 00 e0 20 d0 60 d0 20 d8 00 e0 00 e8 20 f0     .... .`. ..... .
    1684:	00 e8 00 e0 00 e8 00 e8 00 f0 00 e0 21 e0 00 e0     ............!...
    1694:	00 f0 00 f0 00 e0 01 d8 01 d8 20 d8 00 d0 20 e0     .......... ... .
    16a4:	00 e0 02 d8 83 a8 d7 fd 14 ed 92 e4 5d ff af 9b     ............]...
    16b4:	7f ff 2e cb 41 c0 00 e0 01 d8 02 c0 42 c8 41 d8     ....A.......B.A.
    16c4:	00 d8 00 d8 01 e8 01 e8 20 d8 60 c8 40 d0 a6 f1     ........ .`.@...
    16d4:	29 ea 09 d2 49 ca 29 ca 49 e2 a5 f1 c1 f0 40 d8     )...I.).I.....@.
    16e4:	40 c8 20 d0 00 e0 00 f0 00 e0 42 d0 20 d0 00 d8     @. .......B. ...
    16f4:	00 e0 00 e0 00 d0 60 d8 40 d8 00 d8 01 d8 41 d8     ......`.@.....A.
    1704:	20 d0 20 d8 00 e0 02 e0 82 c0 8c fb b9 fe ae c3      . .............
    1714:	17 fe cf b3 7e ff e8 b1 22 c0 42 d8 22 b8 e9 d1     ....~...".B."...
    1724:	a7 c1 e3 c0 41 c8 22 d8 01 d8 02 d0 66 d9 45 b1     ....A.".....f.E.
    1734:	41 c0 a7 e9 08 d2 db fe bf ff 9e ff 51 fc 85 f9     A...........Q...
    1744:	a1 f0 60 c0 c2 a8 86 c9 42 c8 01 d0 42 c8 e4 b8     ..`.....B...B...
    1754:	03 99 60 b8 00 d8 00 d8 62 c0 e3 c8 40 d0 00 e0     ..`.....b...@...
    1764:	00 e0 01 d8 40 d8 00 d8 00 e8 00 e0 20 c8 e6 f1     ....@....... ...
    1774:	bc ff ce bb 91 f4 71 dc 9b fe a3 a8 42 d8 26 f9     ......q.....B.&.
    1784:	11 fc 6a ba 92 f4 f8 fd 52 fc 05 c1 87 c1 55 fd     ..j.....R.....U.
    1794:	93 fc 90 eb 08 fa 00 c8 a3 b0 19 fe ff ef ff ff     ................
    17a4:	eb ca 21 c8 61 d0 c7 d1 76 fd 52 f4 36 fd ab d2     ..!.a...v.R.6...
    17b4:	a3 a8 93 fc b9 fe 17 fe eb fa 62 c0 0d fb cc fa     ..........b.....
    17c4:	00 d8 00 e0 00 d8 20 d0 00 d8 00 e8 00 e8 00 e0     ...... .........
    17d4:	00 d0 c2 e8 dd ff 50 c4 0a cb 13 fd 76 fd 61 b0     ......P.....v.a.
    17e4:	00 d8 c2 e8 c7 d1 a7 91 6e b3 3d ff fc fe 4d bb     ........n.=...M.
    17f4:	33 dd 9c ff 59 fe 2a a2 40 d0 00 e0 21 c0 d8 fd     3...Y.*.@...!...
    1804:	ff f7 be ff cb da 41 c0 04 b9 bc fe dc fe 09 92     ......A.........
    1814:	d7 ed 5e ff 87 b1 47 f9 7e ff 9e ff 5d ff 8e db     ..^...G.~...]...
    1824:	4e fb 01 c8 00 e0 20 e0 20 d8 20 d8 00 d8 01 e8     N..... . . .....
    1834:	00 e0 00 e0 20 e0 00 d8 fb fe f4 d4 89 b2 14 fd     .... ...........
    1844:	d3 fc 81 b8 60 b8 4c fb 78 fe 34 f5 51 c4 9e ff     ....`.L.x.4.Q...
    1854:	9e ff 0f ac ed ab 9c ff bd ff fc fe 24 d1 00 d8     ............$...
    1864:	41 d0 d7 fd ff f7 bf ff aa e2 61 b8 eb d2 7e ff     A.........a...~.
    1874:	5e ff 8f bb 19 fe 7e ff 2d eb 00 e0 f0 bb ff ff     ^.....~.-.......
    1884:	ff ef 9d ff c2 98 41 c8 21 d8 00 d8 00 e0 00 e8     ......A.!.......
    1894:	20 e0 21 d0 01 d8 00 e8 00 e0 00 d8 18 fe 56 ed      .!...........V.
    18a4:	08 92 d7 fd 51 fc 82 a8 c7 b1 5c ff 9d ff 0e bc     ....Q.....\.....
    18b4:	27 82 9e ff 9e ff f0 bb 03 91 f2 fc 9e ff ff e7     '...............
    18c4:	d5 fc 62 c0 82 c0 b7 fd ff ef df ff aa da 61 c0     ..b...........a.
    18d4:	8a d2 7e ff 5e ff 6e c3 c8 a9 08 c2 a5 c9 60 c8     ..~.^.n.......`.
    18e4:	cc d2 fc fe ff e7 fe ff 90 e4 c2 a8 83 c0 64 e0     ..............d.
    18f4:	00 e8 00 e0 42 c8 c4 c0 42 d0 00 e8 00 e8 20 d0     ....B...B..... .
    1904:	76 f5 97 f5 09 92 f8 fd 10 fc a3 b0 46 a9 1d ff     v...........F...
    1914:	7d ff d2 dc ad cb 3d ff 3d ff f1 fb 25 d9 25 d9     }.....=.=...%.%.
    1924:	b6 fd df f7 57 fd 62 b8 41 b0 79 fe bf ff 9e ff     ....W.b.A.y.....
    1934:	eb ea 00 d0 42 c0 97 fd 5d ff 08 aa 63 b8 d0 fb     ....B...]...c...
    1944:	64 e1 e8 fa ac fa 46 a1 3d ff bd ff 5b ff 0b db     d.....F.=...[...
    1954:	46 c1 32 fc c5 d8 63 b8 4f fb 8f fb 41 d0 00 f0     F.2...c.O...A...
    1964:	00 e8 20 d0 76 f5 96 f5 08 9a d8 fd 32 fc 63 b0     .. .v.......2.c.
    1974:	62 c0 08 da 14 fd d3 fc 8f fb 32 fc 32 fc ab fa     b.........2.2...
    1984:	86 e9 2c fb ce fb f3 fc 46 d9 41 c0 82 c8 cf fb     ..,.....F.A.....
    1994:	b3 fc b2 fc e7 e9 00 e0 00 e0 e5 d0 51 fc cf fb     ............Q...
    19a4:	0d fb 87 f9 e3 d8 4b fb 00 f0 02 c8 2a d2 b3 fc     ......K.....*...
    19b4:	d3 fc 52 fc 67 c1 92 fc 10 fc 72 f4 d4 fc 4f fb     ..R.g.....r...O.
    19c4:	00 d0 00 f0 00 e8 00 d0 d6 f5 d6 f5 a9 b2 76 fd     ..............v.
    19d4:	f5 fc 83 b0 00 c8 40 d0 20 b0 c4 b0 a4 b8 63 c0     ......@. .....c.
    19e4:	62 c0 61 b8 a2 a8 c2 a8 82 b0 61 b8 40 d0 41 d0     b.a.......a.@.A.
    19f4:	21 c8 21 c8 41 c8 41 c0 61 c8 20 d0 21 e0 21 d0     !.!.A.A.a. .!.!.
    1a04:	41 b8 c3 a8 a3 b0 62 b8 42 c0 41 b8 00 e8 01 d0     A.....b.B.A.....
    1a14:	63 c0 63 b0 42 a8 62 b0 24 b9 50 fc 4f e4 6d bb     c.c.B.b.$.P.O.m.
    1a24:	b3 f4 4e fb 20 c0 60 e0 20 d8 00 c8 37 f6 75 dd     ..N. .`. ...7.u.
    1a34:	4b c3 f3 f4 98 fd c3 90 c2 b8 60 b8 82 b8 63 b0     K.........`...c.
    1a44:	62 a8 82 b0 81 b0 c1 a8 a1 a0 c2 a8 c3 b0 62 b0     b.............b.
    1a54:	81 b8 40 b0 62 c0 62 c0 62 c0 41 b0 61 b0 81 b8     ..@.b.b.b.A.a...
    1a64:	60 b0 61 b0 a3 b8 62 a8 a3 a0 c3 a8 83 b0 64 b8     `.a...b.......d.
    1a74:	80 b8 61 b0 42 b0 a3 b8 81 a8 c1 b0 a1 a8 a1 a0     ..a.B...........
    1a84:	c2 90 03 91 e2 90 c3 a0 c3 b0 82 b8 21 b0 83 c0     ............!...
    1a94:	3b ff f3 cc b1 ec 71 d4 3d ff 92 e4 50 fc ef fb     ;.....q.=...P...
    1aa4:	f0 fb f0 fb 10 fc 0f fc 2e fc 0f fc ef fb af fb     ................
    1ab4:	11 fc 32 fc 10 fc 10 fc 10 fc cf fb 11 fc 31 fc     ..2...........1.
    1ac4:	10 fc 2f fc 2f fc ef fb 31 fc 11 fc f0 fb ce fb     .././...1.......
    1ad4:	f0 fb f1 fb 4e fc 30 fc 31 fc cf fb 2f fc 2d fc     ....N.0.1.../.-.
    1ae4:	ed fb ce fb af fb 0f fc ee fb ee fb f0 fb 10 fc     ................
    1af4:	10 fc 10 fc 9d ff 10 bc 37 fe ce b3 7e ff b3 dc     ........7...~...
    1b04:	2c eb 2d fb 0d fb 2d fb 4d fb 2b fb 4b fb 2c fb     ,.-...-.M.+.K.,.
    1b14:	0d fb ed fa 0d fb 4e fb 4d fb 0c fb 4d fb 4d fb     ......N.M...M.M.
    1b24:	4e fb 4e fb 4d fb eb fa 2d fb 2d fb 2d fb cc fa     N.N.M...-.-.-...
    1b34:	2d fb 2c fb 2c fb 4c fb 4c fb 2d fb 0c fb 4d fb     -.,.,.L.L.-...M.
    1b44:	2c fb 2c fb 2d fb ec fa ec fa 0c fb 2c fb 2d fb     ,.,.-.......,.-.
    1b54:	4d fb 4d fb 0c eb 92 fc 7c ff 8e bb 1b ff ae a3     M.M.....|.......
    1b64:	9e ff 2d b3 62 c0 00 d8 21 d0 83 b0 a3 a8 81 b8     ..-.b...!.......
    1b74:	61 c0 41 b8 63 c0 23 c0 42 c8 41 c0 20 c0 81 c0     a.A.c.#.B.A. ...
    1b84:	41 b8 63 b8 42 c0 41 c0 41 c0 63 c0 43 c0 43 c0     A.c.B.A.A.c.C.C.
    1b94:	21 c0 61 b8 42 b8 42 b8 61 b8 60 b8 22 c8 42 c0     !.a.B.B.a.`.".B.
    1ba4:	62 c0 62 b8 42 c0 44 c0 44 c0 62 b0 a2 b0 a2 b0     b.b.B.D.D.b.....
    1bb4:	43 b8 23 c0 42 c0 81 b8 c2 a0 8e eb da fe 8e c3     C.#.B...........
    1bc4:	7e ff b2 b4 f5 dd 74 fd 42 b8 03 d0 66 d8 43 c8     ~.....t.B...f.C.
    1bd4:	62 c8 04 c9 05 a9 88 a9 46 b1 c3 a0 07 b2 ce c3     b.......F.......
    1be4:	e4 a8 25 b9 a3 a8 66 b9 6a da 05 b9 a3 b0 25 b9     ..%...f.j.....%.
    1bf4:	66 b9 ae f3 65 a9 8e eb ec da 25 a1 06 a9 06 b9     f...e.....%.....
    1c04:	07 b9 a4 a0 a7 c1 cc ea 27 b9 c5 98 a7 a1 4e db     ........'.....N.
    1c14:	c5 98 26 b1 05 a9 c7 c1 cc e2 a4 a0 a2 98 16 fe     ..&.............
    1c24:	b4 fc 72 ec be ff 17 ce 50 ac 1c ff a4 c8 47 f9     ..r.....P.....G.
    1c34:	33 fc 05 c1 c6 c9 91 fc 10 fc b0 fb b0 fb d0 fb     3...............
    1c44:	51 fc 30 fc ae fb cf fb af fb 0c fb 72 fc 45 c9     Q.0.........r.E.
    1c54:	a8 e1 11 fc 11 fc 4d fb a3 a0 92 fc 31 fc f0 fb     ......M.....1...
    1c64:	af fb d0 fb f0 fb d0 fb af f3 af fb d0 fb 11 fc     ................
    1c74:	d0 fb 51 fc 10 fc 2d fb 51 fc 2e fb 73 fc ab e2     ..Q...-.Q...s...
    1c84:	28 aa 5b ff 8e bb 38 fe fe ff df ff 8f a3 9c fe     (.[...8.........
    1c94:	2e fb e4 d0 8a fa c3 b8 49 d2 ef fb 07 e2 86 e9     ........I.......
    1ca4:	a7 f1 c8 e9 29 f2 29 ea e7 e1 6a fa c7 f1 66 e1     ....).)...j...f.
    1cb4:	a7 e9 e4 d8 a4 d8 29 fa e8 e9 a7 d9 82 b8 6a fa     ......).......j.
    1cc4:	e8 e1 69 ea 49 ea 29 f2 a9 e2 71 fc 52 fc 6a da     ..i.I.)...q.R.j.
    1cd4:	28 ea 48 f2 e8 e9 28 ea 07 ea c6 d9 28 ea e9 f1     (.H...(.....(...
    1ce4:	4a fa a7 c9 b2 e4 1b f7 cf 9b be ff ff ef bf ff     J...............
    1cf4:	52 d4 b5 e4 1d ff c3 98 60 d0 21 d0 05 d1 45 c9     R.......`.!...E.
    1d04:	40 c0 20 e0 20 d8 42 c0 01 c0 00 d8 40 c8 21 d0     @. . .B.....@.!.
    1d14:	21 d8 00 d0 21 d0 01 d8 21 d8 01 d0 21 d0 62 d0     !...!...!...!.b.
    1d24:	21 d0 21 d0 41 d0 41 c8 41 c8 20 c8 81 b0 44 d1     !.!.A.A.A. ...D.
    1d34:	46 d9 42 c0 62 c8 61 c8 40 c8 40 d0 60 d8 00 c8     F.B.b.a.@.@.`...
    1d44:	41 c8 42 c8 42 c0 25 b1 3d ff 72 ac b6 c5 ff ff     A.B.B.%.=.r.....
    1d54:	ff ef 9f ff dc fe 2d 9b be ff 10 dc 20 c0 00 f0     ......-..... ...
    1d64:	01 e8 02 d0 20 d8 00 e0 00 d8 42 d0 21 d8 00 e8     .... .....B.!...
    1d74:	41 d8 00 d0 00 e0 21 e8 01 e0 00 e0 00 e0 00 e0     A.....!.........
    1d84:	00 d8 00 d8 00 e0 00 e8 00 e0 00 d8 00 e0 20 e0     .............. .
    1d94:	61 c8 20 d0 00 e8 00 e0 01 d8 20 d0 20 d8 20 d8     a. ....... . . .
    1da4:	00 d8 20 e0 00 d8 41 d0 82 a8 92 fc dc fe 2e b3     .. ...A.........
    1db4:	bf ff ff ff df ff bf ff 9e ff f3 cc d2 c4 5d ff     ..............].
    1dc4:	66 c1 01 e0 00 f0 00 f0 00 e0 00 d8 20 d8 00 d8     f........... ...
    1dd4:	00 e0 00 e0 41 d8 00 d8 00 e0 00 d8 00 e0 00 e0     ....A...........
    1de4:	00 e8 00 e0 00 e0 00 e0 00 e8 00 f0 00 e8 00 e8     ................
    1df4:	20 e0 00 d8 20 d0 00 e0 00 e8 00 e8 00 e0 00 e8      ... ...........
    1e04:	00 e0 00 d8 20 d8 20 e8 00 e8 20 d0 49 ba 5d ff     .... . ... .I.].
    1e14:	f0 bb b4 fc df ff df ff ff ff ff ff df ff 7c ff     ..............|.
    1e24:	0a ab 79 fe 56 fd a3 a8 00 e0 00 f8 00 e8 01 d0     ..y.V...........
    1e34:	40 d8 20 e8 00 e8 01 e0 21 d8 00 d8 01 e0 00 e0     @. .....!.......
    1e44:	00 d8 00 e0 20 e0 00 e0 00 d8 00 e0 00 e8 00 e0     .... ...........
    1e54:	00 e8 00 d8 00 d8 21 d8 00 d8 00 e0 00 e0 00 e0     ......!.........
    1e64:	00 e8 00 e8 00 e0 01 d8 20 d8 00 e0 00 e8 62 c0     ........ .....b.
    1e74:	38 fe 58 e6 8d 93 5d ff bf ff df ff fd ff ff ef     8.X...].........
    1e84:	ff f7 de ff b5 f5 2b ab 7d ff 51 e4 81 b0 00 e0     ......+.}.Q.....
    1e94:	00 f0 01 e0 00 d0 20 d8 00 e0 01 e0 00 e0 00 e8     ...... .........
    1ea4:	00 e0 00 e0 20 e0 00 d8 20 d8 20 d8 20 d8 20 e0     .... ... . . . .
    1eb4:	00 d8 00 e0 00 e0 00 e0 00 d8 21 d8 00 e0 01 e0     ..........!.....
    1ec4:	20 d8 00 d8 00 e0 00 e0 01 e0 01 e8 00 e8 00 d8      ...............
    1ed4:	62 c0 b2 fc 3c ff 4b 93 99 f6 bf ff ff ff ff ff     b...<.K.........
    1ee4:	fe ff ff ff ff f7 ff f7 fe ff b2 c4 2f c4 3c ff     ............/.<.
    1ef4:	2c db 62 c0 00 e0 00 f0 00 e0 20 d8 21 e0 00 e0     ,.b....... .!...
    1f04:	00 f0 00 e8 00 e0 00 e0 00 d8 20 d8 00 d8 20 d8     .......... ... .
    1f14:	00 d8 00 d8 00 e0 00 e0 00 e0 00 e0 00 e0 00 e0     ................
    1f24:	01 d8 00 e0 00 e0 00 e8 00 e0 21 d0 21 e0 00 f0     ..........!.!...
    1f34:	00 f0 22 c0 f0 eb 5d ff ce bb b2 e4 9e ff ff ff     .."...].........
    1f44:	ff ff ff ff ff ff de ff ff ff ff f7 ff f7 be ff     ................
    1f54:	ee b3 91 e4 1d ff ac d2 82 b8 20 d8 00 e8 00 e8     .......... .....
    1f64:	00 e0 00 e0 00 e8 00 e8 00 e0 40 e0 20 d8 20 d8     ..........@. . .
    1f74:	00 d8 00 e0 00 d8 00 e0 00 e0 00 e0 00 e0 00 e0     ................
    1f84:	00 e8 00 e8 20 d0 21 e8 00 e8 00 e8 00 e0 00 d8     .... .!.........
    1f94:	00 e0 00 d8 42 c0 6e eb 3d ff 71 c4 ef bb 7e ff     ....B.n.=.q...~.
    1fa4:	bf ff ff f7 ff ff ff ff df ff ff ff ff ff ff ff     ................
    1fb4:	df ff df ff 9e ff 6d a3 d4 ec 1d ff 8e e3 61 a8     ......m.......a.
    1fc4:	41 e0 00 f0 00 f0 01 e0 00 e0 20 e0 20 d8 00 d0     A......... . ...
    1fd4:	00 d0 00 e0 00 e0 00 e0 01 e8 01 e8 00 e0 00 d8     ................
    1fe4:	00 d8 00 e0 00 e0 00 e0 40 d8 00 e0 00 f0 00 e0     ........@.......
    1ff4:	20 e0 00 e0 20 e0 62 b0 31 e4 7d ff b2 dc 4d bb      ... .b.1.}...M.
    2004:	9f ff ff ff ff f7 fe ff ff ff ff ff df ff bf ff     ................
    2014:	ff ff bf ff 9f ff df ff ff ff 9e ff 6d a3 b2 e4     ............m...
    2024:	3c ff d2 fc c2 b0 41 d0 00 d8 01 d8 00 e8 00 e0     <.....A.........
    2034:	00 e0 00 e0 00 e8 00 e8 00 e0 01 e8 01 e8 00 e0     ................
    2044:	00 e0 20 d8 20 e0 00 e0 00 e0 00 e0 00 e8 00 f0     .. . ...........
    2054:	00 e8 20 d8 80 d0 20 c8 a3 c0 15 fd 9e ff 91 b4     .. ... .........
    2064:	6e b3 5e ff bf ff ff e7 ff ef fd ff ff ff ff ff     n.^.............
    2074:	ff f7 ff ff df ff 9f ff df ff ff ff df f7 ff ff     ................
    2084:	bf ff 8e ab ae cb 3c ff 79 fe aa ba 81 a8 41 d8     ......<.y.....A.
    2094:	01 f0 00 e8 00 e0 00 e8 01 e8 00 e8 00 e0 00 e0     ................
    20a4:	01 e8 01 e0 01 e0 20 d8 00 d8 00 e0 00 e8 00 e8     ...... .........
    20b4:	00 f0 00 e8 20 e0 40 c8 60 a8 cb d2 fc fe 1d ff     .... .@.`.......
    20c4:	8e b3 ef b3 9f ff bf ff ff ff ff ff fe ff ff ff     ................
    20d4:	ff ff ff ff ff ef ff ff bf ff ff ff ff f7 ff ff     ................
    20e4:	ff ff ff ff df ff 9e ff 51 dc 0c b3 17 ee bd ff     ........Q.......
    20f4:	33 fd a6 d1 02 c8 01 c0 22 c8 02 d8 01 e0 01 e0     3.......".......
    2104:	00 d8 00 d8 00 e0 00 e0 00 d8 00 d0 00 d8 01 e0     ................
    2114:	01 e0 00 d8 03 d0 21 c8 40 b8 27 e2 34 fd 7e ff     ......!.@.'.4.~.
    2124:	18 de 2c 9b 92 ec 7e ff ff ff ff e7 ff ff be ff     ..,...~.........
    2134:	be ff ff ff ff ff ff ff ff f7 df ff df ff ff ff     ................
    2144:	fe f7 ff f7 ff ff ff ff ff ff df ff 9f ff d8 ed     ................
    2154:	6e a3 51 c4 3c ff 3c ff 14 fd 4c d3 66 a9 62 a8     n.Q.<.<...L.f.b.
    2164:	42 c0 21 c8 20 d0 20 d8 00 e0 00 e0 00 d8 41 d0     B.!. . .......A.
    2174:	41 d0 22 c8 42 c8 62 c0 46 a1 0c cb 75 fd fc fe     A.".B.b.F...u...
    2184:	9b fe d0 bb 8e 93 79 ee be ff bf ff ff ff ff f7     ......y.........
    2194:	de ff df ff df ff ff ff ff ff ff ff de ff ff ff     ................
    21a4:	ff ff ff ff fe ff fe ff ff f7 fe f7 ff ff ff ff     ................
    21b4:	ff f7 df ff 3e ff 72 fc ec aa 92 ac 3a f7 dd ff     ....>.r.....:...
    21c4:	7b ff 34 fd 2c fb e7 f1 44 e9 a1 e0 20 e0 00 e0     {.4.,...D... ...
    21d4:	41 d8 e3 e0 45 e1 e8 e9 6e fb d3 fc 9c ff bd ff     A...E...n.......
    21e4:	ba ee 32 b4 0d b3 f4 fc 3c ff df ff ff ef ff f7     ..2.....<.......
    21f4:	fd ff dd ff ff ff ff f7 ff ef ff ff ff ff ff ff     ................
    2204:	ff ff ff ff ff ff ff ff ff ff ff ff ff ff ff ff     ................
    2214:	ff ff ff ff ff ff ff ff ff ff ff ff 7d ff 55 c5     ............}.U.
    2224:	6e b3 6e bb b3 ec 59 fe 5d ff 9d ff 9e ff 9e ff     n.n...Y.].......
    2234:	3d ff 7e ff 7d ff 9e ff 9e ff 7e ff 5d ff 59 fe     =.~.}.....~.].Y.
    2244:	b3 e4 2d bb 4e ab 76 d5 de ff ff ff ff ff ff ff     ..-.N.v.........
    2254:	ff ff ff ff ff ff ff ff ff ff ff ff ff ff ff ff     ................
    2264:	ff ff ff ff ff ff ff ff ff ff ff ff ff ff ff ff     ................
    2274:	ff ff ff ff ff ff ff ff ff ff ff ff ff ff df ff     ................
    2284:	df ff 9e ff 5d ff b7 fd 72 dc af c3 8e ab 30 b4     ....]...r.....0.
    2294:	d3 c4 75 d5 96 dd b7 dd b6 d5 76 d5 d3 c4 10 bc     ..u.......v.....
    22a4:	cf bb ae b3 92 e4 f8 fd 5e ff be ff ff ff ff ff     ........^.......
    22b4:	ff ff df ff ff ff ff ff ff ff ff ff ff ff ff ff     ................
    22c4:	ff ff ff ff ff ff ff ff                             ........

000022cc <__c.2161>:
    22cc:	6e 61 6e 00                                         nan.

000022d0 <__c.2159>:
    22d0:	69 6e 66 00 00 40 7a 10 f3 5a 00 a0 72 4e 18 09     inf..@z..Z..rN..
    22e0:	00 10 a5 d4 e8 00 00 e8 76 48 17 00 00 e4 0b 54     ........vH.....T
    22f0:	02 00 00 ca 9a 3b 00 00 00 e1 f5 05 00 00 80 96     .....;..........
    2300:	98 00 00 00 40 42 0f 00 00 00 a0 86 01 00 00 00     ....@B..........
    2310:	10 27 00 00 00 00 e8 03 00 00 00 00 64 00 00 00     .'..........d...
    2320:	00 00 0a 00 00 00 00 00 01 00 00 00 00 00 2c 76     ..............,v
    2330:	d8 88 dc 67 4f 08 23 df c1 df ae 59 e1 b1 b7 96     ...gO.#....Y....
    2340:	e5 e3 e4 53 c6 3a e6 51 99 76 96 e8 e6 c2 84 26     ...S.:.Q.v.....&
    2350:	eb 89 8c 9b 62 ed 40 7c 6f fc ef bc 9c 9f 40 f2     ....b.@|o.....@.
    2360:	ba a5 6f a5 f4 90 05 5a 2a f7 5c 93 6b 6c f9 67     ..o....Z*.\.kl.g
    2370:	6d c1 1b fc e0 e4 0d 47 fe f5 20 e6 b5 00 d0 ed     m......G.. .....
    2380:	90 2e 03 00 94 35 77 05 00 80 84 1e 08 00 00 20     .....5w........ 
    2390:	4e 0a 00 00 00 c8 0c 33 33 33 33 0f 98 6e 12 83     N......3333..n..
    23a0:	11 41 ef 8d 21 14 89 3b e6 55 16 cf fe e6 db 18     .A..!..;.U......
    23b0:	d1 84 4b 38 1b f7 7c 1d 90 1d a4 bb e4 24 20 32     ..K8..|......$ 2
    23c0:	84 72 5e 22 81 00 c9 f1 24 ec a1 e5 3d 27           .r^"....$...='

000023ce <__ctors_end>:
    23ce:	11 24       	eor	r1, r1
    23d0:	1f be       	out	0x3f, r1	; 63
    23d2:	cf e5       	ldi	r28, 0x5F	; 95
    23d4:	d8 e0       	ldi	r29, 0x08	; 8
    23d6:	de bf       	out	0x3e, r29	; 62
    23d8:	cd bf       	out	0x3d, r28	; 61

000023da <__do_copy_data>:
    23da:	12 e0       	ldi	r17, 0x02	; 2
    23dc:	a0 e6       	ldi	r26, 0x60	; 96
    23de:	b0 e0       	ldi	r27, 0x00	; 0
    23e0:	e0 ed       	ldi	r30, 0xD0	; 208
    23e2:	f4 e5       	ldi	r31, 0x54	; 84
    23e4:	02 c0       	rjmp	.+4      	; 0x23ea <__do_copy_data+0x10>
    23e6:	05 90       	lpm	r0, Z+
    23e8:	0d 92       	st	X+, r0
    23ea:	a6 3d       	cpi	r26, 0xD6	; 214
    23ec:	b1 07       	cpc	r27, r17
    23ee:	d9 f7       	brne	.-10     	; 0x23e6 <__do_copy_data+0xc>

000023f0 <__do_clear_bss>:
    23f0:	22 e0       	ldi	r18, 0x02	; 2
    23f2:	a6 ed       	ldi	r26, 0xD6	; 214
    23f4:	b2 e0       	ldi	r27, 0x02	; 2
    23f6:	01 c0       	rjmp	.+2      	; 0x23fa <.do_clear_bss_start>

000023f8 <.do_clear_bss_loop>:
    23f8:	1d 92       	st	X+, r1

000023fa <.do_clear_bss_start>:
    23fa:	a2 3e       	cpi	r26, 0xE2	; 226
    23fc:	b2 07       	cpc	r27, r18
    23fe:	e1 f7       	brne	.-8      	; 0x23f8 <.do_clear_bss_loop>
    2400:	0e 94 dd 18 	call	0x31ba	; 0x31ba <main>
    2404:	0c 94 66 2a 	jmp	0x54cc	; 0x54cc <_exit>

00002408 <__bad_interrupt>:
    2408:	0c 94 00 00 	jmp	0	; 0x0 <__vectors>

0000240c <TFT_DP_DATA>:
#include <avr/pgmspace.h>

//display data write path define function
void TFT_DP_DATA(uint16_t Data)
{
	PORTC = (uint8_t) (Data & 0x00FF);
    240c:	85 bb       	out	0x15, r24	; 21
	PORTA = (uint8_t) ((Data & 0xFE00)>>8);
    240e:	9c 01       	movw	r18, r24
    2410:	22 27       	eor	r18, r18
    2412:	3e 7f       	andi	r19, 0xFE	; 254
    2414:	3b bb       	out	0x1b, r19	; 27
	if (Data & (1<<8)) PORTB |=(1<<0);
    2416:	90 ff       	sbrs	r25, 0
    2418:	02 c0       	rjmp	.+4      	; 0x241e <TFT_DP_DATA+0x12>
    241a:	c0 9a       	sbi	0x18, 0	; 24
    241c:	08 95       	ret
	else PORTB &=~(1<<0);
    241e:	c0 98       	cbi	0x18, 0	; 24
    2420:	08 95       	ret

00002422 <Write_Command>:



void Write_Command(uint16_t Wcommand)
{
	TFT_RD_1;
    2422:	c2 9a       	sbi	0x18, 2	; 24
	TFT_RS_0;
    2424:	95 98       	cbi	0x12, 5	; 18
	TFT_DP_DATA(Wcommand);
    2426:	0e 94 06 12 	call	0x240c	; 0x240c <TFT_DP_DATA>
	TFT_WR_0;
    242a:	c1 98       	cbi	0x18, 1	; 24
	TFT_WR_1;
    242c:	c1 9a       	sbi	0x18, 1	; 24
    242e:	08 95       	ret

00002430 <Write_Data>:
}

void Write_Data(uint16_t Wdata)
{
		TFT_RD_1;
    2430:	c2 9a       	sbi	0x18, 2	; 24
		TFT_RS_1;
    2432:	95 9a       	sbi	0x12, 5	; 18
		TFT_DP_DATA(Wdata);
    2434:	0e 94 06 12 	call	0x240c	; 0x240c <TFT_DP_DATA>
		TFT_WR_0;
    2438:	c1 98       	cbi	0x18, 1	; 24
		TFT_WR_1;
    243a:	c1 9a       	sbi	0x18, 1	; 24
    243c:	08 95       	ret

0000243e <Write_Command_Data>:
}

void Write_Command_Data(uint16_t Wcommand, uint16_t Wdata)
{
    243e:	cf 93       	push	r28
    2440:	df 93       	push	r29
    2442:	eb 01       	movw	r28, r22
	Write_Command(Wcommand);
    2444:	0e 94 11 12 	call	0x2422	; 0x2422 <Write_Command>
	Write_Data(Wdata);
    2448:	ce 01       	movw	r24, r28
    244a:	0e 94 18 12 	call	0x2430	; 0x2430 <Write_Data>
}
    244e:	df 91       	pop	r29
    2450:	cf 91       	pop	r28
    2452:	08 95       	ret

00002454 <TFT_Set_Address>:

void TFT_Set_Address(uint16_t PX1, uint16_t PY1, uint16_t PX2, uint16_t PY2)
{
    2454:	ef 92       	push	r14
    2456:	ff 92       	push	r15
    2458:	0f 93       	push	r16
    245a:	1f 93       	push	r17
    245c:	cf 93       	push	r28
    245e:	df 93       	push	r29
    2460:	8c 01       	movw	r16, r24
    2462:	eb 01       	movw	r28, r22
    2464:	79 01       	movw	r14, r18
	Write_Command_Data(0x0044,(PX2 << 8) + PX1 );	//Column address start2
    2466:	e0 e0       	ldi	r30, 0x00	; 0
    2468:	f0 e0       	ldi	r31, 0x00	; 0
    246a:	f4 2f       	mov	r31, r20
    246c:	bf 01       	movw	r22, r30
    246e:	68 0f       	add	r22, r24
    2470:	79 1f       	adc	r23, r25
    2472:	84 e4       	ldi	r24, 0x44	; 68
    2474:	90 e0       	ldi	r25, 0x00	; 0
    2476:	0e 94 1f 12 	call	0x243e	; 0x243e <Write_Command_Data>
	Write_Command_Data(0x0045,PY1);					//Column address start1
    247a:	be 01       	movw	r22, r28
    247c:	85 e4       	ldi	r24, 0x45	; 69
    247e:	90 e0       	ldi	r25, 0x00	; 0
    2480:	0e 94 1f 12 	call	0x243e	; 0x243e <Write_Command_Data>
	Write_Command_Data(0x0046,PY2);					//Column address end2
    2484:	b7 01       	movw	r22, r14
    2486:	86 e4       	ldi	r24, 0x46	; 70
    2488:	90 e0       	ldi	r25, 0x00	; 0
    248a:	0e 94 1f 12 	call	0x243e	; 0x243e <Write_Command_Data>
	Write_Command_Data(0x004E,PX1);					//Column address end1
    248e:	b8 01       	movw	r22, r16
    2490:	8e e4       	ldi	r24, 0x4E	; 78
    2492:	90 e0       	ldi	r25, 0x00	; 0
    2494:	0e 94 1f 12 	call	0x243e	; 0x243e <Write_Command_Data>
	Write_Command_Data(0x004F,PY1);					//Row address start2
    2498:	be 01       	movw	r22, r28
    249a:	8f e4       	ldi	r24, 0x4F	; 79
    249c:	90 e0       	ldi	r25, 0x00	; 0
    249e:	0e 94 1f 12 	call	0x243e	; 0x243e <Write_Command_Data>
	Write_Command(0x0022);
    24a2:	82 e2       	ldi	r24, 0x22	; 34
    24a4:	90 e0       	ldi	r25, 0x00	; 0
    24a6:	0e 94 11 12 	call	0x2422	; 0x2422 <Write_Command>
}
    24aa:	df 91       	pop	r29
    24ac:	cf 91       	pop	r28
    24ae:	1f 91       	pop	r17
    24b0:	0f 91       	pop	r16
    24b2:	ff 90       	pop	r15
    24b4:	ef 90       	pop	r14
    24b6:	08 95       	ret

000024b8 <TFT_Init>:

void TFT_Init(void)
{
	TFT_RD_1;
    24b8:	c2 9a       	sbi	0x18, 2	; 24
	TFT_RST_1;
    24ba:	c3 9a       	sbi	0x18, 3	; 24
	#else
		//round up by default
		__ticks_dc = (uint32_t)(ceil(fabs(__tmp)));
	#endif

	__builtin_avr_delay_cycles(__ticks_dc);
    24bc:	8f e0       	ldi	r24, 0x0F	; 15
    24be:	97 e2       	ldi	r25, 0x27	; 39
    24c0:	01 97       	sbiw	r24, 0x01	; 1
    24c2:	f1 f7       	brne	.-4      	; 0x24c0 <TFT_Init+0x8>
    24c4:	00 c0       	rjmp	.+0      	; 0x24c6 <TFT_Init+0xe>
    24c6:	00 00       	nop
	_delay_ms(5);
	TFT_RST_0;
    24c8:	c3 98       	cbi	0x18, 3	; 24
    24ca:	8f e2       	ldi	r24, 0x2F	; 47
    24cc:	95 e7       	ldi	r25, 0x75	; 117
    24ce:	01 97       	sbiw	r24, 0x01	; 1
    24d0:	f1 f7       	brne	.-4      	; 0x24ce <TFT_Init+0x16>
    24d2:	00 c0       	rjmp	.+0      	; 0x24d4 <TFT_Init+0x1c>
    24d4:	00 00       	nop
	_delay_ms(15);
	TFT_RST_1;
    24d6:	c3 9a       	sbi	0x18, 3	; 24
    24d8:	8f e2       	ldi	r24, 0x2F	; 47
    24da:	95 e7       	ldi	r25, 0x75	; 117
    24dc:	01 97       	sbiw	r24, 0x01	; 1
    24de:	f1 f7       	brne	.-4      	; 0x24dc <TFT_Init+0x24>
    24e0:	00 c0       	rjmp	.+0      	; 0x24e2 <TFT_Init+0x2a>
    24e2:	00 00       	nop
	_delay_ms(15);
	TFT_CS_0;
    24e4:	94 98       	cbi	0x12, 4	; 18
	Write_Command_Data(0x0000,0x0001);
    24e6:	61 e0       	ldi	r22, 0x01	; 1
    24e8:	70 e0       	ldi	r23, 0x00	; 0
    24ea:	80 e0       	ldi	r24, 0x00	; 0
    24ec:	90 e0       	ldi	r25, 0x00	; 0
    24ee:	0e 94 1f 12 	call	0x243e	; 0x243e <Write_Command_Data>
	Write_Command_Data(0x0003,0xA8A4);
    24f2:	64 ea       	ldi	r22, 0xA4	; 164
    24f4:	78 ea       	ldi	r23, 0xA8	; 168
    24f6:	83 e0       	ldi	r24, 0x03	; 3
    24f8:	90 e0       	ldi	r25, 0x00	; 0
    24fa:	0e 94 1f 12 	call	0x243e	; 0x243e <Write_Command_Data>
	Write_Command_Data(0x000C,0x0000);
    24fe:	60 e0       	ldi	r22, 0x00	; 0
    2500:	70 e0       	ldi	r23, 0x00	; 0
    2502:	8c e0       	ldi	r24, 0x0C	; 12
    2504:	90 e0       	ldi	r25, 0x00	; 0
    2506:	0e 94 1f 12 	call	0x243e	; 0x243e <Write_Command_Data>
	Write_Command_Data(0x000D,0x800C);
    250a:	6c e0       	ldi	r22, 0x0C	; 12
    250c:	70 e8       	ldi	r23, 0x80	; 128
    250e:	8d e0       	ldi	r24, 0x0D	; 13
    2510:	90 e0       	ldi	r25, 0x00	; 0
    2512:	0e 94 1f 12 	call	0x243e	; 0x243e <Write_Command_Data>
	Write_Command_Data(0x000E,0x2B00);
    2516:	60 e0       	ldi	r22, 0x00	; 0
    2518:	7b e2       	ldi	r23, 0x2B	; 43
    251a:	8e e0       	ldi	r24, 0x0E	; 14
    251c:	90 e0       	ldi	r25, 0x00	; 0
    251e:	0e 94 1f 12 	call	0x243e	; 0x243e <Write_Command_Data>
	Write_Command_Data(0x001E,0x00B7);
    2522:	67 eb       	ldi	r22, 0xB7	; 183
    2524:	70 e0       	ldi	r23, 0x00	; 0
    2526:	8e e1       	ldi	r24, 0x1E	; 30
    2528:	90 e0       	ldi	r25, 0x00	; 0
    252a:	0e 94 1f 12 	call	0x243e	; 0x243e <Write_Command_Data>
	Write_Command_Data(0x0001,0x2B3F);
    252e:	6f e3       	ldi	r22, 0x3F	; 63
    2530:	7b e2       	ldi	r23, 0x2B	; 43
    2532:	81 e0       	ldi	r24, 0x01	; 1
    2534:	90 e0       	ldi	r25, 0x00	; 0
    2536:	0e 94 1f 12 	call	0x243e	; 0x243e <Write_Command_Data>
	Write_Command_Data(0x0002,0x0600);
    253a:	60 e0       	ldi	r22, 0x00	; 0
    253c:	76 e0       	ldi	r23, 0x06	; 6
    253e:	82 e0       	ldi	r24, 0x02	; 2
    2540:	90 e0       	ldi	r25, 0x00	; 0
    2542:	0e 94 1f 12 	call	0x243e	; 0x243e <Write_Command_Data>
	Write_Command_Data(0x0010,0x0000);
    2546:	60 e0       	ldi	r22, 0x00	; 0
    2548:	70 e0       	ldi	r23, 0x00	; 0
    254a:	80 e1       	ldi	r24, 0x10	; 16
    254c:	90 e0       	ldi	r25, 0x00	; 0
    254e:	0e 94 1f 12 	call	0x243e	; 0x243e <Write_Command_Data>
	Write_Command_Data(0x0011,0x6070);
    2552:	60 e7       	ldi	r22, 0x70	; 112
    2554:	70 e6       	ldi	r23, 0x60	; 96
    2556:	81 e1       	ldi	r24, 0x11	; 17
    2558:	90 e0       	ldi	r25, 0x00	; 0
    255a:	0e 94 1f 12 	call	0x243e	; 0x243e <Write_Command_Data>
	Write_Command_Data(0x0005,0x0000);
    255e:	60 e0       	ldi	r22, 0x00	; 0
    2560:	70 e0       	ldi	r23, 0x00	; 0
    2562:	85 e0       	ldi	r24, 0x05	; 5
    2564:	90 e0       	ldi	r25, 0x00	; 0
    2566:	0e 94 1f 12 	call	0x243e	; 0x243e <Write_Command_Data>
	Write_Command_Data(0x0006,0x0000);
    256a:	60 e0       	ldi	r22, 0x00	; 0
    256c:	70 e0       	ldi	r23, 0x00	; 0
    256e:	86 e0       	ldi	r24, 0x06	; 6
    2570:	90 e0       	ldi	r25, 0x00	; 0
    2572:	0e 94 1f 12 	call	0x243e	; 0x243e <Write_Command_Data>
	Write_Command_Data(0x0016,0xEF1C);
    2576:	6c e1       	ldi	r22, 0x1C	; 28
    2578:	7f ee       	ldi	r23, 0xEF	; 239
    257a:	86 e1       	ldi	r24, 0x16	; 22
    257c:	90 e0       	ldi	r25, 0x00	; 0
    257e:	0e 94 1f 12 	call	0x243e	; 0x243e <Write_Command_Data>
	Write_Command_Data(0x0017,0x0003);
    2582:	63 e0       	ldi	r22, 0x03	; 3
    2584:	70 e0       	ldi	r23, 0x00	; 0
    2586:	87 e1       	ldi	r24, 0x17	; 23
    2588:	90 e0       	ldi	r25, 0x00	; 0
    258a:	0e 94 1f 12 	call	0x243e	; 0x243e <Write_Command_Data>
	Write_Command_Data(0x0007,0x0233);
    258e:	63 e3       	ldi	r22, 0x33	; 51
    2590:	72 e0       	ldi	r23, 0x02	; 2
    2592:	87 e0       	ldi	r24, 0x07	; 7
    2594:	90 e0       	ldi	r25, 0x00	; 0
    2596:	0e 94 1f 12 	call	0x243e	; 0x243e <Write_Command_Data>
	Write_Command_Data(0x000B,0x0000);
    259a:	60 e0       	ldi	r22, 0x00	; 0
    259c:	70 e0       	ldi	r23, 0x00	; 0
    259e:	8b e0       	ldi	r24, 0x0B	; 11
    25a0:	90 e0       	ldi	r25, 0x00	; 0
    25a2:	0e 94 1f 12 	call	0x243e	; 0x243e <Write_Command_Data>
	Write_Command_Data(0x000F,0x0000);
    25a6:	60 e0       	ldi	r22, 0x00	; 0
    25a8:	70 e0       	ldi	r23, 0x00	; 0
    25aa:	8f e0       	ldi	r24, 0x0F	; 15
    25ac:	90 e0       	ldi	r25, 0x00	; 0
    25ae:	0e 94 1f 12 	call	0x243e	; 0x243e <Write_Command_Data>
	Write_Command_Data(0x0041,0x0000);
    25b2:	60 e0       	ldi	r22, 0x00	; 0
    25b4:	70 e0       	ldi	r23, 0x00	; 0
    25b6:	81 e4       	ldi	r24, 0x41	; 65
    25b8:	90 e0       	ldi	r25, 0x00	; 0
    25ba:	0e 94 1f 12 	call	0x243e	; 0x243e <Write_Command_Data>
	Write_Command_Data(0x0042,0x0000);
    25be:	60 e0       	ldi	r22, 0x00	; 0
    25c0:	70 e0       	ldi	r23, 0x00	; 0
    25c2:	82 e4       	ldi	r24, 0x42	; 66
    25c4:	90 e0       	ldi	r25, 0x00	; 0
    25c6:	0e 94 1f 12 	call	0x243e	; 0x243e <Write_Command_Data>
	Write_Command_Data(0x0048,0x0000);
    25ca:	60 e0       	ldi	r22, 0x00	; 0
    25cc:	70 e0       	ldi	r23, 0x00	; 0
    25ce:	88 e4       	ldi	r24, 0x48	; 72
    25d0:	90 e0       	ldi	r25, 0x00	; 0
    25d2:	0e 94 1f 12 	call	0x243e	; 0x243e <Write_Command_Data>
	Write_Command_Data(0x0049,0x013F);
    25d6:	6f e3       	ldi	r22, 0x3F	; 63
    25d8:	71 e0       	ldi	r23, 0x01	; 1
    25da:	89 e4       	ldi	r24, 0x49	; 73
    25dc:	90 e0       	ldi	r25, 0x00	; 0
    25de:	0e 94 1f 12 	call	0x243e	; 0x243e <Write_Command_Data>
	Write_Command_Data(0x004A,0x0000);
    25e2:	60 e0       	ldi	r22, 0x00	; 0
    25e4:	70 e0       	ldi	r23, 0x00	; 0
    25e6:	8a e4       	ldi	r24, 0x4A	; 74
    25e8:	90 e0       	ldi	r25, 0x00	; 0
    25ea:	0e 94 1f 12 	call	0x243e	; 0x243e <Write_Command_Data>
	Write_Command_Data(0x004B,0x0000);
    25ee:	60 e0       	ldi	r22, 0x00	; 0
    25f0:	70 e0       	ldi	r23, 0x00	; 0
    25f2:	8b e4       	ldi	r24, 0x4B	; 75
    25f4:	90 e0       	ldi	r25, 0x00	; 0
    25f6:	0e 94 1f 12 	call	0x243e	; 0x243e <Write_Command_Data>
	Write_Command_Data(0x0044,0xEF95);
    25fa:	65 e9       	ldi	r22, 0x95	; 149
    25fc:	7f ee       	ldi	r23, 0xEF	; 239
    25fe:	84 e4       	ldi	r24, 0x44	; 68
    2600:	90 e0       	ldi	r25, 0x00	; 0
    2602:	0e 94 1f 12 	call	0x243e	; 0x243e <Write_Command_Data>
	Write_Command_Data(0x0045,0x0000);
    2606:	60 e0       	ldi	r22, 0x00	; 0
    2608:	70 e0       	ldi	r23, 0x00	; 0
    260a:	85 e4       	ldi	r24, 0x45	; 69
    260c:	90 e0       	ldi	r25, 0x00	; 0
    260e:	0e 94 1f 12 	call	0x243e	; 0x243e <Write_Command_Data>
	Write_Command_Data(0x0046,0x013F);
    2612:	6f e3       	ldi	r22, 0x3F	; 63
    2614:	71 e0       	ldi	r23, 0x01	; 1
    2616:	86 e4       	ldi	r24, 0x46	; 70
    2618:	90 e0       	ldi	r25, 0x00	; 0
    261a:	0e 94 1f 12 	call	0x243e	; 0x243e <Write_Command_Data>
	Write_Command_Data(0x0030,0x0707);
    261e:	67 e0       	ldi	r22, 0x07	; 7
    2620:	77 e0       	ldi	r23, 0x07	; 7
    2622:	80 e3       	ldi	r24, 0x30	; 48
    2624:	90 e0       	ldi	r25, 0x00	; 0
    2626:	0e 94 1f 12 	call	0x243e	; 0x243e <Write_Command_Data>
	Write_Command_Data(0x0031,0x0204);
    262a:	64 e0       	ldi	r22, 0x04	; 4
    262c:	72 e0       	ldi	r23, 0x02	; 2
    262e:	81 e3       	ldi	r24, 0x31	; 49
    2630:	90 e0       	ldi	r25, 0x00	; 0
    2632:	0e 94 1f 12 	call	0x243e	; 0x243e <Write_Command_Data>
	Write_Command_Data(0x0032,0x0204);
    2636:	64 e0       	ldi	r22, 0x04	; 4
    2638:	72 e0       	ldi	r23, 0x02	; 2
    263a:	82 e3       	ldi	r24, 0x32	; 50
    263c:	90 e0       	ldi	r25, 0x00	; 0
    263e:	0e 94 1f 12 	call	0x243e	; 0x243e <Write_Command_Data>
	Write_Command_Data(0x0033,0x0502);
    2642:	62 e0       	ldi	r22, 0x02	; 2
    2644:	75 e0       	ldi	r23, 0x05	; 5
    2646:	83 e3       	ldi	r24, 0x33	; 51
    2648:	90 e0       	ldi	r25, 0x00	; 0
    264a:	0e 94 1f 12 	call	0x243e	; 0x243e <Write_Command_Data>
	Write_Command_Data(0x0034,0x0507);
    264e:	67 e0       	ldi	r22, 0x07	; 7
    2650:	75 e0       	ldi	r23, 0x05	; 5
    2652:	84 e3       	ldi	r24, 0x34	; 52
    2654:	90 e0       	ldi	r25, 0x00	; 0
    2656:	0e 94 1f 12 	call	0x243e	; 0x243e <Write_Command_Data>
	Write_Command_Data(0x0035,0x0204);
    265a:	64 e0       	ldi	r22, 0x04	; 4
    265c:	72 e0       	ldi	r23, 0x02	; 2
    265e:	85 e3       	ldi	r24, 0x35	; 53
    2660:	90 e0       	ldi	r25, 0x00	; 0
    2662:	0e 94 1f 12 	call	0x243e	; 0x243e <Write_Command_Data>
	Write_Command_Data(0x0036,0x0204);
    2666:	64 e0       	ldi	r22, 0x04	; 4
    2668:	72 e0       	ldi	r23, 0x02	; 2
    266a:	86 e3       	ldi	r24, 0x36	; 54
    266c:	90 e0       	ldi	r25, 0x00	; 0
    266e:	0e 94 1f 12 	call	0x243e	; 0x243e <Write_Command_Data>
	Write_Command_Data(0x0037,0x0502);
    2672:	62 e0       	ldi	r22, 0x02	; 2
    2674:	75 e0       	ldi	r23, 0x05	; 5
    2676:	87 e3       	ldi	r24, 0x37	; 55
    2678:	90 e0       	ldi	r25, 0x00	; 0
    267a:	0e 94 1f 12 	call	0x243e	; 0x243e <Write_Command_Data>
	Write_Command_Data(0x003A,0x0302);
    267e:	62 e0       	ldi	r22, 0x02	; 2
    2680:	73 e0       	ldi	r23, 0x03	; 3
    2682:	8a e3       	ldi	r24, 0x3A	; 58
    2684:	90 e0       	ldi	r25, 0x00	; 0
    2686:	0e 94 1f 12 	call	0x243e	; 0x243e <Write_Command_Data>
	Write_Command_Data(0x003B,0x0302);
    268a:	62 e0       	ldi	r22, 0x02	; 2
    268c:	73 e0       	ldi	r23, 0x03	; 3
    268e:	8b e3       	ldi	r24, 0x3B	; 59
    2690:	90 e0       	ldi	r25, 0x00	; 0
    2692:	0e 94 1f 12 	call	0x243e	; 0x243e <Write_Command_Data>
	Write_Command_Data(0x0023,0x0000);
    2696:	60 e0       	ldi	r22, 0x00	; 0
    2698:	70 e0       	ldi	r23, 0x00	; 0
    269a:	83 e2       	ldi	r24, 0x23	; 35
    269c:	90 e0       	ldi	r25, 0x00	; 0
    269e:	0e 94 1f 12 	call	0x243e	; 0x243e <Write_Command_Data>
	Write_Command_Data(0x0024,0x0000);
    26a2:	60 e0       	ldi	r22, 0x00	; 0
    26a4:	70 e0       	ldi	r23, 0x00	; 0
    26a6:	84 e2       	ldi	r24, 0x24	; 36
    26a8:	90 e0       	ldi	r25, 0x00	; 0
    26aa:	0e 94 1f 12 	call	0x243e	; 0x243e <Write_Command_Data>
	Write_Command_Data(0x0025,0x8000);
    26ae:	60 e0       	ldi	r22, 0x00	; 0
    26b0:	70 e8       	ldi	r23, 0x80	; 128
    26b2:	85 e2       	ldi	r24, 0x25	; 37
    26b4:	90 e0       	ldi	r25, 0x00	; 0
    26b6:	0e 94 1f 12 	call	0x243e	; 0x243e <Write_Command_Data>
	Write_Command_Data(0x004f,0x0000);
    26ba:	60 e0       	ldi	r22, 0x00	; 0
    26bc:	70 e0       	ldi	r23, 0x00	; 0
    26be:	8f e4       	ldi	r24, 0x4F	; 79
    26c0:	90 e0       	ldi	r25, 0x00	; 0
    26c2:	0e 94 1f 12 	call	0x243e	; 0x243e <Write_Command_Data>
	Write_Command_Data(0x004e,0x0000);
    26c6:	60 e0       	ldi	r22, 0x00	; 0
    26c8:	70 e0       	ldi	r23, 0x00	; 0
    26ca:	8e e4       	ldi	r24, 0x4E	; 78
    26cc:	90 e0       	ldi	r25, 0x00	; 0
    26ce:	0e 94 1f 12 	call	0x243e	; 0x243e <Write_Command_Data>
	Write_Command(0x0022);
    26d2:	82 e2       	ldi	r24, 0x22	; 34
    26d4:	90 e0       	ldi	r25, 0x00	; 0
    26d6:	0e 94 11 12 	call	0x2422	; 0x2422 <Write_Command>
	TFT_CS_1;
    26da:	94 9a       	sbi	0x12, 4	; 18
    26dc:	08 95       	ret

000026de <TFT_Fill>:
	uint16_t temp = (((R & 0xF8)|(G>>5))<<8)|(((G & 0x1C)<<3)|(B>>3));
	return temp;
}

void TFT_Fill(unsigned int color)
{
    26de:	cf 93       	push	r28
    26e0:	df 93       	push	r29
    26e2:	ec 01       	movw	r28, r24
	unsigned int i,j;
	TFT_CS_0;
    26e4:	94 98       	cbi	0x12, 4	; 18
	TFT_Set_Address(0,0,239,319);
    26e6:	2f e3       	ldi	r18, 0x3F	; 63
    26e8:	31 e0       	ldi	r19, 0x01	; 1
    26ea:	4f ee       	ldi	r20, 0xEF	; 239
    26ec:	50 e0       	ldi	r21, 0x00	; 0
    26ee:	60 e0       	ldi	r22, 0x00	; 0
    26f0:	70 e0       	ldi	r23, 0x00	; 0
    26f2:	80 e0       	ldi	r24, 0x00	; 0
    26f4:	90 e0       	ldi	r25, 0x00	; 0
    26f6:	0e 94 2a 12 	call	0x2454	; 0x2454 <TFT_Set_Address>
	Write_Data(color);
    26fa:	ce 01       	movw	r24, r28
    26fc:	0e 94 18 12 	call	0x2430	; 0x2430 <Write_Data>
    2700:	20 e4       	ldi	r18, 0x40	; 64
    2702:	31 e0       	ldi	r19, 0x01	; 1
	uint16_t temp = (((R & 0xF8)|(G>>5))<<8)|(((G & 0x1C)<<3)|(B>>3));
	return temp;
}

void TFT_Fill(unsigned int color)
{
    2704:	50 ef       	ldi	r21, 0xF0	; 240
    2706:	40 e0       	ldi	r20, 0x00	; 0
    2708:	0a c0       	rjmp	.+20     	; 0x271e <TFT_Fill+0x40>
	Write_Data(color);
	for(i = 0; i <= 319; i++)
	{
		for(j = 0; j <= 239; j++)
		{
			TFT_WR_0;
    270a:	c1 98       	cbi	0x18, 1	; 24
			TFT_WR_1;
    270c:	c1 9a       	sbi	0x18, 1	; 24
    270e:	01 97       	sbiw	r24, 0x01	; 1
	TFT_CS_0;
	TFT_Set_Address(0,0,239,319);
	Write_Data(color);
	for(i = 0; i <= 319; i++)
	{
		for(j = 0; j <= 239; j++)
    2710:	00 97       	sbiw	r24, 0x00	; 0
    2712:	d9 f7       	brne	.-10     	; 0x270a <TFT_Fill+0x2c>
    2714:	21 50       	subi	r18, 0x01	; 1
    2716:	31 09       	sbc	r19, r1
{
	unsigned int i,j;
	TFT_CS_0;
	TFT_Set_Address(0,0,239,319);
	Write_Data(color);
	for(i = 0; i <= 319; i++)
    2718:	21 15       	cp	r18, r1
    271a:	31 05       	cpc	r19, r1
    271c:	19 f0       	breq	.+6      	; 0x2724 <TFT_Fill+0x46>
	uint16_t temp = (((R & 0xF8)|(G>>5))<<8)|(((G & 0x1C)<<3)|(B>>3));
	return temp;
}

void TFT_Fill(unsigned int color)
{
    271e:	85 2f       	mov	r24, r21
    2720:	94 2f       	mov	r25, r20
    2722:	f3 cf       	rjmp	.-26     	; 0x270a <TFT_Fill+0x2c>
		{
			TFT_WR_0;
			TFT_WR_1;
		}
	}
	TFT_CS_1;
    2724:	94 9a       	sbi	0x12, 4	; 18
}
    2726:	df 91       	pop	r29
    2728:	cf 91       	pop	r28
    272a:	08 95       	ret

0000272c <TFT_Box>:

void TFT_Box(unsigned int x1,unsigned int y1,unsigned int x2,unsigned int y2,unsigned int color)
{
    272c:	af 92       	push	r10
    272e:	bf 92       	push	r11
    2730:	cf 92       	push	r12
    2732:	df 92       	push	r13
    2734:	ef 92       	push	r14
    2736:	ff 92       	push	r15
    2738:	0f 93       	push	r16
    273a:	1f 93       	push	r17
    273c:	cf 93       	push	r28
    273e:	df 93       	push	r29
    2740:	6c 01       	movw	r12, r24
    2742:	7b 01       	movw	r14, r22
    2744:	ea 01       	movw	r28, r20
    2746:	59 01       	movw	r10, r18
	unsigned int  i,j;
	TFT_CS_0;
    2748:	94 98       	cbi	0x12, 4	; 18
	TFT_Set_Address(x1,y1,x2,y2);
    274a:	0e 94 2a 12 	call	0x2454	; 0x2454 <TFT_Set_Address>
	Write_Data(color);
    274e:	c8 01       	movw	r24, r16
    2750:	0e 94 18 12 	call	0x2430	; 0x2430 <Write_Data>
	for(i = y1; i <= y2; i++)
    2754:	ae 14       	cp	r10, r14
    2756:	bf 04       	cpc	r11, r15
    2758:	a8 f0       	brcs	.+42     	; 0x2784 <TFT_Box+0x58>
	{
		for(j = x1; j <= x2; j++)
    275a:	9c 2d       	mov	r25, r12
    275c:	8d 2d       	mov	r24, r13
    275e:	0c c0       	rjmp	.+24     	; 0x2778 <TFT_Box+0x4c>
		{
			TFT_WR_0;
    2760:	c1 98       	cbi	0x18, 1	; 24
			TFT_WR_1;
    2762:	c1 9a       	sbi	0x18, 1	; 24
	TFT_CS_0;
	TFT_Set_Address(x1,y1,x2,y2);
	Write_Data(color);
	for(i = y1; i <= y2; i++)
	{
		for(j = x1; j <= x2; j++)
    2764:	31 96       	adiw	r30, 0x01	; 1
    2766:	ce 17       	cp	r28, r30
    2768:	df 07       	cpc	r29, r31
    276a:	d0 f7       	brcc	.-12     	; 0x2760 <TFT_Box+0x34>
{
	unsigned int  i,j;
	TFT_CS_0;
	TFT_Set_Address(x1,y1,x2,y2);
	Write_Data(color);
	for(i = y1; i <= y2; i++)
    276c:	2f ef       	ldi	r18, 0xFF	; 255
    276e:	e2 1a       	sub	r14, r18
    2770:	f2 0a       	sbc	r15, r18
    2772:	ae 14       	cp	r10, r14
    2774:	bf 04       	cpc	r11, r15
    2776:	30 f0       	brcs	.+12     	; 0x2784 <TFT_Box+0x58>
	{
		for(j = x1; j <= x2; j++)
    2778:	cc 15       	cp	r28, r12
    277a:	dd 05       	cpc	r29, r13
    277c:	b8 f3       	brcs	.-18     	; 0x276c <TFT_Box+0x40>
    277e:	e9 2f       	mov	r30, r25
    2780:	f8 2f       	mov	r31, r24
    2782:	ee cf       	rjmp	.-36     	; 0x2760 <TFT_Box+0x34>
		{
			TFT_WR_0;
			TFT_WR_1;
		}
	}
	TFT_CS_1;
    2784:	94 9a       	sbi	0x12, 4	; 18
}
    2786:	df 91       	pop	r29
    2788:	cf 91       	pop	r28
    278a:	1f 91       	pop	r17
    278c:	0f 91       	pop	r16
    278e:	ff 90       	pop	r15
    2790:	ef 90       	pop	r14
    2792:	df 90       	pop	r13
    2794:	cf 90       	pop	r12
    2796:	bf 90       	pop	r11
    2798:	af 90       	pop	r10
    279a:	08 95       	ret

0000279c <TFT_Dot>:

void TFT_Dot(unsigned int x,unsigned int y,unsigned int color)
{
    279c:	cf 93       	push	r28
    279e:	df 93       	push	r29
    27a0:	ea 01       	movw	r28, r20
	TFT_CS_0;
    27a2:	94 98       	cbi	0x12, 4	; 18
	TFT_Set_Address(x,y,x,y);
    27a4:	9b 01       	movw	r18, r22
    27a6:	ac 01       	movw	r20, r24
    27a8:	0e 94 2a 12 	call	0x2454	; 0x2454 <TFT_Set_Address>
	Write_Data(color);
    27ac:	ce 01       	movw	r24, r28
    27ae:	0e 94 18 12 	call	0x2430	; 0x2430 <Write_Data>
	TFT_CS_1;
    27b2:	94 9a       	sbi	0x12, 4	; 18
}
    27b4:	df 91       	pop	r29
    27b6:	cf 91       	pop	r28
    27b8:	08 95       	ret

000027ba <TFT_H_Line>:
	}
}


void TFT_H_Line(char x1,char x2,unsigned int y_pos,unsigned int color)
{
    27ba:	ef 92       	push	r14
    27bc:	ff 92       	push	r15
    27be:	0f 93       	push	r16
    27c0:	1f 93       	push	r17
    27c2:	cf 93       	push	r28
    27c4:	df 93       	push	r29
    27c6:	f8 2e       	mov	r15, r24
    27c8:	e6 2e       	mov	r14, r22
    27ca:	8a 01       	movw	r16, r20
    27cc:	e9 01       	movw	r28, r18
	char k;
	for(k = x1; k <= x2; k++)
    27ce:	68 17       	cp	r22, r24
    27d0:	48 f0       	brcs	.+18     	; 0x27e4 <TFT_H_Line+0x2a>
	{
		TFT_Dot(k,y_pos,color);
    27d2:	ae 01       	movw	r20, r28
    27d4:	b8 01       	movw	r22, r16
    27d6:	8f 2d       	mov	r24, r15
    27d8:	90 e0       	ldi	r25, 0x00	; 0
    27da:	0e 94 ce 13 	call	0x279c	; 0x279c <TFT_Dot>


void TFT_H_Line(char x1,char x2,unsigned int y_pos,unsigned int color)
{
	char k;
	for(k = x1; k <= x2; k++)
    27de:	f3 94       	inc	r15
    27e0:	ef 14       	cp	r14, r15
    27e2:	b8 f7       	brcc	.-18     	; 0x27d2 <TFT_H_Line+0x18>
	{
		TFT_Dot(k,y_pos,color);
	}
}
    27e4:	df 91       	pop	r29
    27e6:	cf 91       	pop	r28
    27e8:	1f 91       	pop	r17
    27ea:	0f 91       	pop	r16
    27ec:	ff 90       	pop	r15
    27ee:	ef 90       	pop	r14
    27f0:	08 95       	ret

000027f2 <TFT_V_Line>:

void TFT_V_Line(unsigned int y1,unsigned int y2,char x_pos,unsigned int color)
{
    27f2:	cf 92       	push	r12
    27f4:	df 92       	push	r13
    27f6:	ef 92       	push	r14
    27f8:	ff 92       	push	r15
    27fa:	0f 93       	push	r16
    27fc:	1f 93       	push	r17
    27fe:	cf 93       	push	r28
    2800:	df 93       	push	r29
    2802:	ec 01       	movw	r28, r24
    2804:	8b 01       	movw	r16, r22
    2806:	79 01       	movw	r14, r18
	unsigned int k;
	for(k = y1; k <= y2; k++)
    2808:	68 17       	cp	r22, r24
    280a:	79 07       	cpc	r23, r25
    280c:	58 f0       	brcs	.+22     	; 0x2824 <TFT_V_Line+0x32>
	{
		TFT_Dot(x_pos,k,color);
    280e:	c4 2e       	mov	r12, r20
    2810:	d1 2c       	mov	r13, r1
    2812:	a7 01       	movw	r20, r14
    2814:	be 01       	movw	r22, r28
    2816:	c6 01       	movw	r24, r12
    2818:	0e 94 ce 13 	call	0x279c	; 0x279c <TFT_Dot>
}

void TFT_V_Line(unsigned int y1,unsigned int y2,char x_pos,unsigned int color)
{
	unsigned int k;
	for(k = y1; k <= y2; k++)
    281c:	21 96       	adiw	r28, 0x01	; 1
    281e:	0c 17       	cp	r16, r28
    2820:	1d 07       	cpc	r17, r29
    2822:	b8 f7       	brcc	.-18     	; 0x2812 <TFT_V_Line+0x20>
	{
		TFT_Dot(x_pos,k,color);
	}
}
    2824:	df 91       	pop	r29
    2826:	cf 91       	pop	r28
    2828:	1f 91       	pop	r17
    282a:	0f 91       	pop	r16
    282c:	ff 90       	pop	r15
    282e:	ef 90       	pop	r14
    2830:	df 90       	pop	r13
    2832:	cf 90       	pop	r12
    2834:	08 95       	ret

00002836 <TFT_Rectangle>:

void TFT_Rectangle(unsigned int x1,unsigned int y1,unsigned int x2,unsigned int y2,unsigned int color)
{
    2836:	cf 92       	push	r12
    2838:	df 92       	push	r13
    283a:	ef 92       	push	r14
    283c:	ff 92       	push	r15
    283e:	0f 93       	push	r16
    2840:	1f 93       	push	r17
    2842:	cf 93       	push	r28
    2844:	df 93       	push	r29
    2846:	c8 2e       	mov	r12, r24
    2848:	eb 01       	movw	r28, r22
    284a:	d4 2e       	mov	r13, r20
    284c:	79 01       	movw	r14, r18
	TFT_H_Line(x1,x2,y1,color);
    284e:	98 01       	movw	r18, r16
    2850:	ab 01       	movw	r20, r22
    2852:	6d 2d       	mov	r22, r13
    2854:	0e 94 dd 13 	call	0x27ba	; 0x27ba <TFT_H_Line>
	TFT_H_Line(x1,x2,y2,color);
    2858:	98 01       	movw	r18, r16
    285a:	a7 01       	movw	r20, r14
    285c:	6d 2d       	mov	r22, r13
    285e:	8c 2d       	mov	r24, r12
    2860:	0e 94 dd 13 	call	0x27ba	; 0x27ba <TFT_H_Line>
	TFT_V_Line(y1,y2,x1,color);
    2864:	98 01       	movw	r18, r16
    2866:	4c 2d       	mov	r20, r12
    2868:	b7 01       	movw	r22, r14
    286a:	ce 01       	movw	r24, r28
    286c:	0e 94 f9 13 	call	0x27f2	; 0x27f2 <TFT_V_Line>
	TFT_V_Line(y1,y2,x2,color);
    2870:	98 01       	movw	r18, r16
    2872:	4d 2d       	mov	r20, r13
    2874:	b7 01       	movw	r22, r14
    2876:	ce 01       	movw	r24, r28
    2878:	0e 94 f9 13 	call	0x27f2	; 0x27f2 <TFT_V_Line>
}
    287c:	df 91       	pop	r29
    287e:	cf 91       	pop	r28
    2880:	1f 91       	pop	r17
    2882:	0f 91       	pop	r16
    2884:	ff 90       	pop	r15
    2886:	ef 90       	pop	r14
    2888:	df 90       	pop	r13
    288a:	cf 90       	pop	r12
    288c:	08 95       	ret

0000288e <TFT_Char>:
		}
	}
}

void TFT_Char(char C,unsigned int x,unsigned int y,char DimFont,unsigned int Fcolor,unsigned int Bcolor)
{
    288e:	2f 92       	push	r2
    2890:	3f 92       	push	r3
    2892:	4f 92       	push	r4
    2894:	5f 92       	push	r5
    2896:	6f 92       	push	r6
    2898:	7f 92       	push	r7
    289a:	8f 92       	push	r8
    289c:	9f 92       	push	r9
    289e:	af 92       	push	r10
    28a0:	bf 92       	push	r11
    28a2:	cf 92       	push	r12
    28a4:	df 92       	push	r13
    28a6:	ef 92       	push	r14
    28a8:	ff 92       	push	r15
    28aa:	0f 93       	push	r16
    28ac:	1f 93       	push	r17
    28ae:	cf 93       	push	r28
    28b0:	df 93       	push	r29
    28b2:	cd b7       	in	r28, 0x3d	; 61
    28b4:	de b7       	in	r29, 0x3e	; 62
    28b6:	ae 97       	sbiw	r28, 0x2e	; 46
    28b8:	0f b6       	in	r0, 0x3f	; 63
    28ba:	f8 94       	cli
    28bc:	de bf       	out	0x3e, r29	; 62
    28be:	0f be       	out	0x3f, r0	; 63
    28c0:	cd bf       	out	0x3d, r28	; 61
    28c2:	7a a7       	std	Y+42, r23	; 0x2a
    28c4:	69 a7       	std	Y+41, r22	; 0x29
    28c6:	5a 01       	movw	r10, r20
    28c8:	28 01       	movw	r4, r16
	unsigned int font16x16[16];
	unsigned int x_new;
	unsigned char k,i,print1,print2;  //edited breb LINE: char k,i,x_new,x_old,print1,print2;
	unsigned int print3,print4;

	if(DimFont == 8)
    28ca:	28 30       	cpi	r18, 0x08	; 8
    28cc:	09 f0       	breq	.+2      	; 0x28d0 <TFT_Char+0x42>
    28ce:	62 c0       	rjmp	.+196    	; 0x2994 <TFT_Char+0x106>
	{
		PtrFont = &FONT_8x8[0]; // aman & can be eliminated ;;; default prev line: PtrFont = &FONT_8x8;
		Cptrfont = (C-32)*8;
    28d0:	08 2f       	mov	r16, r24
    28d2:	10 e0       	ldi	r17, 0x00	; 0
    28d4:	00 0f       	add	r16, r16
    28d6:	11 1f       	adc	r17, r17
    28d8:	00 0f       	add	r16, r16
    28da:	11 1f       	adc	r17, r17
    28dc:	00 0f       	add	r16, r16
    28de:	11 1f       	adc	r17, r17
		PtrFont = PtrFont + Cptrfont;
    28e0:	0c 5c       	subi	r16, 0xCC	; 204
    28e2:	14 4f       	sbci	r17, 0xF4	; 244

		TFT_Set_Address(x,y,x,y);
    28e4:	9a 01       	movw	r18, r20
    28e6:	ab 01       	movw	r20, r22
    28e8:	b5 01       	movw	r22, r10
    28ea:	ca 01       	movw	r24, r20
    28ec:	0e 94 2a 12 	call	0x2454	; 0x2454 <TFT_Set_Address>
    28f0:	ce 01       	movw	r24, r28
    28f2:	09 96       	adiw	r24, 0x09	; 9
    28f4:	de 01       	movw	r26, r28
    28f6:	11 96       	adiw	r26, 0x01	; 1
		//x_old = x;  //commented by aman
		y_new = y;

		for(k = 0; k <= 7; k++)
		{
			font8x8[k] =pgm_read_byte(PtrFont) ; //*PtrFont;
    28f8:	f8 01       	movw	r30, r16
    28fa:	24 91       	lpm	r18, Z
    28fc:	2d 93       	st	X+, r18
			PtrFont++;
    28fe:	0f 5f       	subi	r16, 0xFF	; 255
    2900:	1f 4f       	sbci	r17, 0xFF	; 255
		TFT_Set_Address(x,y,x,y);
		x_new = x;
		//x_old = x;  //commented by aman
		y_new = y;

		for(k = 0; k <= 7; k++)
    2902:	a8 17       	cp	r26, r24
    2904:	b9 07       	cpc	r27, r25
    2906:	c1 f7       	brne	.-16     	; 0x28f8 <TFT_Char+0x6a>
    2908:	c5 01       	movw	r24, r10
    290a:	08 96       	adiw	r24, 0x08	; 8
    290c:	9c a7       	std	Y+44, r25	; 0x2c
    290e:	8b a7       	std	Y+43, r24	; 0x2b
    2910:	fe 01       	movw	r30, r28
    2912:	31 96       	adiw	r30, 0x01	; 1
    2914:	1f 01       	movw	r2, r30
    2916:	65 01       	movw	r12, r10
    2918:	89 a5       	ldd	r24, Y+41	; 0x29
    291a:	9a a5       	ldd	r25, Y+42	; 0x2a
    291c:	01 96       	adiw	r24, 0x01	; 1
    291e:	9e a7       	std	Y+46, r25	; 0x2e
    2920:	8d a7       	std	Y+45, r24	; 0x2d
	{
		PtrFont = &FONT_8x8[0]; // aman & can be eliminated ;;; default prev line: PtrFont = &FONT_8x8;
		Cptrfont = (C-32)*8;
		PtrFont = PtrFont + Cptrfont;

		TFT_Set_Address(x,y,x,y);
    2922:	61 2c       	mov	r6, r1
    2924:	32 c0       	rjmp	.+100    	; 0x298a <TFT_Char+0xfc>
    2926:	c8 01       	movw	r24, r16
    2928:	01 97       	sbiw	r24, 0x01	; 1

		for(i = 0; i <= 7; i++)
		{
			for(k = 0; k <= 7; k++)
			{
				print1 = (font8x8[i] & 0x80);
    292a:	f1 01       	movw	r30, r2
    292c:	20 81       	ld	r18, Z
				print2 = print1 >>7;
				if(print2 == 1)
    292e:	22 23       	and	r18, r18
    2930:	2c f4       	brge	.+10     	; 0x293c <TFT_Char+0xae>
				{
					TFT_Dot(x_new,y_new,Fcolor);
    2932:	a2 01       	movw	r20, r4
    2934:	b6 01       	movw	r22, r12
    2936:	0e 94 ce 13 	call	0x279c	; 0x279c <TFT_Dot>
    293a:	0a c0       	rjmp	.+20     	; 0x2950 <TFT_Char+0xc2>
					x_new++;
				}
				else
				{
					TFT_Dot(x_new,y_new,Bcolor);
    293c:	a7 01       	movw	r20, r14
    293e:	b6 01       	movw	r22, r12
    2940:	0e 94 ce 13 	call	0x279c	; 0x279c <TFT_Dot>
					x_new++;
					TFT_Set_Address(x_new,y,x_new,y);
    2944:	95 01       	movw	r18, r10
    2946:	a8 01       	movw	r20, r16
    2948:	b5 01       	movw	r22, r10
    294a:	c8 01       	movw	r24, r16
    294c:	0e 94 2a 12 	call	0x2454	; 0x2454 <TFT_Set_Address>
				}
				font8x8[i] = font8x8[i] << 1;
    2950:	f4 01       	movw	r30, r8
    2952:	80 81       	ld	r24, Z
    2954:	88 0f       	add	r24, r24
    2956:	80 83       	st	Z, r24
			PtrFont++;
		}

		for(i = 0; i <= 7; i++)
		{
			for(k = 0; k <= 7; k++)
    2958:	73 94       	inc	r7
    295a:	0f 5f       	subi	r16, 0xFF	; 255
    295c:	1f 4f       	sbci	r17, 0xFF	; 255
    295e:	f8 e0       	ldi	r31, 0x08	; 8
    2960:	7f 12       	cpse	r7, r31
    2962:	e1 cf       	rjmp	.-62     	; 0x2926 <TFT_Char+0x98>
					TFT_Set_Address(x_new,y,x_new,y);
				}
				font8x8[i] = font8x8[i] << 1;
			}

			y_new++;
    2964:	8f ef       	ldi	r24, 0xFF	; 255
    2966:	c8 1a       	sub	r12, r24
    2968:	d8 0a       	sbc	r13, r24
			x_new = x;
			TFT_Set_Address(x,y_new,x,y_new);
    296a:	96 01       	movw	r18, r12
    296c:	49 a5       	ldd	r20, Y+41	; 0x29
    296e:	5a a5       	ldd	r21, Y+42	; 0x2a
    2970:	b6 01       	movw	r22, r12
    2972:	ca 01       	movw	r24, r20
    2974:	0e 94 2a 12 	call	0x2454	; 0x2454 <TFT_Set_Address>
    2978:	9f ef       	ldi	r25, 0xFF	; 255
    297a:	29 1a       	sub	r2, r25
    297c:	39 0a       	sbc	r3, r25
		{
			font8x8[k] =pgm_read_byte(PtrFont) ; //*PtrFont;
			PtrFont++;
		}

		for(i = 0; i <= 7; i++)
    297e:	eb a5       	ldd	r30, Y+43	; 0x2b
    2980:	fc a5       	ldd	r31, Y+44	; 0x2c
    2982:	ce 16       	cp	r12, r30
    2984:	df 06       	cpc	r13, r31
    2986:	09 f4       	brne	.+2      	; 0x298a <TFT_Char+0xfc>
    2988:	73 c0       	rjmp	.+230    	; 0x2a70 <TFT_Char+0x1e2>
    298a:	0d a5       	ldd	r16, Y+45	; 0x2d
    298c:	1e a5       	ldd	r17, Y+46	; 0x2e
	{
		PtrFont = &FONT_8x8[0]; // aman & can be eliminated ;;; default prev line: PtrFont = &FONT_8x8;
		Cptrfont = (C-32)*8;
		PtrFont = PtrFont + Cptrfont;

		TFT_Set_Address(x,y,x,y);
    298e:	76 2c       	mov	r7, r6
    2990:	41 01       	movw	r8, r2
    2992:	c9 cf       	rjmp	.-110    	; 0x2926 <TFT_Char+0x98>
			x_new = x;
			TFT_Set_Address(x,y_new,x,y_new);
		}
	}

	else if(DimFont == 16)
    2994:	20 31       	cpi	r18, 0x10	; 16
    2996:	09 f0       	breq	.+2      	; 0x299a <TFT_Char+0x10c>
    2998:	6b c0       	rjmp	.+214    	; 0x2a70 <TFT_Char+0x1e2>
	{
	    PtrFont = &FONT_16x16[0];
		Cptrfont = (C-32)*32;
    299a:	f0 e2       	ldi	r31, 0x20	; 32
    299c:	8f 9f       	mul	r24, r31
    299e:	80 01       	movw	r16, r0
    29a0:	11 24       	eor	r1, r1
		PtrFont = PtrFont + Cptrfont;
    29a2:	0c 5a       	subi	r16, 0xAC	; 172
    29a4:	13 40       	sbci	r17, 0x03	; 3

		TFT_Set_Address(x,y,x,y);
    29a6:	9a 01       	movw	r18, r20
    29a8:	49 a5       	ldd	r20, Y+41	; 0x29
    29aa:	5a a5       	ldd	r21, Y+42	; 0x2a
    29ac:	b5 01       	movw	r22, r10
    29ae:	ca 01       	movw	r24, r20
    29b0:	0e 94 2a 12 	call	0x2454	; 0x2454 <TFT_Set_Address>
    29b4:	98 01       	movw	r18, r16
    29b6:	20 5e       	subi	r18, 0xE0	; 224
    29b8:	3f 4f       	sbci	r19, 0xFF	; 255
    29ba:	de 01       	movw	r26, r28
    29bc:	19 96       	adiw	r26, 0x09	; 9
		//x_old = x;  //commented my aman
		y_new = y;

		for(k = 0; k <= 15; k++)
		{
			font16x16[k] = pgm_read_byte(PtrFont);//*PtrFont;
    29be:	f8 01       	movw	r30, r16
    29c0:	84 91       	lpm	r24, Z
    29c2:	31 96       	adiw	r30, 0x01	; 1
			PtrFont++;
			font16x16[k] = (font16x16[k] << 8);
			font16x16[k] = font16x16[k] + pgm_read_byte(PtrFont);//*PtrFont;
    29c4:	e4 91       	lpm	r30, Z
		//x_old = x;  //commented my aman
		y_new = y;

		for(k = 0; k <= 15; k++)
		{
			font16x16[k] = pgm_read_byte(PtrFont);//*PtrFont;
    29c6:	90 e0       	ldi	r25, 0x00	; 0
			PtrFont++;
			font16x16[k] = (font16x16[k] << 8);
    29c8:	98 2f       	mov	r25, r24
    29ca:	88 27       	eor	r24, r24
			font16x16[k] = font16x16[k] + pgm_read_byte(PtrFont);//*PtrFont;
    29cc:	8e 0f       	add	r24, r30
    29ce:	91 1d       	adc	r25, r1
    29d0:	8d 93       	st	X+, r24
    29d2:	9d 93       	st	X+, r25
    29d4:	0e 5f       	subi	r16, 0xFE	; 254
    29d6:	1f 4f       	sbci	r17, 0xFF	; 255
		TFT_Set_Address(x,y,x,y);
		x_new = x;
		//x_old = x;  //commented my aman
		y_new = y;

		for(k = 0; k <= 15; k++)
    29d8:	20 17       	cp	r18, r16
    29da:	31 07       	cpc	r19, r17
    29dc:	81 f7       	brne	.-32     	; 0x29be <TFT_Char+0x130>
    29de:	c5 01       	movw	r24, r10
    29e0:	40 96       	adiw	r24, 0x10	; 16
    29e2:	9c a7       	std	Y+44, r25	; 0x2c
    29e4:	8b a7       	std	Y+43, r24	; 0x2b
    29e6:	fe 01       	movw	r30, r28
    29e8:	39 96       	adiw	r30, 0x09	; 9
    29ea:	3f 01       	movw	r6, r30
    29ec:	45 01       	movw	r8, r10
    29ee:	89 a5       	ldd	r24, Y+41	; 0x29
    29f0:	9a a5       	ldd	r25, Y+42	; 0x2a
    29f2:	01 96       	adiw	r24, 0x01	; 1
    29f4:	9e a7       	std	Y+46, r25	; 0x2e
    29f6:	8d a7       	std	Y+45, r24	; 0x2d
	{
	    PtrFont = &FONT_16x16[0];
		Cptrfont = (C-32)*32;
		PtrFont = PtrFont + Cptrfont;

		TFT_Set_Address(x,y,x,y);
    29f8:	21 2c       	mov	r2, r1
    29fa:	35 c0       	rjmp	.+106    	; 0x2a66 <TFT_Char+0x1d8>
    29fc:	c8 01       	movw	r24, r16
    29fe:	01 97       	sbiw	r24, 0x01	; 1

		for(i = 0; i <= 15; i++)
		{
			for(k = 0; k <= 15; k++)
			{
				print3 = (font16x16[i] & 0x8000);
    2a00:	f3 01       	movw	r30, r6
    2a02:	20 81       	ld	r18, Z
    2a04:	31 81       	ldd	r19, Z+1	; 0x01
				print4 = print3 >>15;

				if(print4 == 1)
    2a06:	33 23       	and	r19, r19
    2a08:	2c f4       	brge	.+10     	; 0x2a14 <TFT_Char+0x186>
				{
					TFT_Dot(x_new,y_new,Fcolor);
    2a0a:	a2 01       	movw	r20, r4
    2a0c:	b4 01       	movw	r22, r8
    2a0e:	0e 94 ce 13 	call	0x279c	; 0x279c <TFT_Dot>
    2a12:	0a c0       	rjmp	.+20     	; 0x2a28 <TFT_Char+0x19a>
					x_new++;
				}
				else
				{
					TFT_Dot(x_new,y_new,Bcolor);
    2a14:	a7 01       	movw	r20, r14
    2a16:	b4 01       	movw	r22, r8
    2a18:	0e 94 ce 13 	call	0x279c	; 0x279c <TFT_Dot>
					x_new++;
					TFT_Set_Address(x_new,y,x_new,y);
    2a1c:	95 01       	movw	r18, r10
    2a1e:	a8 01       	movw	r20, r16
    2a20:	b5 01       	movw	r22, r10
    2a22:	c8 01       	movw	r24, r16
    2a24:	0e 94 2a 12 	call	0x2454	; 0x2454 <TFT_Set_Address>
				}

				font16x16[i] = font16x16[i] << 1;
    2a28:	f6 01       	movw	r30, r12
    2a2a:	80 81       	ld	r24, Z
    2a2c:	91 81       	ldd	r25, Z+1	; 0x01
    2a2e:	88 0f       	add	r24, r24
    2a30:	99 1f       	adc	r25, r25
    2a32:	91 83       	std	Z+1, r25	; 0x01
    2a34:	80 83       	st	Z, r24
			PtrFont++;
		}

		for(i = 0; i <= 15; i++)
		{
			for(k = 0; k <= 15; k++)
    2a36:	33 94       	inc	r3
    2a38:	0f 5f       	subi	r16, 0xFF	; 255
    2a3a:	1f 4f       	sbci	r17, 0xFF	; 255
    2a3c:	f0 e1       	ldi	r31, 0x10	; 16
    2a3e:	3f 12       	cpse	r3, r31
    2a40:	dd cf       	rjmp	.-70     	; 0x29fc <TFT_Char+0x16e>
				}

				font16x16[i] = font16x16[i] << 1;
			}

			y_new++;
    2a42:	8f ef       	ldi	r24, 0xFF	; 255
    2a44:	88 1a       	sub	r8, r24
    2a46:	98 0a       	sbc	r9, r24
			x_new = x;
			TFT_Set_Address(x,y_new,x,y_new);
    2a48:	94 01       	movw	r18, r8
    2a4a:	49 a5       	ldd	r20, Y+41	; 0x29
    2a4c:	5a a5       	ldd	r21, Y+42	; 0x2a
    2a4e:	b4 01       	movw	r22, r8
    2a50:	ca 01       	movw	r24, r20
    2a52:	0e 94 2a 12 	call	0x2454	; 0x2454 <TFT_Set_Address>
    2a56:	92 e0       	ldi	r25, 0x02	; 2
    2a58:	69 0e       	add	r6, r25
    2a5a:	71 1c       	adc	r7, r1
			font16x16[k] = (font16x16[k] << 8);
			font16x16[k] = font16x16[k] + pgm_read_byte(PtrFont);//*PtrFont;
			PtrFont++;
		}

		for(i = 0; i <= 15; i++)
    2a5c:	eb a5       	ldd	r30, Y+43	; 0x2b
    2a5e:	fc a5       	ldd	r31, Y+44	; 0x2c
    2a60:	8e 16       	cp	r8, r30
    2a62:	9f 06       	cpc	r9, r31
    2a64:	29 f0       	breq	.+10     	; 0x2a70 <TFT_Char+0x1e2>
    2a66:	0d a5       	ldd	r16, Y+45	; 0x2d
    2a68:	1e a5       	ldd	r17, Y+46	; 0x2e
	{
	    PtrFont = &FONT_16x16[0];
		Cptrfont = (C-32)*32;
		PtrFont = PtrFont + Cptrfont;

		TFT_Set_Address(x,y,x,y);
    2a6a:	32 2c       	mov	r3, r2
    2a6c:	63 01       	movw	r12, r6
    2a6e:	c6 cf       	rjmp	.-116    	; 0x29fc <TFT_Char+0x16e>
			x_new = x;
			TFT_Set_Address(x,y_new,x,y_new);
		}
	}

}
    2a70:	ae 96       	adiw	r28, 0x2e	; 46
    2a72:	0f b6       	in	r0, 0x3f	; 63
    2a74:	f8 94       	cli
    2a76:	de bf       	out	0x3e, r29	; 62
    2a78:	0f be       	out	0x3f, r0	; 63
    2a7a:	cd bf       	out	0x3d, r28	; 61
    2a7c:	df 91       	pop	r29
    2a7e:	cf 91       	pop	r28
    2a80:	1f 91       	pop	r17
    2a82:	0f 91       	pop	r16
    2a84:	ff 90       	pop	r15
    2a86:	ef 90       	pop	r14
    2a88:	df 90       	pop	r13
    2a8a:	cf 90       	pop	r12
    2a8c:	bf 90       	pop	r11
    2a8e:	af 90       	pop	r10
    2a90:	9f 90       	pop	r9
    2a92:	8f 90       	pop	r8
    2a94:	7f 90       	pop	r7
    2a96:	6f 90       	pop	r6
    2a98:	5f 90       	pop	r5
    2a9a:	4f 90       	pop	r4
    2a9c:	3f 90       	pop	r3
    2a9e:	2f 90       	pop	r2
    2aa0:	08 95       	ret

00002aa2 <TFT_Text>:

void TFT_Text(const char* S,unsigned int x,unsigned int y,char DimFont,unsigned int Fcolor,unsigned int Bcolor)
{
    2aa2:	2f 92       	push	r2
    2aa4:	3f 92       	push	r3
    2aa6:	4f 92       	push	r4
    2aa8:	5f 92       	push	r5
    2aaa:	6f 92       	push	r6
    2aac:	7f 92       	push	r7
    2aae:	8f 92       	push	r8
    2ab0:	9f 92       	push	r9
    2ab2:	af 92       	push	r10
    2ab4:	bf 92       	push	r11
    2ab6:	cf 92       	push	r12
    2ab8:	df 92       	push	r13
    2aba:	ef 92       	push	r14
    2abc:	ff 92       	push	r15
    2abe:	0f 93       	push	r16
    2ac0:	1f 93       	push	r17
    2ac2:	cf 93       	push	r28
    2ac4:	df 93       	push	r29
    2ac6:	cd b7       	in	r28, 0x3d	; 61
    2ac8:	de b7       	in	r29, 0x3e	; 62
    2aca:	6a 97       	sbiw	r28, 0x1a	; 26
    2acc:	0f b6       	in	r0, 0x3f	; 63
    2ace:	f8 94       	cli
    2ad0:	de bf       	out	0x3e, r29	; 62
    2ad2:	0f be       	out	0x3f, r0	; 63
    2ad4:	cd bf       	out	0x3d, r28	; 61
    2ad6:	6b 01       	movw	r12, r22
    2ad8:	1a 01       	movw	r2, r20
    2ada:	28 01       	movw	r4, r16
    2adc:	47 01       	movw	r8, r14
	int lenght,k;
	char buffer[24];
	lenght = strlen(S);
    2ade:	fc 01       	movw	r30, r24
    2ae0:	01 90       	ld	r0, Z+
    2ae2:	00 20       	and	r0, r0
    2ae4:	e9 f7       	brne	.-6      	; 0x2ae0 <TFT_Text+0x3e>
    2ae6:	af 01       	movw	r20, r30
    2ae8:	48 1b       	sub	r20, r24
    2aea:	59 0b       	sbc	r21, r25

	for(k = 0; k <= (lenght - 1); k++)
    2aec:	ba 01       	movw	r22, r20
    2aee:	62 50       	subi	r22, 0x02	; 2
    2af0:	71 09       	sbc	r23, r1
    2af2:	5b 01       	movw	r10, r22
    2af4:	77 23       	and	r23, r23
    2af6:	0c f4       	brge	.+2      	; 0x2afa <TFT_Text+0x58>
    2af8:	4c c0       	rjmp	.+152    	; 0x2b92 <TFT_Text+0xf0>
    2afa:	dc 01       	movw	r26, r24
    2afc:	fe 01       	movw	r30, r28
    2afe:	31 96       	adiw	r30, 0x01	; 1
    2b00:	40 e0       	ldi	r20, 0x00	; 0
    2b02:	50 e0       	ldi	r21, 0x00	; 0
	{
		buffer[k] = S[k];
    2b04:	8d 91       	ld	r24, X+
    2b06:	81 93       	st	Z+, r24
{
	int lenght,k;
	char buffer[24];
	lenght = strlen(S);

	for(k = 0; k <= (lenght - 1); k++)
    2b08:	4f 5f       	subi	r20, 0xFF	; 255
    2b0a:	5f 4f       	sbci	r21, 0xFF	; 255
    2b0c:	a4 16       	cp	r10, r20
    2b0e:	b5 06       	cpc	r11, r21
    2b10:	cc f7       	brge	.-14     	; 0x2b04 <TFT_Text+0x62>
    2b12:	3c c0       	rjmp	.+120    	; 0x2b8c <TFT_Text+0xea>
    2b14:	ce 01       	movw	r24, r28
    2b16:	01 96       	adiw	r24, 0x01	; 1
    2b18:	9a 8f       	std	Y+26, r25	; 0x1a
    2b1a:	89 8f       	std	Y+25, r24	; 0x19
	{
		buffer[k] = S[k];
	}

	if(DimFont == 8)
    2b1c:	61 2c       	mov	r6, r1
    2b1e:	71 2c       	mov	r7, r1
	{
		for(k = 0; k <= (lenght - 1); k++)
		{
			TFT_Char(buffer[k],x,y,DimFont,Fcolor,Bcolor);
    2b20:	74 01       	movw	r14, r8
    2b22:	82 01       	movw	r16, r4
    2b24:	28 e0       	ldi	r18, 0x08	; 8
    2b26:	a1 01       	movw	r20, r2
    2b28:	b6 01       	movw	r22, r12
    2b2a:	e9 8d       	ldd	r30, Y+25	; 0x19
    2b2c:	fa 8d       	ldd	r31, Y+26	; 0x1a
    2b2e:	81 91       	ld	r24, Z+
    2b30:	fa 8f       	std	Y+26, r31	; 0x1a
    2b32:	e9 8f       	std	Y+25, r30	; 0x19
    2b34:	0e 94 47 14 	call	0x288e	; 0x288e <TFT_Char>
			x = x + 8;
    2b38:	f8 e0       	ldi	r31, 0x08	; 8
    2b3a:	cf 0e       	add	r12, r31
    2b3c:	d1 1c       	adc	r13, r1
		buffer[k] = S[k];
	}

	if(DimFont == 8)
	{
		for(k = 0; k <= (lenght - 1); k++)
    2b3e:	6f ef       	ldi	r22, 0xFF	; 255
    2b40:	66 1a       	sub	r6, r22
    2b42:	76 0a       	sbc	r7, r22
    2b44:	a6 14       	cp	r10, r6
    2b46:	b7 04       	cpc	r11, r7
    2b48:	5c f7       	brge	.-42     	; 0x2b20 <TFT_Text+0x7e>
    2b4a:	25 c0       	rjmp	.+74     	; 0x2b96 <TFT_Text+0xf4>
		{
			TFT_Char(buffer[k],x,y,DimFont,Fcolor,Bcolor);
			x = x + 8;
		}
	}
	else if(DimFont == 16)
    2b4c:	20 31       	cpi	r18, 0x10	; 16
    2b4e:	19 f5       	brne	.+70     	; 0x2b96 <TFT_Text+0xf4>
	{
		for(k = 0; k <= (lenght - 1); k++)
    2b50:	bb 20       	and	r11, r11
    2b52:	0c f1       	brlt	.+66     	; 0x2b96 <TFT_Text+0xf4>
    2b54:	ce 01       	movw	r24, r28
    2b56:	01 96       	adiw	r24, 0x01	; 1
    2b58:	9a 8f       	std	Y+26, r25	; 0x1a
    2b5a:	89 8f       	std	Y+25, r24	; 0x19
    2b5c:	61 2c       	mov	r6, r1
    2b5e:	71 2c       	mov	r7, r1
		{
			TFT_Char(buffer[k],x,y,DimFont,Fcolor,Bcolor);
    2b60:	74 01       	movw	r14, r8
    2b62:	82 01       	movw	r16, r4
    2b64:	20 e1       	ldi	r18, 0x10	; 16
    2b66:	a1 01       	movw	r20, r2
    2b68:	b6 01       	movw	r22, r12
    2b6a:	e9 8d       	ldd	r30, Y+25	; 0x19
    2b6c:	fa 8d       	ldd	r31, Y+26	; 0x1a
    2b6e:	81 91       	ld	r24, Z+
    2b70:	fa 8f       	std	Y+26, r31	; 0x1a
    2b72:	e9 8f       	std	Y+25, r30	; 0x19
    2b74:	0e 94 47 14 	call	0x288e	; 0x288e <TFT_Char>
			x = x + 14;  //default is 16 but 14 is to minimize the space
    2b78:	fe e0       	ldi	r31, 0x0E	; 14
    2b7a:	cf 0e       	add	r12, r31
    2b7c:	d1 1c       	adc	r13, r1
			x = x + 8;
		}
	}
	else if(DimFont == 16)
	{
		for(k = 0; k <= (lenght - 1); k++)
    2b7e:	6f ef       	ldi	r22, 0xFF	; 255
    2b80:	66 1a       	sub	r6, r22
    2b82:	76 0a       	sbc	r7, r22
    2b84:	a6 14       	cp	r10, r6
    2b86:	b7 04       	cpc	r11, r7
    2b88:	5c f7       	brge	.-42     	; 0x2b60 <TFT_Text+0xbe>
    2b8a:	05 c0       	rjmp	.+10     	; 0x2b96 <TFT_Text+0xf4>
	for(k = 0; k <= (lenght - 1); k++)
	{
		buffer[k] = S[k];
	}

	if(DimFont == 8)
    2b8c:	28 30       	cpi	r18, 0x08	; 8
    2b8e:	f1 f6       	brne	.-68     	; 0x2b4c <TFT_Text+0xaa>
    2b90:	c1 cf       	rjmp	.-126    	; 0x2b14 <TFT_Text+0x72>
    2b92:	28 30       	cpi	r18, 0x08	; 8
    2b94:	d9 f6       	brne	.-74     	; 0x2b4c <TFT_Text+0xaa>
		{
			TFT_Char(buffer[k],x,y,DimFont,Fcolor,Bcolor);
			x = x + 14;  //default is 16 but 14 is to minimize the space
		}
	}
}
    2b96:	6a 96       	adiw	r28, 0x1a	; 26
    2b98:	0f b6       	in	r0, 0x3f	; 63
    2b9a:	f8 94       	cli
    2b9c:	de bf       	out	0x3e, r29	; 62
    2b9e:	0f be       	out	0x3f, r0	; 63
    2ba0:	cd bf       	out	0x3d, r28	; 61
    2ba2:	df 91       	pop	r29
    2ba4:	cf 91       	pop	r28
    2ba6:	1f 91       	pop	r17
    2ba8:	0f 91       	pop	r16
    2baa:	ff 90       	pop	r15
    2bac:	ef 90       	pop	r14
    2bae:	df 90       	pop	r13
    2bb0:	cf 90       	pop	r12
    2bb2:	bf 90       	pop	r11
    2bb4:	af 90       	pop	r10
    2bb6:	9f 90       	pop	r9
    2bb8:	8f 90       	pop	r8
    2bba:	7f 90       	pop	r7
    2bbc:	6f 90       	pop	r6
    2bbe:	5f 90       	pop	r5
    2bc0:	4f 90       	pop	r4
    2bc2:	3f 90       	pop	r3
    2bc4:	2f 90       	pop	r2
    2bc6:	08 95       	ret

00002bc8 <TFT_PutsInt>:

void TFT_PutsInt(int32_t val,signed int field_length,unsigned int x,unsigned int y,char DimFont,unsigned int Fcolor,unsigned int Bcolor)
{
    2bc8:	2f 92       	push	r2
    2bca:	3f 92       	push	r3
    2bcc:	4f 92       	push	r4
    2bce:	5f 92       	push	r5
    2bd0:	6f 92       	push	r6
    2bd2:	7f 92       	push	r7
    2bd4:	8f 92       	push	r8
    2bd6:	9f 92       	push	r9
    2bd8:	af 92       	push	r10
    2bda:	bf 92       	push	r11
    2bdc:	cf 92       	push	r12
    2bde:	df 92       	push	r13
    2be0:	ef 92       	push	r14
    2be2:	ff 92       	push	r15
    2be4:	0f 93       	push	r16
    2be6:	1f 93       	push	r17
    2be8:	cf 93       	push	r28
    2bea:	df 93       	push	r29
    2bec:	cd b7       	in	r28, 0x3d	; 61
    2bee:	de b7       	in	r29, 0x3e	; 62
    2bf0:	2b 97       	sbiw	r28, 0x0b	; 11
    2bf2:	0f b6       	in	r0, 0x3f	; 63
    2bf4:	f8 94       	cli
    2bf6:	de bf       	out	0x3e, r29	; 62
    2bf8:	0f be       	out	0x3f, r0	; 63
    2bfa:	cd bf       	out	0x3d, r28	; 61
    2bfc:	3a 01       	movw	r6, r20
    2bfe:	49 01       	movw	r8, r18
    2c00:	18 01       	movw	r2, r16
    2c02:	eb 86       	std	Y+11, r14	; 0x0b
    2c04:	26 01       	movw	r4, r12
	//This function writes a long integer type value to LCD module

	char str[10]={0,0,0,0,0,0,0,0,0,0};
    2c06:	fe 01       	movw	r30, r28
    2c08:	31 96       	adiw	r30, 0x01	; 1
    2c0a:	2a e0       	ldi	r18, 0x0A	; 10
    2c0c:	df 01       	movw	r26, r30
    2c0e:	1d 92       	st	X+, r1
    2c10:	2a 95       	dec	r18
    2c12:	e9 f7       	brne	.-6      	; 0x2c0e <TFT_PutsInt+0x46>
	int i=9,j=0;
	while(val)
    2c14:	61 15       	cp	r22, r1
    2c16:	71 05       	cpc	r23, r1
    2c18:	81 05       	cpc	r24, r1
    2c1a:	91 05       	cpc	r25, r1
    2c1c:	c9 f0       	breq	.+50     	; 0x2c50 <TFT_PutsInt+0x88>
    2c1e:	6e 01       	movw	r12, r28
    2c20:	bb e0       	ldi	r27, 0x0B	; 11
    2c22:	cb 0e       	add	r12, r27
    2c24:	d1 1c       	adc	r13, r1
	{
		str[i]=val%10;
    2c26:	1a e0       	ldi	r17, 0x0A	; 10
    2c28:	e1 2e       	mov	r14, r17
    2c2a:	f1 2c       	mov	r15, r1
    2c2c:	00 e0       	ldi	r16, 0x00	; 0
    2c2e:	10 e0       	ldi	r17, 0x00	; 0
    2c30:	a8 01       	movw	r20, r16
    2c32:	97 01       	movw	r18, r14
    2c34:	0e 94 64 28 	call	0x50c8	; 0x50c8 <__divmodsi4>
    2c38:	f6 01       	movw	r30, r12
    2c3a:	62 93       	st	-Z, r22
    2c3c:	6f 01       	movw	r12, r30
		val=val/10;
    2c3e:	62 2f       	mov	r22, r18
    2c40:	73 2f       	mov	r23, r19
    2c42:	84 2f       	mov	r24, r20
    2c44:	95 2f       	mov	r25, r21
{
	//This function writes a long integer type value to LCD module

	char str[10]={0,0,0,0,0,0,0,0,0,0};
	int i=9,j=0;
	while(val)
    2c46:	61 15       	cp	r22, r1
    2c48:	71 05       	cpc	r23, r1
    2c4a:	81 05       	cpc	r24, r1
    2c4c:	91 05       	cpc	r25, r1
    2c4e:	81 f7       	brne	.-32     	; 0x2c30 <TFT_PutsInt+0x68>
	{
		str[i]=val%10;
		val=val/10;
		i--;
	}
	if(field_length==-1)
    2c50:	ff ef       	ldi	r31, 0xFF	; 255
    2c52:	6f 16       	cp	r6, r31
    2c54:	7f 06       	cpc	r7, r31
    2c56:	71 f4       	brne	.+28     	; 0x2c74 <TFT_PutsInt+0xac>
	while(str[j]==0) j++;
    2c58:	29 81       	ldd	r18, Y+1	; 0x01
    2c5a:	21 11       	cpse	r18, r1
    2c5c:	11 c0       	rjmp	.+34     	; 0x2c80 <TFT_PutsInt+0xb8>
    2c5e:	fe 01       	movw	r30, r28
    2c60:	32 96       	adiw	r30, 0x02	; 2
    2c62:	c1 2c       	mov	r12, r1
    2c64:	d1 2c       	mov	r13, r1
    2c66:	2f ef       	ldi	r18, 0xFF	; 255
    2c68:	c2 1a       	sub	r12, r18
    2c6a:	d2 0a       	sbc	r13, r18
    2c6c:	21 91       	ld	r18, Z+
    2c6e:	22 23       	and	r18, r18
    2c70:	d1 f3       	breq	.-12     	; 0x2c66 <TFT_PutsInt+0x9e>
    2c72:	08 c0       	rjmp	.+16     	; 0x2c84 <TFT_PutsInt+0xbc>
	else
	j=10-field_length;
    2c74:	2a e0       	ldi	r18, 0x0A	; 10
    2c76:	30 e0       	ldi	r19, 0x00	; 0
    2c78:	69 01       	movw	r12, r18
    2c7a:	c6 18       	sub	r12, r6
    2c7c:	d7 08       	sbc	r13, r7
    2c7e:	02 c0       	rjmp	.+4      	; 0x2c84 <TFT_PutsInt+0xbc>
		str[i]=val%10;
		val=val/10;
		i--;
	}
	if(field_length==-1)
	while(str[j]==0) j++;
    2c80:	c1 2c       	mov	r12, r1
    2c82:	d1 2c       	mov	r13, r1
	else
	j=10-field_length;

	if(val<0)
    2c84:	99 23       	and	r25, r25
    2c86:	ac f4       	brge	.+42     	; 0x2cb2 <TFT_PutsInt+0xea>
	{
		TFT_Char('-', x, y, DimFont, Fcolor, Bcolor);
    2c88:	75 01       	movw	r14, r10
    2c8a:	82 01       	movw	r16, r4
    2c8c:	2b 85       	ldd	r18, Y+11	; 0x0b
    2c8e:	a1 01       	movw	r20, r2
    2c90:	b4 01       	movw	r22, r8
    2c92:	8d e2       	ldi	r24, 0x2D	; 45
    2c94:	0e 94 47 14 	call	0x288e	; 0x288e <TFT_Char>
		if(DimFont == 8) x+=8;
    2c98:	8b 85       	ldd	r24, Y+11	; 0x0b
    2c9a:	88 30       	cpi	r24, 0x08	; 8
    2c9c:	21 f4       	brne	.+8      	; 0x2ca6 <TFT_PutsInt+0xde>
    2c9e:	98 e0       	ldi	r25, 0x08	; 8
    2ca0:	89 0e       	add	r8, r25
    2ca2:	91 1c       	adc	r9, r1
    2ca4:	06 c0       	rjmp	.+12     	; 0x2cb2 <TFT_PutsInt+0xea>
		else if(DimFont == 16) x+=14; //here 16 is genuine but 14 is to minimize the space between two character
    2ca6:	ab 85       	ldd	r26, Y+11	; 0x0b
    2ca8:	a0 31       	cpi	r26, 0x10	; 16
    2caa:	19 f4       	brne	.+6      	; 0x2cb2 <TFT_PutsInt+0xea>
    2cac:	be e0       	ldi	r27, 0x0E	; 14
    2cae:	8b 0e       	add	r8, r27
    2cb0:	91 1c       	adc	r9, r1
	}

	for(i=j;i<10;i++)
    2cb2:	ea e0       	ldi	r30, 0x0A	; 10
    2cb4:	ce 16       	cp	r12, r30
    2cb6:	d1 04       	cpc	r13, r1
    2cb8:	2c f5       	brge	.+74     	; 0x2d04 <TFT_PutsInt+0x13c>
    2cba:	81 e0       	ldi	r24, 0x01	; 1
    2cbc:	90 e0       	ldi	r25, 0x00	; 0
    2cbe:	8c 0f       	add	r24, r28
    2cc0:	9d 1f       	adc	r25, r29
    2cc2:	c8 0e       	add	r12, r24
    2cc4:	d9 1e       	adc	r13, r25
    2cc6:	3e 01       	movw	r6, r28
    2cc8:	9b e0       	ldi	r25, 0x0B	; 11
    2cca:	69 0e       	add	r6, r25
    2ccc:	71 1c       	adc	r7, r1
	{
		TFT_Char(48+str[i], x, y, DimFont, Fcolor, Bcolor);
    2cce:	d6 01       	movw	r26, r12
    2cd0:	8d 91       	ld	r24, X+
    2cd2:	6d 01       	movw	r12, r26
    2cd4:	75 01       	movw	r14, r10
    2cd6:	82 01       	movw	r16, r4
    2cd8:	2b 85       	ldd	r18, Y+11	; 0x0b
    2cda:	a1 01       	movw	r20, r2
    2cdc:	b4 01       	movw	r22, r8
    2cde:	80 5d       	subi	r24, 0xD0	; 208
    2ce0:	0e 94 47 14 	call	0x288e	; 0x288e <TFT_Char>
		if(DimFont == 8) x+=8;
    2ce4:	bb 85       	ldd	r27, Y+11	; 0x0b
    2ce6:	b8 30       	cpi	r27, 0x08	; 8
    2ce8:	21 f4       	brne	.+8      	; 0x2cf2 <TFT_PutsInt+0x12a>
    2cea:	e8 e0       	ldi	r30, 0x08	; 8
    2cec:	8e 0e       	add	r8, r30
    2cee:	91 1c       	adc	r9, r1
    2cf0:	06 c0       	rjmp	.+12     	; 0x2cfe <TFT_PutsInt+0x136>
		else if(DimFont == 16) x+=14; //here 16 is genuine but 14 is to minimize the space between two character
    2cf2:	fb 85       	ldd	r31, Y+11	; 0x0b
    2cf4:	f0 31       	cpi	r31, 0x10	; 16
    2cf6:	19 f4       	brne	.+6      	; 0x2cfe <TFT_PutsInt+0x136>
    2cf8:	2e e0       	ldi	r18, 0x0E	; 14
    2cfa:	82 0e       	add	r8, r18
    2cfc:	91 1c       	adc	r9, r1
		TFT_Char('-', x, y, DimFont, Fcolor, Bcolor);
		if(DimFont == 8) x+=8;
		else if(DimFont == 16) x+=14; //here 16 is genuine but 14 is to minimize the space between two character
	}

	for(i=j;i<10;i++)
    2cfe:	c6 14       	cp	r12, r6
    2d00:	d7 04       	cpc	r13, r7
    2d02:	29 f7       	brne	.-54     	; 0x2cce <TFT_PutsInt+0x106>
	{
		TFT_Char(48+str[i], x, y, DimFont, Fcolor, Bcolor);
		if(DimFont == 8) x+=8;
		else if(DimFont == 16) x+=14; //here 16 is genuine but 14 is to minimize the space between two character
	}
}
    2d04:	2b 96       	adiw	r28, 0x0b	; 11
    2d06:	0f b6       	in	r0, 0x3f	; 63
    2d08:	f8 94       	cli
    2d0a:	de bf       	out	0x3e, r29	; 62
    2d0c:	0f be       	out	0x3f, r0	; 63
    2d0e:	cd bf       	out	0x3d, r28	; 61
    2d10:	df 91       	pop	r29
    2d12:	cf 91       	pop	r28
    2d14:	1f 91       	pop	r17
    2d16:	0f 91       	pop	r16
    2d18:	ff 90       	pop	r15
    2d1a:	ef 90       	pop	r14
    2d1c:	df 90       	pop	r13
    2d1e:	cf 90       	pop	r12
    2d20:	bf 90       	pop	r11
    2d22:	af 90       	pop	r10
    2d24:	9f 90       	pop	r9
    2d26:	8f 90       	pop	r8
    2d28:	7f 90       	pop	r7
    2d2a:	6f 90       	pop	r6
    2d2c:	5f 90       	pop	r5
    2d2e:	4f 90       	pop	r4
    2d30:	3f 90       	pop	r3
    2d32:	2f 90       	pop	r2
    2d34:	08 95       	ret

00002d36 <TFT_Image>:


void TFT_Image(unsigned int pos_x,unsigned int pos_y,unsigned int dim_x,unsigned int dim_y,const unsigned int *picture){
    2d36:	2f 92       	push	r2
    2d38:	3f 92       	push	r3
    2d3a:	4f 92       	push	r4
    2d3c:	5f 92       	push	r5
    2d3e:	6f 92       	push	r6
    2d40:	7f 92       	push	r7
    2d42:	8f 92       	push	r8
    2d44:	9f 92       	push	r9
    2d46:	af 92       	push	r10
    2d48:	bf 92       	push	r11
    2d4a:	cf 92       	push	r12
    2d4c:	df 92       	push	r13
    2d4e:	ef 92       	push	r14
    2d50:	ff 92       	push	r15
    2d52:	0f 93       	push	r16
    2d54:	1f 93       	push	r17
    2d56:	cf 93       	push	r28
    2d58:	df 93       	push	r29
    2d5a:	4c 01       	movw	r8, r24
    2d5c:	6b 01       	movw	r12, r22
	unsigned int x, y;

	TFT_CS_0;
    2d5e:	94 98       	cbi	0x12, 4	; 18
	for(y = pos_y; y < (pos_y + dim_y); y++ ) {
    2d60:	3b 01       	movw	r6, r22
    2d62:	62 0e       	add	r6, r18
    2d64:	73 1e       	adc	r7, r19
    2d66:	66 15       	cp	r22, r6
    2d68:	77 05       	cpc	r23, r7
    2d6a:	50 f5       	brcc	.+84     	; 0x2dc0 <TFT_Image+0x8a>
		for(x = pos_x; x < (pos_x + dim_x); x++ ) {
    2d6c:	5c 01       	movw	r10, r24
    2d6e:	a4 0e       	add	r10, r20
    2d70:	b5 1e       	adc	r11, r21
    2d72:	2a 01       	movw	r4, r20
    2d74:	44 0c       	add	r4, r4
    2d76:	55 1c       	adc	r5, r5
    2d78:	28 2e       	mov	r2, r24
    2d7a:	39 2c       	mov	r3, r9
    2d7c:	1a c0       	rjmp	.+52     	; 0x2db2 <TFT_Image+0x7c>

			TFT_Set_Address(x, y, x, y);
    2d7e:	96 01       	movw	r18, r12
    2d80:	ae 01       	movw	r20, r28
    2d82:	b6 01       	movw	r22, r12
    2d84:	ce 01       	movw	r24, r28
    2d86:	0e 94 2a 12 	call	0x2454	; 0x2454 <TFT_Set_Address>
			picture++;
    2d8a:	82 e0       	ldi	r24, 0x02	; 2
    2d8c:	e8 0e       	add	r14, r24
    2d8e:	f1 1c       	adc	r15, r1
			Write_Data(pgm_read_word(picture));
    2d90:	f7 01       	movw	r30, r14
    2d92:	85 91       	lpm	r24, Z+
    2d94:	94 91       	lpm	r25, Z
    2d96:	0e 94 18 12 	call	0x2430	; 0x2430 <Write_Data>
void TFT_Image(unsigned int pos_x,unsigned int pos_y,unsigned int dim_x,unsigned int dim_y,const unsigned int *picture){
	unsigned int x, y;

	TFT_CS_0;
	for(y = pos_y; y < (pos_y + dim_y); y++ ) {
		for(x = pos_x; x < (pos_x + dim_x); x++ ) {
    2d9a:	21 96       	adiw	r28, 0x01	; 1
    2d9c:	ca 15       	cp	r28, r10
    2d9e:	db 05       	cpc	r29, r11
    2da0:	70 f3       	brcs	.-36     	; 0x2d7e <TFT_Image+0x48>
    2da2:	04 0d       	add	r16, r4
    2da4:	15 1d       	adc	r17, r5

void TFT_Image(unsigned int pos_x,unsigned int pos_y,unsigned int dim_x,unsigned int dim_y,const unsigned int *picture){
	unsigned int x, y;

	TFT_CS_0;
	for(y = pos_y; y < (pos_y + dim_y); y++ ) {
    2da6:	8f ef       	ldi	r24, 0xFF	; 255
    2da8:	c8 1a       	sub	r12, r24
    2daa:	d8 0a       	sbc	r13, r24
    2dac:	c6 14       	cp	r12, r6
    2dae:	d7 04       	cpc	r13, r7
    2db0:	38 f4       	brcc	.+14     	; 0x2dc0 <TFT_Image+0x8a>
		for(x = pos_x; x < (pos_x + dim_x); x++ ) {
    2db2:	8a 14       	cp	r8, r10
    2db4:	9b 04       	cpc	r9, r11
    2db6:	b8 f7       	brcc	.-18     	; 0x2da6 <TFT_Image+0x70>
    2db8:	c2 2d       	mov	r28, r2
    2dba:	d3 2d       	mov	r29, r3
    2dbc:	78 01       	movw	r14, r16
    2dbe:	df cf       	rjmp	.-66     	; 0x2d7e <TFT_Image+0x48>
			TFT_Set_Address(x, y, x, y);
			picture++;
			Write_Data(pgm_read_word(picture));
		}
	}
	TFT_CS_1;
    2dc0:	94 9a       	sbi	0x12, 4	; 18
}
    2dc2:	df 91       	pop	r29
    2dc4:	cf 91       	pop	r28
    2dc6:	1f 91       	pop	r17
    2dc8:	0f 91       	pop	r16
    2dca:	ff 90       	pop	r15
    2dcc:	ef 90       	pop	r14
    2dce:	df 90       	pop	r13
    2dd0:	cf 90       	pop	r12
    2dd2:	bf 90       	pop	r11
    2dd4:	af 90       	pop	r10
    2dd6:	9f 90       	pop	r9
    2dd8:	8f 90       	pop	r8
    2dda:	7f 90       	pop	r7
    2ddc:	6f 90       	pop	r6
    2dde:	5f 90       	pop	r5
    2de0:	4f 90       	pop	r4
    2de2:	3f 90       	pop	r3
    2de4:	2f 90       	pop	r2
    2de6:	08 95       	ret

00002de8 <SPI_MasterInit>:
//clock rate: 125Khz

void SPI_MasterInit(void)
{
	/* Set MOSI and SCK output, all others input */
	DDR_SPI |= (1<<DD_MOSI)|(1<<DD_SCK);
    2de8:	87 b3       	in	r24, 0x17	; 23
    2dea:	80 6a       	ori	r24, 0xA0	; 160
    2dec:	87 bb       	out	0x17, r24	; 23
	/* Enable SPI, Master, set clock rate fck/64=125kHz */
	SPCR = (1<<SPE)|(1<<MSTR)|(1<<SPR1);  
    2dee:	82 e5       	ldi	r24, 0x52	; 82
    2df0:	8d b9       	out	0x0d, r24	; 13
    2df2:	08 95       	ret

00002df4 <SPI_MasterTransmit_Receive>:
}

unsigned char SPI_MasterTransmit_Receive(char cData)
{
	/* Start transmission */
	SPDR = cData;
    2df4:	8f b9       	out	0x0f, r24	; 15
	/* Wait for transmission complete */
	while(!(SPSR & (1<<SPIF)));
    2df6:	77 9b       	sbis	0x0e, 7	; 14
    2df8:	fe cf       	rjmp	.-4      	; 0x2df6 <SPI_MasterTransmit_Receive+0x2>
	cData=SPDR;
    2dfa:	8f b1       	in	r24, 0x0f	; 15
	return cData;
}
    2dfc:	08 95       	ret

00002dfe <TPReadX>:
{
	SPI_MasterInit();
}

uint16_t TPReadX(void)
{
    2dfe:	cf 93       	push	r28
    2e00:	df 93       	push	r29
	uint16_t x=0;
	TP_CS_0;
    2e02:	c4 98       	cbi	0x18, 4	; 24
	#else
		//round up by default
		__ticks_dc = (uint32_t)(ceil(fabs(__tmp)));
	#endif

	__builtin_avr_delay_cycles(__ticks_dc);
    2e04:	2a e1       	ldi	r18, 0x1A	; 26
    2e06:	2a 95       	dec	r18
    2e08:	f1 f7       	brne	.-4      	; 0x2e06 <TPReadX+0x8>
    2e0a:	00 c0       	rjmp	.+0      	; 0x2e0c <TPReadX+0xe>
	_delay_us(10);
	SPI_MasterTransmit_Receive(0x90);
    2e0c:	80 e9       	ldi	r24, 0x90	; 144
    2e0e:	0e 94 fa 16 	call	0x2df4	; 0x2df4 <SPI_MasterTransmit_Receive>
    2e12:	3a e1       	ldi	r19, 0x1A	; 26
    2e14:	3a 95       	dec	r19
    2e16:	f1 f7       	brne	.-4      	; 0x2e14 <TPReadX+0x16>
    2e18:	00 c0       	rjmp	.+0      	; 0x2e1a <TPReadX+0x1c>
	_delay_us(10);
	x=SPI_MasterTransmit_Receive(0x00);
    2e1a:	80 e0       	ldi	r24, 0x00	; 0
    2e1c:	0e 94 fa 16 	call	0x2df4	; 0x2df4 <SPI_MasterTransmit_Receive>
    2e20:	c8 2f       	mov	r28, r24
    2e22:	d0 e0       	ldi	r29, 0x00	; 0
	x<<=8;
    2e24:	dc 2f       	mov	r29, r28
    2e26:	cc 27       	eor	r28, r28
	x+=SPI_MasterTransmit_Receive(0x00);
    2e28:	80 e0       	ldi	r24, 0x00	; 0
    2e2a:	0e 94 fa 16 	call	0x2df4	; 0x2df4 <SPI_MasterTransmit_Receive>
    2e2e:	9e 01       	movw	r18, r28
    2e30:	28 0f       	add	r18, r24
    2e32:	31 1d       	adc	r19, r1
    2e34:	c9 01       	movw	r24, r18
	TP_CS_1;
    2e36:	c4 9a       	sbi	0x18, 4	; 24
	x=x>>7;
	x  = x & 0x0FFF;
	return x;
}
    2e38:	88 0f       	add	r24, r24
    2e3a:	89 2f       	mov	r24, r25
    2e3c:	88 1f       	adc	r24, r24
    2e3e:	99 0b       	sbc	r25, r25
    2e40:	91 95       	neg	r25
    2e42:	df 91       	pop	r29
    2e44:	cf 91       	pop	r28
    2e46:	08 95       	ret

00002e48 <TPReadY>:

uint16_t TPReadY(void)
{
    2e48:	cf 93       	push	r28
    2e4a:	df 93       	push	r29
	uint16_t y=0;
	TP_CS_0;
    2e4c:	c4 98       	cbi	0x18, 4	; 24
    2e4e:	8a e1       	ldi	r24, 0x1A	; 26
    2e50:	8a 95       	dec	r24
    2e52:	f1 f7       	brne	.-4      	; 0x2e50 <TPReadY+0x8>
    2e54:	00 c0       	rjmp	.+0      	; 0x2e56 <TPReadY+0xe>
	_delay_us(10);
	SPI_MasterTransmit_Receive(0xd0);
    2e56:	80 ed       	ldi	r24, 0xD0	; 208
    2e58:	0e 94 fa 16 	call	0x2df4	; 0x2df4 <SPI_MasterTransmit_Receive>
    2e5c:	8a e1       	ldi	r24, 0x1A	; 26
    2e5e:	8a 95       	dec	r24
    2e60:	f1 f7       	brne	.-4      	; 0x2e5e <TPReadY+0x16>
    2e62:	00 c0       	rjmp	.+0      	; 0x2e64 <TPReadY+0x1c>
	_delay_us(10);
	y=SPI_MasterTransmit_Receive(0x00);
    2e64:	80 e0       	ldi	r24, 0x00	; 0
    2e66:	0e 94 fa 16 	call	0x2df4	; 0x2df4 <SPI_MasterTransmit_Receive>
    2e6a:	c8 2f       	mov	r28, r24
    2e6c:	d0 e0       	ldi	r29, 0x00	; 0
	y<<=8;
    2e6e:	dc 2f       	mov	r29, r28
    2e70:	cc 27       	eor	r28, r28
	y+=SPI_MasterTransmit_Receive(0x00);
    2e72:	80 e0       	ldi	r24, 0x00	; 0
    2e74:	0e 94 fa 16 	call	0x2df4	; 0x2df4 <SPI_MasterTransmit_Receive>
    2e78:	c8 0f       	add	r28, r24
    2e7a:	d1 1d       	adc	r29, r1
	TP_CS_1;
    2e7c:	c4 9a       	sbi	0x18, 4	; 24
	y = y>>7;
    2e7e:	ce 01       	movw	r24, r28
    2e80:	88 0f       	add	r24, r24
    2e82:	89 2f       	mov	r24, r25
    2e84:	88 1f       	adc	r24, r24
    2e86:	99 0b       	sbc	r25, r25
    2e88:	91 95       	neg	r25
	y = y & 0x00FF;
	return y;
}
    2e8a:	99 27       	eor	r25, r25
    2e8c:	df 91       	pop	r29
    2e8e:	cf 91       	pop	r28
    2e90:	08 95       	ret

00002e92 <Read_TPval>:

uint16_t Read_TPval(unsigned int *tpxyval)
{
    2e92:	cf 93       	push	r28
    2e94:	df 93       	push	r29
    2e96:	ec 01       	movw	r28, r24
	tpxyval[0]=TPReadX();
    2e98:	0e 94 ff 16 	call	0x2dfe	; 0x2dfe <TPReadX>
    2e9c:	99 83       	std	Y+1, r25	; 0x01
    2e9e:	88 83       	st	Y, r24
	tpxyval[1]=TPReadY();
    2ea0:	0e 94 24 17 	call	0x2e48	; 0x2e48 <TPReadY>
    2ea4:	9b 83       	std	Y+3, r25	; 0x03
    2ea6:	8a 83       	std	Y+2, r24	; 0x02
	return 1;
}
    2ea8:	81 e0       	ldi	r24, 0x01	; 1
    2eaa:	90 e0       	ldi	r25, 0x00	; 0
    2eac:	df 91       	pop	r29
    2eae:	cf 91       	pop	r28
    2eb0:	08 95       	ret

00002eb2 <Read_ADC>:
{
	ADCSRA=0x80 | AD_PRSCL;
}

unsigned int Read_ADC(unsigned char adc_input, unsigned char ADC_VREF)
{
    2eb2:	95 e0       	ldi	r25, 0x05	; 5
	char i;
	int temp=0;
    2eb4:	20 e0       	ldi	r18, 0x00	; 0
    2eb6:	30 e0       	ldi	r19, 0x00	; 0
	for (i=0;i<5;i++)
	{
		ADMUX=adc_input | ADC_VREF; //MUX setup page 215
    2eb8:	86 2b       	or	r24, r22
    2eba:	87 b9       	out	0x07, r24	; 7
    2ebc:	4a e1       	ldi	r20, 0x1A	; 26
    2ebe:	4a 95       	dec	r20
    2ec0:	f1 f7       	brne	.-4      	; 0x2ebe <Read_ADC+0xc>
    2ec2:	00 c0       	rjmp	.+0      	; 0x2ec4 <Read_ADC+0x12>
		_delay_us(10);
		ADCSRA|=0x40;
    2ec4:	36 9a       	sbi	0x06, 6	; 6
		while ((ADCSRA & 0x10)==0);
    2ec6:	34 9b       	sbis	0x06, 4	; 6
    2ec8:	fe cf       	rjmp	.-4      	; 0x2ec6 <Read_ADC+0x14>
		ADCSRA|=(1<<4);
    2eca:	34 9a       	sbi	0x06, 4	; 6
		temp = temp + ADCW;
    2ecc:	44 b1       	in	r20, 0x04	; 4
    2ece:	55 b1       	in	r21, 0x05	; 5
    2ed0:	24 0f       	add	r18, r20
    2ed2:	35 1f       	adc	r19, r21
    2ed4:	91 50       	subi	r25, 0x01	; 1

unsigned int Read_ADC(unsigned char adc_input, unsigned char ADC_VREF)
{
	char i;
	int temp=0;
	for (i=0;i<5;i++)
    2ed6:	89 f7       	brne	.-30     	; 0x2eba <Read_ADC+0x8>
		ADCSRA|=0x40;
		while ((ADCSRA & 0x10)==0);
		ADCSRA|=(1<<4);
		temp = temp + ADCW;
	}
	return (temp/i);	
    2ed8:	c9 01       	movw	r24, r18
    2eda:	65 e0       	ldi	r22, 0x05	; 5
    2edc:	70 e0       	ldi	r23, 0x00	; 0
    2ede:	0e 94 2e 28 	call	0x505c	; 0x505c <__divmodhi4>
    2ee2:	cb 01       	movw	r24, r22
}
    2ee4:	08 95       	ret

00002ee6 <show_button>:

#define text_color black
#define bg_color white

void show_button()
{
    2ee6:	ef 92       	push	r14
    2ee8:	ff 92       	push	r15
    2eea:	0f 93       	push	r16
    2eec:	1f 93       	push	r17
	TFT_Text("3",141,93,16,text_color,bg_color);
	TFT_Box(181,76,231,126,bg_color);
	TFT_Text("/",198,93,16,text_color,bg_color);
	/////////////////////////////////////////////
	*/
	TFT_Box(10,133,60,183,bg_color);
    2eee:	0f ef       	ldi	r16, 0xFF	; 255
    2ef0:	1f ef       	ldi	r17, 0xFF	; 255
    2ef2:	27 eb       	ldi	r18, 0xB7	; 183
    2ef4:	30 e0       	ldi	r19, 0x00	; 0
    2ef6:	4c e3       	ldi	r20, 0x3C	; 60
    2ef8:	50 e0       	ldi	r21, 0x00	; 0
    2efa:	65 e8       	ldi	r22, 0x85	; 133
    2efc:	70 e0       	ldi	r23, 0x00	; 0
    2efe:	8a e0       	ldi	r24, 0x0A	; 10
    2f00:	90 e0       	ldi	r25, 0x00	; 0
    2f02:	0e 94 96 13 	call	0x272c	; 0x272c <TFT_Box>
	TFT_Text("1",27,150,16,text_color,bg_color);
    2f06:	ee 24       	eor	r14, r14
    2f08:	ea 94       	dec	r14
    2f0a:	fe 2c       	mov	r15, r14
    2f0c:	00 e0       	ldi	r16, 0x00	; 0
    2f0e:	10 e0       	ldi	r17, 0x00	; 0
    2f10:	20 e1       	ldi	r18, 0x10	; 16
    2f12:	46 e9       	ldi	r20, 0x96	; 150
    2f14:	50 e0       	ldi	r21, 0x00	; 0
    2f16:	6b e1       	ldi	r22, 0x1B	; 27
    2f18:	70 e0       	ldi	r23, 0x00	; 0
    2f1a:	80 e6       	ldi	r24, 0x60	; 96
    2f1c:	90 e0       	ldi	r25, 0x00	; 0
    2f1e:	0e 94 51 15 	call	0x2aa2	; 0x2aa2 <TFT_Text>
	TFT_Box(67,133,117,183,bg_color);
    2f22:	0f ef       	ldi	r16, 0xFF	; 255
    2f24:	1f ef       	ldi	r17, 0xFF	; 255
    2f26:	27 eb       	ldi	r18, 0xB7	; 183
    2f28:	30 e0       	ldi	r19, 0x00	; 0
    2f2a:	45 e7       	ldi	r20, 0x75	; 117
    2f2c:	50 e0       	ldi	r21, 0x00	; 0
    2f2e:	65 e8       	ldi	r22, 0x85	; 133
    2f30:	70 e0       	ldi	r23, 0x00	; 0
    2f32:	83 e4       	ldi	r24, 0x43	; 67
    2f34:	90 e0       	ldi	r25, 0x00	; 0
    2f36:	0e 94 96 13 	call	0x272c	; 0x272c <TFT_Box>
	TFT_Text("2",84,150,16,text_color,bg_color);
    2f3a:	00 e0       	ldi	r16, 0x00	; 0
    2f3c:	10 e0       	ldi	r17, 0x00	; 0
    2f3e:	20 e1       	ldi	r18, 0x10	; 16
    2f40:	46 e9       	ldi	r20, 0x96	; 150
    2f42:	50 e0       	ldi	r21, 0x00	; 0
    2f44:	64 e5       	ldi	r22, 0x54	; 84
    2f46:	70 e0       	ldi	r23, 0x00	; 0
    2f48:	82 e6       	ldi	r24, 0x62	; 98
    2f4a:	90 e0       	ldi	r25, 0x00	; 0
    2f4c:	0e 94 51 15 	call	0x2aa2	; 0x2aa2 <TFT_Text>
	TFT_Box(124,133,174,183,bg_color);
    2f50:	0f ef       	ldi	r16, 0xFF	; 255
    2f52:	1f ef       	ldi	r17, 0xFF	; 255
    2f54:	27 eb       	ldi	r18, 0xB7	; 183
    2f56:	30 e0       	ldi	r19, 0x00	; 0
    2f58:	4e ea       	ldi	r20, 0xAE	; 174
    2f5a:	50 e0       	ldi	r21, 0x00	; 0
    2f5c:	65 e8       	ldi	r22, 0x85	; 133
    2f5e:	70 e0       	ldi	r23, 0x00	; 0
    2f60:	8c e7       	ldi	r24, 0x7C	; 124
    2f62:	90 e0       	ldi	r25, 0x00	; 0
    2f64:	0e 94 96 13 	call	0x272c	; 0x272c <TFT_Box>
	TFT_Text("3",141,150,16,text_color,bg_color);
    2f68:	00 e0       	ldi	r16, 0x00	; 0
    2f6a:	10 e0       	ldi	r17, 0x00	; 0
    2f6c:	20 e1       	ldi	r18, 0x10	; 16
    2f6e:	46 e9       	ldi	r20, 0x96	; 150
    2f70:	50 e0       	ldi	r21, 0x00	; 0
    2f72:	6d e8       	ldi	r22, 0x8D	; 141
    2f74:	70 e0       	ldi	r23, 0x00	; 0
    2f76:	84 e6       	ldi	r24, 0x64	; 100
    2f78:	90 e0       	ldi	r25, 0x00	; 0
    2f7a:	0e 94 51 15 	call	0x2aa2	; 0x2aa2 <TFT_Text>
	TFT_Box(181,133,231,183,bg_color);
    2f7e:	0f ef       	ldi	r16, 0xFF	; 255
    2f80:	1f ef       	ldi	r17, 0xFF	; 255
    2f82:	27 eb       	ldi	r18, 0xB7	; 183
    2f84:	30 e0       	ldi	r19, 0x00	; 0
    2f86:	47 ee       	ldi	r20, 0xE7	; 231
    2f88:	50 e0       	ldi	r21, 0x00	; 0
    2f8a:	65 e8       	ldi	r22, 0x85	; 133
    2f8c:	70 e0       	ldi	r23, 0x00	; 0
    2f8e:	85 eb       	ldi	r24, 0xB5	; 181
    2f90:	90 e0       	ldi	r25, 0x00	; 0
    2f92:	0e 94 96 13 	call	0x272c	; 0x272c <TFT_Box>
	TFT_Text("4",198,150,16,text_color,bg_color);
    2f96:	00 e0       	ldi	r16, 0x00	; 0
    2f98:	10 e0       	ldi	r17, 0x00	; 0
    2f9a:	20 e1       	ldi	r18, 0x10	; 16
    2f9c:	46 e9       	ldi	r20, 0x96	; 150
    2f9e:	50 e0       	ldi	r21, 0x00	; 0
    2fa0:	66 ec       	ldi	r22, 0xC6	; 198
    2fa2:	70 e0       	ldi	r23, 0x00	; 0
    2fa4:	86 e6       	ldi	r24, 0x66	; 102
    2fa6:	90 e0       	ldi	r25, 0x00	; 0
    2fa8:	0e 94 51 15 	call	0x2aa2	; 0x2aa2 <TFT_Text>
	/////////////////////////////////////////////
	TFT_Box(10,190,60,240,bg_color);
    2fac:	0f ef       	ldi	r16, 0xFF	; 255
    2fae:	1f ef       	ldi	r17, 0xFF	; 255
    2fb0:	20 ef       	ldi	r18, 0xF0	; 240
    2fb2:	30 e0       	ldi	r19, 0x00	; 0
    2fb4:	4c e3       	ldi	r20, 0x3C	; 60
    2fb6:	50 e0       	ldi	r21, 0x00	; 0
    2fb8:	6e eb       	ldi	r22, 0xBE	; 190
    2fba:	70 e0       	ldi	r23, 0x00	; 0
    2fbc:	8a e0       	ldi	r24, 0x0A	; 10
    2fbe:	90 e0       	ldi	r25, 0x00	; 0
    2fc0:	0e 94 96 13 	call	0x272c	; 0x272c <TFT_Box>
	TFT_Text("5",27,207,16,text_color,bg_color);
    2fc4:	00 e0       	ldi	r16, 0x00	; 0
    2fc6:	10 e0       	ldi	r17, 0x00	; 0
    2fc8:	20 e1       	ldi	r18, 0x10	; 16
    2fca:	4f ec       	ldi	r20, 0xCF	; 207
    2fcc:	50 e0       	ldi	r21, 0x00	; 0
    2fce:	6b e1       	ldi	r22, 0x1B	; 27
    2fd0:	70 e0       	ldi	r23, 0x00	; 0
    2fd2:	88 e6       	ldi	r24, 0x68	; 104
    2fd4:	90 e0       	ldi	r25, 0x00	; 0
    2fd6:	0e 94 51 15 	call	0x2aa2	; 0x2aa2 <TFT_Text>
	TFT_Box(67,190,117,240,bg_color);
    2fda:	0f ef       	ldi	r16, 0xFF	; 255
    2fdc:	1f ef       	ldi	r17, 0xFF	; 255
    2fde:	20 ef       	ldi	r18, 0xF0	; 240
    2fe0:	30 e0       	ldi	r19, 0x00	; 0
    2fe2:	45 e7       	ldi	r20, 0x75	; 117
    2fe4:	50 e0       	ldi	r21, 0x00	; 0
    2fe6:	6e eb       	ldi	r22, 0xBE	; 190
    2fe8:	70 e0       	ldi	r23, 0x00	; 0
    2fea:	83 e4       	ldi	r24, 0x43	; 67
    2fec:	90 e0       	ldi	r25, 0x00	; 0
    2fee:	0e 94 96 13 	call	0x272c	; 0x272c <TFT_Box>
	TFT_Text("6",84,207,16,text_color,bg_color);
    2ff2:	00 e0       	ldi	r16, 0x00	; 0
    2ff4:	10 e0       	ldi	r17, 0x00	; 0
    2ff6:	20 e1       	ldi	r18, 0x10	; 16
    2ff8:	4f ec       	ldi	r20, 0xCF	; 207
    2ffa:	50 e0       	ldi	r21, 0x00	; 0
    2ffc:	64 e5       	ldi	r22, 0x54	; 84
    2ffe:	70 e0       	ldi	r23, 0x00	; 0
    3000:	8a e6       	ldi	r24, 0x6A	; 106
    3002:	90 e0       	ldi	r25, 0x00	; 0
    3004:	0e 94 51 15 	call	0x2aa2	; 0x2aa2 <TFT_Text>
	TFT_Box(124,190,174,240,bg_color);
    3008:	0f ef       	ldi	r16, 0xFF	; 255
    300a:	1f ef       	ldi	r17, 0xFF	; 255
    300c:	20 ef       	ldi	r18, 0xF0	; 240
    300e:	30 e0       	ldi	r19, 0x00	; 0
    3010:	4e ea       	ldi	r20, 0xAE	; 174
    3012:	50 e0       	ldi	r21, 0x00	; 0
    3014:	6e eb       	ldi	r22, 0xBE	; 190
    3016:	70 e0       	ldi	r23, 0x00	; 0
    3018:	8c e7       	ldi	r24, 0x7C	; 124
    301a:	90 e0       	ldi	r25, 0x00	; 0
    301c:	0e 94 96 13 	call	0x272c	; 0x272c <TFT_Box>
	TFT_Text("7",141,207,16,text_color,bg_color);
    3020:	00 e0       	ldi	r16, 0x00	; 0
    3022:	10 e0       	ldi	r17, 0x00	; 0
    3024:	20 e1       	ldi	r18, 0x10	; 16
    3026:	4f ec       	ldi	r20, 0xCF	; 207
    3028:	50 e0       	ldi	r21, 0x00	; 0
    302a:	6d e8       	ldi	r22, 0x8D	; 141
    302c:	70 e0       	ldi	r23, 0x00	; 0
    302e:	8c e6       	ldi	r24, 0x6C	; 108
    3030:	90 e0       	ldi	r25, 0x00	; 0
    3032:	0e 94 51 15 	call	0x2aa2	; 0x2aa2 <TFT_Text>
	TFT_Box(181,190,231,240,bg_color);
    3036:	0f ef       	ldi	r16, 0xFF	; 255
    3038:	1f ef       	ldi	r17, 0xFF	; 255
    303a:	20 ef       	ldi	r18, 0xF0	; 240
    303c:	30 e0       	ldi	r19, 0x00	; 0
    303e:	47 ee       	ldi	r20, 0xE7	; 231
    3040:	50 e0       	ldi	r21, 0x00	; 0
    3042:	6e eb       	ldi	r22, 0xBE	; 190
    3044:	70 e0       	ldi	r23, 0x00	; 0
    3046:	85 eb       	ldi	r24, 0xB5	; 181
    3048:	90 e0       	ldi	r25, 0x00	; 0
    304a:	0e 94 96 13 	call	0x272c	; 0x272c <TFT_Box>
	TFT_Text("8",198,207,16,text_color,bg_color);
    304e:	00 e0       	ldi	r16, 0x00	; 0
    3050:	10 e0       	ldi	r17, 0x00	; 0
    3052:	20 e1       	ldi	r18, 0x10	; 16
    3054:	4f ec       	ldi	r20, 0xCF	; 207
    3056:	50 e0       	ldi	r21, 0x00	; 0
    3058:	66 ec       	ldi	r22, 0xC6	; 198
    305a:	70 e0       	ldi	r23, 0x00	; 0
    305c:	8e e6       	ldi	r24, 0x6E	; 110
    305e:	90 e0       	ldi	r25, 0x00	; 0
    3060:	0e 94 51 15 	call	0x2aa2	; 0x2aa2 <TFT_Text>
	/////////////////////////////////////////////
	TFT_Box(10,247,60,297,bg_color);
    3064:	0f ef       	ldi	r16, 0xFF	; 255
    3066:	1f ef       	ldi	r17, 0xFF	; 255
    3068:	29 e2       	ldi	r18, 0x29	; 41
    306a:	31 e0       	ldi	r19, 0x01	; 1
    306c:	4c e3       	ldi	r20, 0x3C	; 60
    306e:	50 e0       	ldi	r21, 0x00	; 0
    3070:	67 ef       	ldi	r22, 0xF7	; 247
    3072:	70 e0       	ldi	r23, 0x00	; 0
    3074:	8a e0       	ldi	r24, 0x0A	; 10
    3076:	90 e0       	ldi	r25, 0x00	; 0
    3078:	0e 94 96 13 	call	0x272c	; 0x272c <TFT_Box>
	TFT_Text("9",27,264,16,text_color,bg_color);
    307c:	00 e0       	ldi	r16, 0x00	; 0
    307e:	10 e0       	ldi	r17, 0x00	; 0
    3080:	20 e1       	ldi	r18, 0x10	; 16
    3082:	48 e0       	ldi	r20, 0x08	; 8
    3084:	51 e0       	ldi	r21, 0x01	; 1
    3086:	6b e1       	ldi	r22, 0x1B	; 27
    3088:	70 e0       	ldi	r23, 0x00	; 0
    308a:	80 e7       	ldi	r24, 0x70	; 112
    308c:	90 e0       	ldi	r25, 0x00	; 0
    308e:	0e 94 51 15 	call	0x2aa2	; 0x2aa2 <TFT_Text>
	TFT_Box(67,247,117,297,bg_color);
    3092:	0f ef       	ldi	r16, 0xFF	; 255
    3094:	1f ef       	ldi	r17, 0xFF	; 255
    3096:	29 e2       	ldi	r18, 0x29	; 41
    3098:	31 e0       	ldi	r19, 0x01	; 1
    309a:	45 e7       	ldi	r20, 0x75	; 117
    309c:	50 e0       	ldi	r21, 0x00	; 0
    309e:	67 ef       	ldi	r22, 0xF7	; 247
    30a0:	70 e0       	ldi	r23, 0x00	; 0
    30a2:	83 e4       	ldi	r24, 0x43	; 67
    30a4:	90 e0       	ldi	r25, 0x00	; 0
    30a6:	0e 94 96 13 	call	0x272c	; 0x272c <TFT_Box>
	TFT_Text("0",84,264,16,text_color,bg_color);
    30aa:	00 e0       	ldi	r16, 0x00	; 0
    30ac:	10 e0       	ldi	r17, 0x00	; 0
    30ae:	20 e1       	ldi	r18, 0x10	; 16
    30b0:	48 e0       	ldi	r20, 0x08	; 8
    30b2:	51 e0       	ldi	r21, 0x01	; 1
    30b4:	64 e5       	ldi	r22, 0x54	; 84
    30b6:	70 e0       	ldi	r23, 0x00	; 0
    30b8:	82 e7       	ldi	r24, 0x72	; 114
    30ba:	90 e0       	ldi	r25, 0x00	; 0
    30bc:	0e 94 51 15 	call	0x2aa2	; 0x2aa2 <TFT_Text>
	TFT_Box(124,247,174,297,bg_color);
    30c0:	0f ef       	ldi	r16, 0xFF	; 255
    30c2:	1f ef       	ldi	r17, 0xFF	; 255
    30c4:	29 e2       	ldi	r18, 0x29	; 41
    30c6:	31 e0       	ldi	r19, 0x01	; 1
    30c8:	4e ea       	ldi	r20, 0xAE	; 174
    30ca:	50 e0       	ldi	r21, 0x00	; 0
    30cc:	67 ef       	ldi	r22, 0xF7	; 247
    30ce:	70 e0       	ldi	r23, 0x00	; 0
    30d0:	8c e7       	ldi	r24, 0x7C	; 124
    30d2:	90 e0       	ldi	r25, 0x00	; 0
    30d4:	0e 94 96 13 	call	0x272c	; 0x272c <TFT_Box>
	TFT_Text("DEL",128,264,16,text_color,bg_color);
    30d8:	00 e0       	ldi	r16, 0x00	; 0
    30da:	10 e0       	ldi	r17, 0x00	; 0
    30dc:	20 e1       	ldi	r18, 0x10	; 16
    30de:	48 e0       	ldi	r20, 0x08	; 8
    30e0:	51 e0       	ldi	r21, 0x01	; 1
    30e2:	60 e8       	ldi	r22, 0x80	; 128
    30e4:	70 e0       	ldi	r23, 0x00	; 0
    30e6:	84 e7       	ldi	r24, 0x74	; 116
    30e8:	90 e0       	ldi	r25, 0x00	; 0
    30ea:	0e 94 51 15 	call	0x2aa2	; 0x2aa2 <TFT_Text>
	TFT_Box(181,247,231,297,bg_color);
    30ee:	0f ef       	ldi	r16, 0xFF	; 255
    30f0:	1f ef       	ldi	r17, 0xFF	; 255
    30f2:	29 e2       	ldi	r18, 0x29	; 41
    30f4:	31 e0       	ldi	r19, 0x01	; 1
    30f6:	47 ee       	ldi	r20, 0xE7	; 231
    30f8:	50 e0       	ldi	r21, 0x00	; 0
    30fa:	67 ef       	ldi	r22, 0xF7	; 247
    30fc:	70 e0       	ldi	r23, 0x00	; 0
    30fe:	85 eb       	ldi	r24, 0xB5	; 181
    3100:	90 e0       	ldi	r25, 0x00	; 0
    3102:	0e 94 96 13 	call	0x272c	; 0x272c <TFT_Box>
	TFT_Text("OK",191,264,16,text_color,bg_color);
    3106:	00 e0       	ldi	r16, 0x00	; 0
    3108:	10 e0       	ldi	r17, 0x00	; 0
    310a:	20 e1       	ldi	r18, 0x10	; 16
    310c:	48 e0       	ldi	r20, 0x08	; 8
    310e:	51 e0       	ldi	r21, 0x01	; 1
    3110:	6f eb       	ldi	r22, 0xBF	; 191
    3112:	70 e0       	ldi	r23, 0x00	; 0
    3114:	88 e7       	ldi	r24, 0x78	; 120
    3116:	90 e0       	ldi	r25, 0x00	; 0
    3118:	0e 94 51 15 	call	0x2aa2	; 0x2aa2 <TFT_Text>
	/*********************************************/
	//_________End Button Creatoin_______________//
	/*********************************************/
}
    311c:	1f 91       	pop	r17
    311e:	0f 91       	pop	r16
    3120:	ff 90       	pop	r15
    3122:	ef 90       	pop	r14
    3124:	08 95       	ret

00003126 <__vector_1>:
#include "button.h"

uint32_t i_water=0, i_time=0, compare_time=0;

ISR(INT0_vect)
{
    3126:	1f 92       	push	r1
    3128:	0f 92       	push	r0
    312a:	0f b6       	in	r0, 0x3f	; 63
    312c:	0f 92       	push	r0
    312e:	11 24       	eor	r1, r1
    3130:	8f 93       	push	r24
    3132:	9f 93       	push	r25
    3134:	af 93       	push	r26
    3136:	bf 93       	push	r27
	i_water = i_water + 1;
    3138:	80 91 de 02 	lds	r24, 0x02DE
    313c:	90 91 df 02 	lds	r25, 0x02DF
    3140:	a0 91 e0 02 	lds	r26, 0x02E0
    3144:	b0 91 e1 02 	lds	r27, 0x02E1
    3148:	01 96       	adiw	r24, 0x01	; 1
    314a:	a1 1d       	adc	r26, r1
    314c:	b1 1d       	adc	r27, r1
    314e:	80 93 de 02 	sts	0x02DE, r24
    3152:	90 93 df 02 	sts	0x02DF, r25
    3156:	a0 93 e0 02 	sts	0x02E0, r26
    315a:	b0 93 e1 02 	sts	0x02E1, r27
}
    315e:	bf 91       	pop	r27
    3160:	af 91       	pop	r26
    3162:	9f 91       	pop	r25
    3164:	8f 91       	pop	r24
    3166:	0f 90       	pop	r0
    3168:	0f be       	out	0x3f, r0	; 63
    316a:	0f 90       	pop	r0
    316c:	1f 90       	pop	r1
    316e:	18 95       	reti

00003170 <__vector_7>:
ISR(TIMER1_COMPA_vect)
{
    3170:	1f 92       	push	r1
    3172:	0f 92       	push	r0
    3174:	0f b6       	in	r0, 0x3f	; 63
    3176:	0f 92       	push	r0
    3178:	11 24       	eor	r1, r1
    317a:	8f 93       	push	r24
    317c:	9f 93       	push	r25
    317e:	af 93       	push	r26
    3180:	bf 93       	push	r27
	i_time = i_time + 1;
    3182:	80 91 da 02 	lds	r24, 0x02DA
    3186:	90 91 db 02 	lds	r25, 0x02DB
    318a:	a0 91 dc 02 	lds	r26, 0x02DC
    318e:	b0 91 dd 02 	lds	r27, 0x02DD
    3192:	01 96       	adiw	r24, 0x01	; 1
    3194:	a1 1d       	adc	r26, r1
    3196:	b1 1d       	adc	r27, r1
    3198:	80 93 da 02 	sts	0x02DA, r24
    319c:	90 93 db 02 	sts	0x02DB, r25
    31a0:	a0 93 dc 02 	sts	0x02DC, r26
    31a4:	b0 93 dd 02 	sts	0x02DD, r27
}
    31a8:	bf 91       	pop	r27
    31aa:	af 91       	pop	r26
    31ac:	9f 91       	pop	r25
    31ae:	8f 91       	pop	r24
    31b0:	0f 90       	pop	r0
    31b2:	0f be       	out	0x3f, r0	; 63
    31b4:	0f 90       	pop	r0
    31b6:	1f 90       	pop	r1
    31b8:	18 95       	reti

000031ba <main>:

int main(void)
{
    31ba:	cf 93       	push	r28
    31bc:	df 93       	push	r29
    31be:	cd b7       	in	r28, 0x3d	; 61
    31c0:	de b7       	in	r29, 0x3e	; 62
    31c2:	e0 97       	sbiw	r28, 0x30	; 48
    31c4:	0f b6       	in	r0, 0x3f	; 63
    31c6:	f8 94       	cli
    31c8:	de bf       	out	0x3e, r29	; 62
    31ca:	0f be       	out	0x3f, r0	; 63
    31cc:	cd bf       	out	0x3d, r28	; 61
	#define back_color blue
	uint16_t TPval[2]={0};
    31ce:	19 82       	std	Y+1, r1	; 0x01
    31d0:	1a 82       	std	Y+2, r1	; 0x02
    31d2:	1b 82       	std	Y+3, r1	; 0x03
    31d4:	1c 82       	std	Y+4, r1	; 0x04
	uint16_t mxpos=13;
	uint32_t kp_val=0, water=0, temp=0, time=0;
	uint32_t water_read=0, temp_read=0, time_read=0;
	uint8_t input_f=0;
	
	PORTA=0x00;
    31d6:	1b ba       	out	0x1b, r1	; 27
	PORTB=0x40;
    31d8:	10 e4       	ldi	r17, 0x40	; 64
    31da:	18 bb       	out	0x18, r17	; 24
	PORTC=0x00;
    31dc:	15 ba       	out	0x15, r1	; 21
	PORTD=0x00; //0x0C;
    31de:	12 ba       	out	0x12, r1	; 18
	
	DDRA=0xFE;
    31e0:	8e ef       	ldi	r24, 0xFE	; 254
    31e2:	8a bb       	out	0x1a, r24	; 26
	DDRB=0xBF;
    31e4:	8f eb       	ldi	r24, 0xBF	; 191
    31e6:	87 bb       	out	0x17, r24	; 23
	DDRC=0xFF;
    31e8:	8f ef       	ldi	r24, 0xFF	; 255
    31ea:	84 bb       	out	0x14, r24	; 20
	DDRD=0xF3;
    31ec:	83 ef       	ldi	r24, 0xF3	; 243
    31ee:	81 bb       	out	0x11, r24	; 17
#include <avr/io.h>
#include <util/delay.h>

void adc_init(unsigned char AD_PRSCL)
{
	ADCSRA=0x80 | AD_PRSCL;
    31f0:	87 e8       	ldi	r24, 0x87	; 135
    31f2:	86 b9       	out	0x06, r24	; 6
	
	adc_init(7);
	TFT_Init();
    31f4:	0e 94 5c 12 	call	0x24b8	; 0x24b8 <TFT_Init>
#include "my_spi.h"
#include <util/delay.h>

void TP_init(void)
{
	SPI_MasterInit();
    31f8:	0e 94 f4 16 	call	0x2de8	; 0x2de8 <SPI_MasterInit>
	TP_init();
	//show_button();
	TCCR1A=0x00;
    31fc:	1f bc       	out	0x2f, r1	; 47
	TCCR1B=0x0C;		//Timer counter 1 initialization with CTC and interrupt mode with Compare match OCR1A 
    31fe:	8c e0       	ldi	r24, 0x0C	; 12
    3200:	8e bd       	out	0x2e, r24	; 46
	OCR1AH=0x7A;
    3202:	8a e7       	ldi	r24, 0x7A	; 122
    3204:	8b bd       	out	0x2b, r24	; 43
	OCR1AL=0x12;
    3206:	82 e1       	ldi	r24, 0x12	; 18
    3208:	8a bd       	out	0x2a, r24	; 42

	GICR |= (1<<INT0);				// Enable INT2
    320a:	8b b7       	in	r24, 0x3b	; 59
    320c:	80 64       	ori	r24, 0x40	; 64
    320e:	8b bf       	out	0x3b, r24	; 59
	MCUCSR |= 0x00;					// Trigger INT2 settings
    3210:	84 b7       	in	r24, 0x34	; 52
    3212:	84 bf       	out	0x34, r24	; 52
	MCUCR |= (1<<ISC01)|(1<<ISC00);	//trigger int0 on rising edge
    3214:	85 b7       	in	r24, 0x35	; 53
    3216:	83 60       	ori	r24, 0x03	; 3
    3218:	85 bf       	out	0x35, r24	; 53
	GIFR = (1<<INTF0);				//Interrupt flag 2 is cleared by writing a logical one into INTF2
    321a:	1a bf       	out	0x3a, r17	; 58
	TIMSK=0x10;						//Timer/Counter1, Output Compare A Match Interrupt Enable
    321c:	80 e1       	ldi	r24, 0x10	; 16
    321e:	89 bf       	out	0x39, r24	; 57
	sei();							//Global Interrupt enable
    3220:	78 94       	sei
int main(void)
{
	#define back_color blue
	uint16_t TPval[2]={0};
	uint16_t mxpos=13;
	uint32_t kp_val=0, water=0, temp=0, time=0;
    3222:	19 8e       	std	Y+25, r1	; 0x19
    3224:	1a 8e       	std	Y+26, r1	; 0x1a
    3226:	1b 8e       	std	Y+27, r1	; 0x1b
    3228:	1c 8e       	std	Y+28, r1	; 0x1c
    322a:	1d 8a       	std	Y+21, r1	; 0x15
    322c:	1e 8a       	std	Y+22, r1	; 0x16
    322e:	1f 8a       	std	Y+23, r1	; 0x17
    3230:	18 8e       	std	Y+24, r1	; 0x18
			TFT_PutsInt(Read_ADC(0,0x00),4,200,5,8,blue,white);
			compare_time = i_time;
		}
		if (!(PIND & (1<<PD3)))
		{
			Read_TPval(TPval);
    3232:	8e 01       	movw	r16, r28
    3234:	0f 5f       	subi	r16, 0xFF	; 255
    3236:	1f 4f       	sbci	r17, 0xFF	; 255
    3238:	1e 83       	std	Y+6, r17	; 0x06
    323a:	0d 83       	std	Y+5, r16	; 0x05
				else if (TPval[1]>183 && TPval[1]<236)
				{
					if (input_f == 2)
					{
						water = kp_val;
						kp_val = 0;
    323c:	1e a2       	std	Y+38, r1	; 0x26
    323e:	1f a2       	std	Y+39, r1	; 0x27
    3240:	18 a6       	std	Y+40, r1	; 0x28
    3242:	19 a6       	std	Y+41, r1	; 0x29
	while (!(PIND & (1<<PD3)));  // to eliminate the unwanted button press
	while(1)
	{
		if (!(PIND & (1<<PD3)))
		{
			Read_TPval(TPval);
    3244:	1d 81       	ldd	r17, Y+5	; 0x05
    3246:	1f 87       	std	Y+15, r17	; 0x0f
    3248:	2e 81       	ldd	r18, Y+6	; 0x06
    324a:	28 8b       	std	Y+16, r18	; 0x10
				else if (TPval[1]>183 && TPval[1]<236)
				{
					if (input_f == 2)
					{
						water = kp_val;
						kp_val = 0;
    324c:	30 e0       	ldi	r19, 0x00	; 0
    324e:	3a a7       	std	Y+42, r19	; 0x2a
    3250:	80 e0       	ldi	r24, 0x00	; 0
    3252:	8b a7       	std	Y+43, r24	; 0x2b
    3254:	90 e0       	ldi	r25, 0x00	; 0
    3256:	9c a7       	std	Y+44, r25	; 0x2c
    3258:	a0 e0       	ldi	r26, 0x00	; 0
    325a:	ad a7       	std	Y+45, r26	; 0x2d
	while (!(PIND & (1<<PD3)));  // to eliminate the unwanted button press
	while(1)
	{
		if (!(PIND & (1<<PD3)))
		{
			Read_TPval(TPval);
    325c:	31 2e       	mov	r3, r17
    325e:	22 2e       	mov	r2, r18
	
	
	
start_pgm:	
	//Welcome message and startup
	TFT_Fill(back_color);
    3260:	8f e1       	ldi	r24, 0x1F	; 31
    3262:	90 e0       	ldi	r25, 0x00	; 0
    3264:	0e 94 6f 13 	call	0x26de	; 0x26de <TFT_Fill>
	//TFT_Text("Mark Wash & Dyeing Ltd.",23,30,8,yellow,back_color);
	TFT_Text("ASTEX",75,84,16,white,back_color);
    3268:	0f 2e       	mov	r0, r31
    326a:	ff e1       	ldi	r31, 0x1F	; 31
    326c:	ef 2e       	mov	r14, r31
    326e:	f1 2c       	mov	r15, r1
    3270:	f0 2d       	mov	r31, r0
    3272:	0f ef       	ldi	r16, 0xFF	; 255
    3274:	1f ef       	ldi	r17, 0xFF	; 255
    3276:	20 e1       	ldi	r18, 0x10	; 16
    3278:	44 e5       	ldi	r20, 0x54	; 84
    327a:	50 e0       	ldi	r21, 0x00	; 0
    327c:	6b e4       	ldi	r22, 0x4B	; 75
    327e:	70 e0       	ldi	r23, 0x00	; 0
    3280:	8b e7       	ldi	r24, 0x7B	; 123
    3282:	90 e0       	ldi	r25, 0x00	; 0
    3284:	0e 94 51 15 	call	0x2aa2	; 0x2aa2 <TFT_Text>
	TFT_Box(35,150,195,174,yellow);
    3288:	00 ee       	ldi	r16, 0xE0	; 224
    328a:	1f ef       	ldi	r17, 0xFF	; 255
    328c:	2e ea       	ldi	r18, 0xAE	; 174
    328e:	30 e0       	ldi	r19, 0x00	; 0
    3290:	43 ec       	ldi	r20, 0xC3	; 195
    3292:	50 e0       	ldi	r21, 0x00	; 0
    3294:	66 e9       	ldi	r22, 0x96	; 150
    3296:	70 e0       	ldi	r23, 0x00	; 0
    3298:	83 e2       	ldi	r24, 0x23	; 35
    329a:	90 e0       	ldi	r25, 0x00	; 0
    329c:	0e 94 96 13 	call	0x272c	; 0x272c <TFT_Box>
	TFT_Text("Start Task",45,155,16,blue,yellow);
    32a0:	0f 2e       	mov	r0, r31
    32a2:	f0 ee       	ldi	r31, 0xE0	; 224
    32a4:	ef 2e       	mov	r14, r31
    32a6:	ff 24       	eor	r15, r15
    32a8:	fa 94       	dec	r15
    32aa:	f0 2d       	mov	r31, r0
    32ac:	0f e1       	ldi	r16, 0x1F	; 31
    32ae:	10 e0       	ldi	r17, 0x00	; 0
    32b0:	20 e1       	ldi	r18, 0x10	; 16
    32b2:	4b e9       	ldi	r20, 0x9B	; 155
    32b4:	50 e0       	ldi	r21, 0x00	; 0
    32b6:	6d e2       	ldi	r22, 0x2D	; 45
    32b8:	70 e0       	ldi	r23, 0x00	; 0
    32ba:	81 e8       	ldi	r24, 0x81	; 129
    32bc:	90 e0       	ldi	r25, 0x00	; 0
    32be:	0e 94 51 15 	call	0x2aa2	; 0x2aa2 <TFT_Text>
	TFT_Text("Temperature:",96,5,8,white,blue);
    32c2:	0f 2e       	mov	r0, r31
    32c4:	ff e1       	ldi	r31, 0x1F	; 31
    32c6:	ef 2e       	mov	r14, r31
    32c8:	f1 2c       	mov	r15, r1
    32ca:	f0 2d       	mov	r31, r0
    32cc:	0f ef       	ldi	r16, 0xFF	; 255
    32ce:	1f ef       	ldi	r17, 0xFF	; 255
    32d0:	28 e0       	ldi	r18, 0x08	; 8
    32d2:	45 e0       	ldi	r20, 0x05	; 5
    32d4:	50 e0       	ldi	r21, 0x00	; 0
    32d6:	60 e6       	ldi	r22, 0x60	; 96
    32d8:	70 e0       	ldi	r23, 0x00	; 0
    32da:	8c e8       	ldi	r24, 0x8C	; 140
    32dc:	90 e0       	ldi	r25, 0x00	; 0
    32de:	0e 94 51 15 	call	0x2aa2	; 0x2aa2 <TFT_Text>
	TFT_Image(180,265,50,50,image_data_astex_logo);
    32e2:	04 e4       	ldi	r16, 0x44	; 68
    32e4:	1f e0       	ldi	r17, 0x0F	; 15
    32e6:	22 e3       	ldi	r18, 0x32	; 50
    32e8:	30 e0       	ldi	r19, 0x00	; 0
    32ea:	42 e3       	ldi	r20, 0x32	; 50
    32ec:	50 e0       	ldi	r21, 0x00	; 0
    32ee:	69 e0       	ldi	r22, 0x09	; 9
    32f0:	71 e0       	ldi	r23, 0x01	; 1
    32f2:	84 eb       	ldi	r24, 0xB4	; 180
    32f4:	90 e0       	ldi	r25, 0x00	; 0
    32f6:	0e 94 9b 16 	call	0x2d36	; 0x2d36 <TFT_Image>
	TFT_Rectangle(179,264,230,315,white);
    32fa:	0f ef       	ldi	r16, 0xFF	; 255
    32fc:	1f ef       	ldi	r17, 0xFF	; 255
    32fe:	2b e3       	ldi	r18, 0x3B	; 59
    3300:	31 e0       	ldi	r19, 0x01	; 1
    3302:	46 ee       	ldi	r20, 0xE6	; 230
    3304:	50 e0       	ldi	r21, 0x00	; 0
    3306:	68 e0       	ldi	r22, 0x08	; 8
    3308:	71 e0       	ldi	r23, 0x01	; 1
    330a:	83 eb       	ldi	r24, 0xB3	; 179
    330c:	90 e0       	ldi	r25, 0x00	; 0
    330e:	0e 94 1b 14 	call	0x2836	; 0x2836 <TFT_Rectangle>

	while (1)
	{
		if (compare_time != i_time)
    3312:	40 91 d6 02 	lds	r20, 0x02D6
    3316:	50 91 d7 02 	lds	r21, 0x02D7
    331a:	60 91 d8 02 	lds	r22, 0x02D8
    331e:	70 91 d9 02 	lds	r23, 0x02D9
    3322:	80 91 da 02 	lds	r24, 0x02DA
    3326:	90 91 db 02 	lds	r25, 0x02DB
    332a:	a0 91 dc 02 	lds	r26, 0x02DC
    332e:	b0 91 dd 02 	lds	r27, 0x02DD
    3332:	48 17       	cp	r20, r24
    3334:	59 07       	cpc	r21, r25
    3336:	6a 07       	cpc	r22, r26
    3338:	7b 07       	cpc	r23, r27
    333a:	51 f1       	breq	.+84     	; 0x3390 <main+0x1d6>
		{
			TFT_PutsInt(Read_ADC(0,0x00),4,200,5,8,blue,white);
    333c:	60 e0       	ldi	r22, 0x00	; 0
    333e:	80 e0       	ldi	r24, 0x00	; 0
    3340:	0e 94 59 17 	call	0x2eb2	; 0x2eb2 <Read_ADC>
    3344:	bc 01       	movw	r22, r24
    3346:	80 e0       	ldi	r24, 0x00	; 0
    3348:	90 e0       	ldi	r25, 0x00	; 0
    334a:	aa 24       	eor	r10, r10
    334c:	aa 94       	dec	r10
    334e:	ba 2c       	mov	r11, r10
    3350:	0f 2e       	mov	r0, r31
    3352:	ff e1       	ldi	r31, 0x1F	; 31
    3354:	cf 2e       	mov	r12, r31
    3356:	d1 2c       	mov	r13, r1
    3358:	f0 2d       	mov	r31, r0
    335a:	68 94       	set
    335c:	ee 24       	eor	r14, r14
    335e:	e3 f8       	bld	r14, 3
    3360:	05 e0       	ldi	r16, 0x05	; 5
    3362:	10 e0       	ldi	r17, 0x00	; 0
    3364:	28 ec       	ldi	r18, 0xC8	; 200
    3366:	30 e0       	ldi	r19, 0x00	; 0
    3368:	44 e0       	ldi	r20, 0x04	; 4
    336a:	50 e0       	ldi	r21, 0x00	; 0
    336c:	0e 94 e4 15 	call	0x2bc8	; 0x2bc8 <TFT_PutsInt>
			compare_time = i_time;
    3370:	80 91 da 02 	lds	r24, 0x02DA
    3374:	90 91 db 02 	lds	r25, 0x02DB
    3378:	a0 91 dc 02 	lds	r26, 0x02DC
    337c:	b0 91 dd 02 	lds	r27, 0x02DD
    3380:	80 93 d6 02 	sts	0x02D6, r24
    3384:	90 93 d7 02 	sts	0x02D7, r25
    3388:	a0 93 d8 02 	sts	0x02D8, r26
    338c:	b0 93 d9 02 	sts	0x02D9, r27
		}
		if (!(PIND & (1<<PD3)))
    3390:	83 99       	sbic	0x10, 3	; 16
    3392:	bf cf       	rjmp	.-130    	; 0x3312 <main+0x158>
		{
			Read_TPval(TPval);
    3394:	ce 01       	movw	r24, r28
    3396:	01 96       	adiw	r24, 0x01	; 1
    3398:	0e 94 49 17 	call	0x2e92	; 0x2e92 <Read_TPval>
	#else
		//round up by default
		__ticks_dc = (uint32_t)(ceil(fabs(__tmp)));
	#endif

	__builtin_avr_delay_cycles(__ticks_dc);
    339c:	8f e1       	ldi	r24, 0x1F	; 31
    339e:	9e e4       	ldi	r25, 0x4E	; 78
    33a0:	01 97       	sbiw	r24, 0x01	; 1
    33a2:	f1 f7       	brne	.-4      	; 0x33a0 <main+0x1e6>
    33a4:	00 c0       	rjmp	.+0      	; 0x33a6 <main+0x1ec>
    33a6:	00 00       	nop
			_delay_ms(10);
			Read_TPval(TPval);
    33a8:	ce 01       	movw	r24, r28
    33aa:	01 96       	adiw	r24, 0x01	; 1
    33ac:	0e 94 49 17 	call	0x2e92	; 0x2e92 <Read_TPval>
			//TFT_PutsInt(TPval[0],4,0,0,8,blue,white);
			//TFT_PutsInt(TPval[1],4,40,0,8,blue,white);
			if (TPval[0]>120 && TPval[0]<150 && TPval[1]>51 && TPval[1]<201)  // button for start task
    33b0:	89 81       	ldd	r24, Y+1	; 0x01
    33b2:	9a 81       	ldd	r25, Y+2	; 0x02
    33b4:	89 57       	subi	r24, 0x79	; 121
    33b6:	91 09       	sbc	r25, r1
    33b8:	4d 97       	sbiw	r24, 0x1d	; 29
    33ba:	30 f4       	brcc	.+12     	; 0x33c8 <main+0x20e>
    33bc:	8b 81       	ldd	r24, Y+3	; 0x03
    33be:	9c 81       	ldd	r25, Y+4	; 0x04
    33c0:	c4 97       	sbiw	r24, 0x34	; 52
    33c2:	85 39       	cpi	r24, 0x95	; 149
    33c4:	91 05       	cpc	r25, r1
    33c6:	50 f0       	brcs	.+20     	; 0x33dc <main+0x222>
    33c8:	9f ef       	ldi	r25, 0xFF	; 255
    33ca:	a0 e7       	ldi	r26, 0x70	; 112
    33cc:	b2 e0       	ldi	r27, 0x02	; 2
    33ce:	91 50       	subi	r25, 0x01	; 1
    33d0:	a0 40       	sbci	r26, 0x00	; 0
    33d2:	b0 40       	sbci	r27, 0x00	; 0
    33d4:	e1 f7       	brne	.-8      	; 0x33ce <main+0x214>
    33d6:	00 c0       	rjmp	.+0      	; 0x33d8 <main+0x21e>
    33d8:	00 00       	nop
    33da:	9b cf       	rjmp	.-202    	; 0x3312 <main+0x158>
	}
		//for manual input show the button
	TFT_Fill(back_color);
	show_button();
	input_f = 1;
	while (!(PIND & (1<<PD3)));  // to eliminate the unwanted button press
    33dc:	51 2c       	mov	r5, r1
		{
			TFT_Box(10,69,231,101,white);
			TFT_Box(10,20,231,54,back_color);
			TFT_Text("Input Time ... ",10,20,16,white,back_color);
			TFT_Text("(Minute)",10,38,16,white,back_color);
			input_f = 6;
    33de:	0f 2e       	mov	r0, r31
    33e0:	f6 e0       	ldi	r31, 0x06	; 6
    33e2:	4f 2e       	mov	r4, r31
    33e4:	f0 2d       	mov	r31, r0
				{
					if (input_f == 2)
					{
						water = kp_val;
						kp_val = 0;
						mxpos = 13;
    33e6:	0d e0       	ldi	r16, 0x0D	; 13
    33e8:	0f 83       	std	Y+7, r16	; 0x07
    33ea:	5b 86       	std	Y+11, r5	; 0x0b
	}
	//End welcome message and startup
	
	//Start task input/selection system
selection:
	TFT_Fill(back_color);
    33ec:	8f e1       	ldi	r24, 0x1F	; 31
    33ee:	90 e0       	ldi	r25, 0x00	; 0
    33f0:	0e 94 6f 13 	call	0x26de	; 0x26de <TFT_Fill>
	TFT_Text("Choose an option...",23,20,8,white,back_color);
    33f4:	0f 2e       	mov	r0, r31
    33f6:	ff e1       	ldi	r31, 0x1F	; 31
    33f8:	ef 2e       	mov	r14, r31
    33fa:	f1 2c       	mov	r15, r1
    33fc:	f0 2d       	mov	r31, r0
    33fe:	0f ef       	ldi	r16, 0xFF	; 255
    3400:	1f ef       	ldi	r17, 0xFF	; 255
    3402:	28 e0       	ldi	r18, 0x08	; 8
    3404:	44 e1       	ldi	r20, 0x14	; 20
    3406:	50 e0       	ldi	r21, 0x00	; 0
    3408:	67 e1       	ldi	r22, 0x17	; 23
    340a:	70 e0       	ldi	r23, 0x00	; 0
    340c:	89 e9       	ldi	r24, 0x99	; 153
    340e:	90 e0       	ldi	r25, 0x00	; 0
    3410:	0e 94 51 15 	call	0x2aa2	; 0x2aa2 <TFT_Text>
	TFT_Box(27,45,203,62,yellow);
    3414:	00 ee       	ldi	r16, 0xE0	; 224
    3416:	1f ef       	ldi	r17, 0xFF	; 255
    3418:	2e e3       	ldi	r18, 0x3E	; 62
    341a:	30 e0       	ldi	r19, 0x00	; 0
    341c:	4b ec       	ldi	r20, 0xCB	; 203
    341e:	50 e0       	ldi	r21, 0x00	; 0
    3420:	6d e2       	ldi	r22, 0x2D	; 45
    3422:	70 e0       	ldi	r23, 0x00	; 0
    3424:	8b e1       	ldi	r24, 0x1B	; 27
    3426:	90 e0       	ldi	r25, 0x00	; 0
    3428:	0e 94 96 13 	call	0x272c	; 0x272c <TFT_Box>
	TFT_Text("70Lit. _ 25'C _ 2min",35,50,8,black,yellow);
    342c:	0f 2e       	mov	r0, r31
    342e:	f0 ee       	ldi	r31, 0xE0	; 224
    3430:	ef 2e       	mov	r14, r31
    3432:	ff 24       	eor	r15, r15
    3434:	fa 94       	dec	r15
    3436:	f0 2d       	mov	r31, r0
    3438:	00 e0       	ldi	r16, 0x00	; 0
    343a:	10 e0       	ldi	r17, 0x00	; 0
    343c:	28 e0       	ldi	r18, 0x08	; 8
    343e:	42 e3       	ldi	r20, 0x32	; 50
    3440:	50 e0       	ldi	r21, 0x00	; 0
    3442:	63 e2       	ldi	r22, 0x23	; 35
    3444:	70 e0       	ldi	r23, 0x00	; 0
    3446:	8d ea       	ldi	r24, 0xAD	; 173
    3448:	90 e0       	ldi	r25, 0x00	; 0
    344a:	0e 94 51 15 	call	0x2aa2	; 0x2aa2 <TFT_Text>
	TFT_Box(27,80,203,97,yellow);
    344e:	00 ee       	ldi	r16, 0xE0	; 224
    3450:	1f ef       	ldi	r17, 0xFF	; 255
    3452:	21 e6       	ldi	r18, 0x61	; 97
    3454:	30 e0       	ldi	r19, 0x00	; 0
    3456:	4b ec       	ldi	r20, 0xCB	; 203
    3458:	50 e0       	ldi	r21, 0x00	; 0
    345a:	60 e5       	ldi	r22, 0x50	; 80
    345c:	70 e0       	ldi	r23, 0x00	; 0
    345e:	8b e1       	ldi	r24, 0x1B	; 27
    3460:	90 e0       	ldi	r25, 0x00	; 0
    3462:	0e 94 96 13 	call	0x272c	; 0x272c <TFT_Box>
	TFT_Text("70Lit. _ 50'C _ 2min",35,85,8,black,yellow);
    3466:	00 e0       	ldi	r16, 0x00	; 0
    3468:	10 e0       	ldi	r17, 0x00	; 0
    346a:	28 e0       	ldi	r18, 0x08	; 8
    346c:	45 e5       	ldi	r20, 0x55	; 85
    346e:	50 e0       	ldi	r21, 0x00	; 0
    3470:	63 e2       	ldi	r22, 0x23	; 35
    3472:	70 e0       	ldi	r23, 0x00	; 0
    3474:	82 ec       	ldi	r24, 0xC2	; 194
    3476:	90 e0       	ldi	r25, 0x00	; 0
    3478:	0e 94 51 15 	call	0x2aa2	; 0x2aa2 <TFT_Text>
	TFT_Box(27,115,203,132,yellow);
    347c:	00 ee       	ldi	r16, 0xE0	; 224
    347e:	1f ef       	ldi	r17, 0xFF	; 255
    3480:	24 e8       	ldi	r18, 0x84	; 132
    3482:	30 e0       	ldi	r19, 0x00	; 0
    3484:	4b ec       	ldi	r20, 0xCB	; 203
    3486:	50 e0       	ldi	r21, 0x00	; 0
    3488:	63 e7       	ldi	r22, 0x73	; 115
    348a:	70 e0       	ldi	r23, 0x00	; 0
    348c:	8b e1       	ldi	r24, 0x1B	; 27
    348e:	90 e0       	ldi	r25, 0x00	; 0
    3490:	0e 94 96 13 	call	0x272c	; 0x272c <TFT_Box>
	TFT_Text("50Lit. _ 50'C _ 2min",35,120,8,black,yellow);
    3494:	00 e0       	ldi	r16, 0x00	; 0
    3496:	10 e0       	ldi	r17, 0x00	; 0
    3498:	28 e0       	ldi	r18, 0x08	; 8
    349a:	48 e7       	ldi	r20, 0x78	; 120
    349c:	50 e0       	ldi	r21, 0x00	; 0
    349e:	63 e2       	ldi	r22, 0x23	; 35
    34a0:	70 e0       	ldi	r23, 0x00	; 0
    34a2:	87 ed       	ldi	r24, 0xD7	; 215
    34a4:	90 e0       	ldi	r25, 0x00	; 0
    34a6:	0e 94 51 15 	call	0x2aa2	; 0x2aa2 <TFT_Text>
	TFT_Box(27,150,203,167,yellow);
    34aa:	00 ee       	ldi	r16, 0xE0	; 224
    34ac:	1f ef       	ldi	r17, 0xFF	; 255
    34ae:	27 ea       	ldi	r18, 0xA7	; 167
    34b0:	30 e0       	ldi	r19, 0x00	; 0
    34b2:	4b ec       	ldi	r20, 0xCB	; 203
    34b4:	50 e0       	ldi	r21, 0x00	; 0
    34b6:	66 e9       	ldi	r22, 0x96	; 150
    34b8:	70 e0       	ldi	r23, 0x00	; 0
    34ba:	8b e1       	ldi	r24, 0x1B	; 27
    34bc:	90 e0       	ldi	r25, 0x00	; 0
    34be:	0e 94 96 13 	call	0x272c	; 0x272c <TFT_Box>
	TFT_Text("60Lit. _ 50'C _ 2min",35,155,8,black,yellow);
    34c2:	00 e0       	ldi	r16, 0x00	; 0
    34c4:	10 e0       	ldi	r17, 0x00	; 0
    34c6:	28 e0       	ldi	r18, 0x08	; 8
    34c8:	4b e9       	ldi	r20, 0x9B	; 155
    34ca:	50 e0       	ldi	r21, 0x00	; 0
    34cc:	63 e2       	ldi	r22, 0x23	; 35
    34ce:	70 e0       	ldi	r23, 0x00	; 0
    34d0:	8c ee       	ldi	r24, 0xEC	; 236
    34d2:	90 e0       	ldi	r25, 0x00	; 0
    34d4:	0e 94 51 15 	call	0x2aa2	; 0x2aa2 <TFT_Text>
	TFT_Box(27,188,203,228,red);
    34d8:	00 e0       	ldi	r16, 0x00	; 0
    34da:	18 ef       	ldi	r17, 0xF8	; 248
    34dc:	24 ee       	ldi	r18, 0xE4	; 228
    34de:	30 e0       	ldi	r19, 0x00	; 0
    34e0:	4b ec       	ldi	r20, 0xCB	; 203
    34e2:	50 e0       	ldi	r21, 0x00	; 0
    34e4:	6c eb       	ldi	r22, 0xBC	; 188
    34e6:	70 e0       	ldi	r23, 0x00	; 0
    34e8:	8b e1       	ldi	r24, 0x1B	; 27
    34ea:	90 e0       	ldi	r25, 0x00	; 0
    34ec:	0e 94 96 13 	call	0x272c	; 0x272c <TFT_Box>
	TFT_Text("Manual Input",31,199,16,white,red);
    34f0:	0f 2e       	mov	r0, r31
    34f2:	e1 2c       	mov	r14, r1
    34f4:	f8 ef       	ldi	r31, 0xF8	; 248
    34f6:	ff 2e       	mov	r15, r31
    34f8:	f0 2d       	mov	r31, r0
    34fa:	0f ef       	ldi	r16, 0xFF	; 255
    34fc:	1f ef       	ldi	r17, 0xFF	; 255
    34fe:	20 e1       	ldi	r18, 0x10	; 16
    3500:	47 ec       	ldi	r20, 0xC7	; 199
    3502:	50 e0       	ldi	r21, 0x00	; 0
    3504:	6f e1       	ldi	r22, 0x1F	; 31
    3506:	70 e0       	ldi	r23, 0x00	; 0
    3508:	81 e0       	ldi	r24, 0x01	; 1
    350a:	91 e0       	ldi	r25, 0x01	; 1
    350c:	0e 94 51 15 	call	0x2aa2	; 0x2aa2 <TFT_Text>
	while (!(PIND & (1<<PD3)));  // to eliminate the unwanted button press
    3510:	83 9b       	sbis	0x10, 3	; 16
    3512:	fe cf       	rjmp	.-4      	; 0x3510 <main+0x356>
	while (1)
	{
		if (!(PIND & (1<<PD3)))
    3514:	83 99       	sbic	0x10, 3	; 16
    3516:	fe cf       	rjmp	.-4      	; 0x3514 <main+0x35a>
		{
			Read_TPval(TPval);
    3518:	8f 85       	ldd	r24, Y+15	; 0x0f
    351a:	98 89       	ldd	r25, Y+16	; 0x10
    351c:	0e 94 49 17 	call	0x2e92	; 0x2e92 <Read_TPval>
    3520:	8f e1       	ldi	r24, 0x1F	; 31
    3522:	9e e4       	ldi	r25, 0x4E	; 78
    3524:	01 97       	sbiw	r24, 0x01	; 1
    3526:	f1 f7       	brne	.-4      	; 0x3524 <main+0x36a>
    3528:	00 c0       	rjmp	.+0      	; 0x352a <main+0x370>
    352a:	00 00       	nop
			_delay_ms(10);
			Read_TPval(TPval);
    352c:	8f 85       	ldd	r24, Y+15	; 0x0f
    352e:	98 89       	ldd	r25, Y+16	; 0x10
    3530:	0e 94 49 17 	call	0x2e92	; 0x2e92 <Read_TPval>
			//TFT_PutsInt(TPval[0],4,0,0,8,blue,white);
			//TFT_PutsInt(TPval[1],4,40,0,8,blue,white);
			if (TPval[1]>35 && TPval[1]<211)  // for taking predefined or manual input
    3534:	8b 81       	ldd	r24, Y+3	; 0x03
    3536:	9c 81       	ldd	r25, Y+4	; 0x04
    3538:	84 97       	sbiw	r24, 0x24	; 36
    353a:	8f 3a       	cpi	r24, 0xAF	; 175
    353c:	91 05       	cpc	r25, r1
    353e:	f8 f4       	brcc	.+62     	; 0x357e <main+0x3c4>
			{
				if (TPval[0]>197 && TPval[0]<216)
    3540:	89 81       	ldd	r24, Y+1	; 0x01
    3542:	9a 81       	ldd	r25, Y+2	; 0x02
    3544:	9c 01       	movw	r18, r24
    3546:	26 5c       	subi	r18, 0xC6	; 198
    3548:	31 09       	sbc	r19, r1
    354a:	22 31       	cpi	r18, 0x12	; 18
    354c:	31 05       	cpc	r19, r1
    354e:	08 f4       	brcc	.+2      	; 0x3552 <main+0x398>
    3550:	3e c3       	rjmp	.+1660   	; 0x3bce <main+0xa14>
					water = 70;
					temp = 25;
					time = 2;
					goto confirmation;
				}
				else if (TPval[0]>175 && TPval[0]<190)
    3552:	2a 5e       	subi	r18, 0xEA	; 234
    3554:	3f 4f       	sbci	r19, 0xFF	; 255
    3556:	2e 30       	cpi	r18, 0x0E	; 14
    3558:	31 05       	cpc	r19, r1
    355a:	08 f4       	brcc	.+2      	; 0x355e <main+0x3a4>
    355c:	49 c3       	rjmp	.+1682   	; 0x3bf0 <main+0xa36>
					water = 70;
					temp = 50;
					time = 2;
					goto confirmation;
				}
				else if (TPval[0]>148 && TPval[0]<167)
    355e:	25 5e       	subi	r18, 0xE5	; 229
    3560:	3f 4f       	sbci	r19, 0xFF	; 255
    3562:	22 31       	cpi	r18, 0x12	; 18
    3564:	31 05       	cpc	r19, r1
    3566:	08 f4       	brcc	.+2      	; 0x356a <main+0x3b0>
    3568:	54 c3       	rjmp	.+1704   	; 0x3c12 <main+0xa58>
					water = 50;
					temp = 50;
					time = 2;
					goto confirmation;
				}
				else if (TPval[0]>127 && TPval[0]<144)
    356a:	2b 5e       	subi	r18, 0xEB	; 235
    356c:	3f 4f       	sbci	r19, 0xFF	; 255
    356e:	20 31       	cpi	r18, 0x10	; 16
    3570:	31 05       	cpc	r19, r1
    3572:	08 f4       	brcc	.+2      	; 0x3576 <main+0x3bc>
    3574:	5f c3       	rjmp	.+1726   	; 0x3c34 <main+0xa7a>
					water = 60;
					temp = 50;
					time = 2;
					goto confirmation;
				}
				else if (TPval[0]>83 && TPval[0]<116)  //button for manual input
    3576:	84 55       	subi	r24, 0x54	; 84
    3578:	91 09       	sbc	r25, r1
    357a:	80 97       	sbiw	r24, 0x20	; 32
    357c:	50 f0       	brcs	.+20     	; 0x3592 <main+0x3d8>
    357e:	9f ef       	ldi	r25, 0xFF	; 255
    3580:	a0 e7       	ldi	r26, 0x70	; 112
    3582:	b2 e0       	ldi	r27, 0x02	; 2
    3584:	91 50       	subi	r25, 0x01	; 1
    3586:	a0 40       	sbci	r26, 0x00	; 0
    3588:	b0 40       	sbci	r27, 0x00	; 0
    358a:	e1 f7       	brne	.-8      	; 0x3584 <main+0x3ca>
    358c:	00 c0       	rjmp	.+0      	; 0x358e <main+0x3d4>
    358e:	00 00       	nop
    3590:	c1 cf       	rjmp	.-126    	; 0x3514 <main+0x35a>
			}
			_delay_ms(100);
		}
	}
		//for manual input show the button
	TFT_Fill(back_color);
    3592:	8f e1       	ldi	r24, 0x1F	; 31
    3594:	90 e0       	ldi	r25, 0x00	; 0
    3596:	0e 94 6f 13 	call	0x26de	; 0x26de <TFT_Fill>
	show_button();
    359a:	0e 94 73 17 	call	0x2ee6	; 0x2ee6 <show_button>
	input_f = 1;
	while (!(PIND & (1<<PD3)));  // to eliminate the unwanted button press
    359e:	83 9b       	sbis	0x10, 3	; 16
    35a0:	fe cf       	rjmp	.-4      	; 0x359e <main+0x3e4>
    35a2:	dd 24       	eor	r13, r13
    35a4:	d3 94       	inc	r13
    35a6:	6e a0       	ldd	r6, Y+38	; 0x26
    35a8:	7f a0       	ldd	r7, Y+39	; 0x27
    35aa:	88 a4       	ldd	r8, Y+40	; 0x28
    35ac:	99 a4       	ldd	r9, Y+41	; 0x29
    35ae:	0f 2e       	mov	r0, r31
    35b0:	fd e0       	ldi	r31, 0x0D	; 13
    35b2:	af 2e       	mov	r10, r31
    35b4:	f0 2d       	mov	r31, r0
    35b6:	b5 2c       	mov	r11, r5
		if (input_f == 1)
		{
			TFT_Box(10,69,231,101,white);
			TFT_Text("Input Water ...",10,20,16,white,back_color);
			TFT_Text("(Liter)  ",10,38,16,white,back_color);
			input_f = 2;
    35b8:	68 94       	set
    35ba:	cc 24       	eor	r12, r12
    35bc:	c1 f8       	bld	r12, 1
					else if (input_f == 4)
					{
						temp = kp_val;
						kp_val = 0;
						mxpos = 13;
						input_f = 5;
    35be:	39 8a       	std	Y+17, r3	; 0x11
    35c0:	3f 84       	ldd	r3, Y+15	; 0x0f
    35c2:	2d 8e       	std	Y+29, r2	; 0x1d
    35c4:	28 88       	ldd	r2, Y+16	; 0x10
    35c6:	8d 2d       	mov	r24, r13
	show_button();
	input_f = 1;
	while (!(PIND & (1<<PD3)));  // to eliminate the unwanted button press
	while(1)
	{
		if (input_f == 1)
    35c8:	81 30       	cpi	r24, 0x01	; 1
    35ca:	29 f5       	brne	.+74     	; 0x3616 <main+0x45c>
		{
			TFT_Box(10,69,231,101,white);
    35cc:	0f ef       	ldi	r16, 0xFF	; 255
    35ce:	1f ef       	ldi	r17, 0xFF	; 255
    35d0:	25 e6       	ldi	r18, 0x65	; 101
    35d2:	30 e0       	ldi	r19, 0x00	; 0
    35d4:	47 ee       	ldi	r20, 0xE7	; 231
    35d6:	50 e0       	ldi	r21, 0x00	; 0
    35d8:	65 e4       	ldi	r22, 0x45	; 69
    35da:	70 e0       	ldi	r23, 0x00	; 0
    35dc:	8a e0       	ldi	r24, 0x0A	; 10
    35de:	90 e0       	ldi	r25, 0x00	; 0
    35e0:	0e 94 96 13 	call	0x272c	; 0x272c <TFT_Box>
			TFT_Text("Input Water ...",10,20,16,white,back_color);
    35e4:	0f 2e       	mov	r0, r31
    35e6:	ff e1       	ldi	r31, 0x1F	; 31
    35e8:	ef 2e       	mov	r14, r31
    35ea:	f1 2c       	mov	r15, r1
    35ec:	f0 2d       	mov	r31, r0
    35ee:	20 e1       	ldi	r18, 0x10	; 16
    35f0:	44 e1       	ldi	r20, 0x14	; 20
    35f2:	50 e0       	ldi	r21, 0x00	; 0
    35f4:	6a e0       	ldi	r22, 0x0A	; 10
    35f6:	70 e0       	ldi	r23, 0x00	; 0
    35f8:	8e e0       	ldi	r24, 0x0E	; 14
    35fa:	91 e0       	ldi	r25, 0x01	; 1
    35fc:	0e 94 51 15 	call	0x2aa2	; 0x2aa2 <TFT_Text>
			TFT_Text("(Liter)  ",10,38,16,white,back_color);
    3600:	20 e1       	ldi	r18, 0x10	; 16
    3602:	46 e2       	ldi	r20, 0x26	; 38
    3604:	50 e0       	ldi	r21, 0x00	; 0
    3606:	6a e0       	ldi	r22, 0x0A	; 10
    3608:	70 e0       	ldi	r23, 0x00	; 0
    360a:	8e e1       	ldi	r24, 0x1E	; 30
    360c:	91 e0       	ldi	r25, 0x01	; 1
    360e:	0e 94 51 15 	call	0x2aa2	; 0x2aa2 <TFT_Text>
			input_f = 2;
    3612:	8c 2d       	mov	r24, r12
    3614:	69 c0       	rjmp	.+210    	; 0x36e8 <main+0x52e>
		}
		else if (input_f == 3)
    3616:	83 30       	cpi	r24, 0x03	; 3
    3618:	99 f5       	brne	.+102    	; 0x3680 <main+0x4c6>
		{
			TFT_Box(10,69,231,101,white);
    361a:	0f ef       	ldi	r16, 0xFF	; 255
    361c:	1f ef       	ldi	r17, 0xFF	; 255
    361e:	25 e6       	ldi	r18, 0x65	; 101
    3620:	30 e0       	ldi	r19, 0x00	; 0
    3622:	47 ee       	ldi	r20, 0xE7	; 231
    3624:	50 e0       	ldi	r21, 0x00	; 0
    3626:	65 e4       	ldi	r22, 0x45	; 69
    3628:	70 e0       	ldi	r23, 0x00	; 0
    362a:	8a e0       	ldi	r24, 0x0A	; 10
    362c:	90 e0       	ldi	r25, 0x00	; 0
    362e:	0e 94 96 13 	call	0x272c	; 0x272c <TFT_Box>
			TFT_Box(10,20,231,54,back_color);
    3632:	0f e1       	ldi	r16, 0x1F	; 31
    3634:	10 e0       	ldi	r17, 0x00	; 0
    3636:	26 e3       	ldi	r18, 0x36	; 54
    3638:	30 e0       	ldi	r19, 0x00	; 0
    363a:	47 ee       	ldi	r20, 0xE7	; 231
    363c:	50 e0       	ldi	r21, 0x00	; 0
    363e:	64 e1       	ldi	r22, 0x14	; 20
    3640:	70 e0       	ldi	r23, 0x00	; 0
    3642:	8a e0       	ldi	r24, 0x0A	; 10
    3644:	90 e0       	ldi	r25, 0x00	; 0
    3646:	0e 94 96 13 	call	0x272c	; 0x272c <TFT_Box>
			TFT_Text("Input Temp ... ",10,20,16,white,back_color);
    364a:	0f 2e       	mov	r0, r31
    364c:	ff e1       	ldi	r31, 0x1F	; 31
    364e:	ef 2e       	mov	r14, r31
    3650:	f1 2c       	mov	r15, r1
    3652:	f0 2d       	mov	r31, r0
    3654:	0f ef       	ldi	r16, 0xFF	; 255
    3656:	1f ef       	ldi	r17, 0xFF	; 255
    3658:	20 e1       	ldi	r18, 0x10	; 16
    365a:	44 e1       	ldi	r20, 0x14	; 20
    365c:	50 e0       	ldi	r21, 0x00	; 0
    365e:	6a e0       	ldi	r22, 0x0A	; 10
    3660:	70 e0       	ldi	r23, 0x00	; 0
    3662:	88 e2       	ldi	r24, 0x28	; 40
    3664:	91 e0       	ldi	r25, 0x01	; 1
    3666:	0e 94 51 15 	call	0x2aa2	; 0x2aa2 <TFT_Text>
			TFT_Text("(Deg. C) ",10,38,16,white,back_color);
    366a:	20 e1       	ldi	r18, 0x10	; 16
    366c:	46 e2       	ldi	r20, 0x26	; 38
    366e:	50 e0       	ldi	r21, 0x00	; 0
    3670:	6a e0       	ldi	r22, 0x0A	; 10
    3672:	70 e0       	ldi	r23, 0x00	; 0
    3674:	88 e3       	ldi	r24, 0x38	; 56
    3676:	91 e0       	ldi	r25, 0x01	; 1
    3678:	0e 94 51 15 	call	0x2aa2	; 0x2aa2 <TFT_Text>
			input_f = 4;
    367c:	84 e0       	ldi	r24, 0x04	; 4
    367e:	34 c0       	rjmp	.+104    	; 0x36e8 <main+0x52e>
		}
		else if (input_f == 5)
    3680:	85 30       	cpi	r24, 0x05	; 5
    3682:	91 f5       	brne	.+100    	; 0x36e8 <main+0x52e>
		{
			TFT_Box(10,69,231,101,white);
    3684:	0f ef       	ldi	r16, 0xFF	; 255
    3686:	1f ef       	ldi	r17, 0xFF	; 255
    3688:	25 e6       	ldi	r18, 0x65	; 101
    368a:	30 e0       	ldi	r19, 0x00	; 0
    368c:	47 ee       	ldi	r20, 0xE7	; 231
    368e:	50 e0       	ldi	r21, 0x00	; 0
    3690:	65 e4       	ldi	r22, 0x45	; 69
    3692:	70 e0       	ldi	r23, 0x00	; 0
    3694:	8a e0       	ldi	r24, 0x0A	; 10
    3696:	90 e0       	ldi	r25, 0x00	; 0
    3698:	0e 94 96 13 	call	0x272c	; 0x272c <TFT_Box>
			TFT_Box(10,20,231,54,back_color);
    369c:	0f e1       	ldi	r16, 0x1F	; 31
    369e:	10 e0       	ldi	r17, 0x00	; 0
    36a0:	26 e3       	ldi	r18, 0x36	; 54
    36a2:	30 e0       	ldi	r19, 0x00	; 0
    36a4:	47 ee       	ldi	r20, 0xE7	; 231
    36a6:	50 e0       	ldi	r21, 0x00	; 0
    36a8:	64 e1       	ldi	r22, 0x14	; 20
    36aa:	70 e0       	ldi	r23, 0x00	; 0
    36ac:	8a e0       	ldi	r24, 0x0A	; 10
    36ae:	90 e0       	ldi	r25, 0x00	; 0
    36b0:	0e 94 96 13 	call	0x272c	; 0x272c <TFT_Box>
			TFT_Text("Input Time ... ",10,20,16,white,back_color);
    36b4:	0f 2e       	mov	r0, r31
    36b6:	ff e1       	ldi	r31, 0x1F	; 31
    36b8:	ef 2e       	mov	r14, r31
    36ba:	f1 2c       	mov	r15, r1
    36bc:	f0 2d       	mov	r31, r0
    36be:	0f ef       	ldi	r16, 0xFF	; 255
    36c0:	1f ef       	ldi	r17, 0xFF	; 255
    36c2:	20 e1       	ldi	r18, 0x10	; 16
    36c4:	44 e1       	ldi	r20, 0x14	; 20
    36c6:	50 e0       	ldi	r21, 0x00	; 0
    36c8:	6a e0       	ldi	r22, 0x0A	; 10
    36ca:	70 e0       	ldi	r23, 0x00	; 0
    36cc:	82 e4       	ldi	r24, 0x42	; 66
    36ce:	91 e0       	ldi	r25, 0x01	; 1
    36d0:	0e 94 51 15 	call	0x2aa2	; 0x2aa2 <TFT_Text>
			TFT_Text("(Minute)",10,38,16,white,back_color);
    36d4:	20 e1       	ldi	r18, 0x10	; 16
    36d6:	46 e2       	ldi	r20, 0x26	; 38
    36d8:	50 e0       	ldi	r21, 0x00	; 0
    36da:	6a e0       	ldi	r22, 0x0A	; 10
    36dc:	70 e0       	ldi	r23, 0x00	; 0
    36de:	82 e5       	ldi	r24, 0x52	; 82
    36e0:	91 e0       	ldi	r25, 0x01	; 1
    36e2:	0e 94 51 15 	call	0x2aa2	; 0x2aa2 <TFT_Text>
			input_f = 6;
    36e6:	84 2d       	mov	r24, r4
		}
		
		if (!(PIND & (1<<PD3)))
    36e8:	83 99       	sbic	0x10, 3	; 16
    36ea:	6e cf       	rjmp	.-292    	; 0x35c8 <main+0x40e>
    36ec:	d8 2e       	mov	r13, r24
    36ee:	18 2f       	mov	r17, r24
		{
			Read_TPval(TPval);
    36f0:	83 2d       	mov	r24, r3
    36f2:	92 2d       	mov	r25, r2
    36f4:	0e 94 49 17 	call	0x2e92	; 0x2e92 <Read_TPval>
    36f8:	8f e1       	ldi	r24, 0x1F	; 31
    36fa:	9e e4       	ldi	r25, 0x4E	; 78
    36fc:	01 97       	sbiw	r24, 0x01	; 1
    36fe:	f1 f7       	brne	.-4      	; 0x36fc <main+0x542>
    3700:	00 c0       	rjmp	.+0      	; 0x3702 <main+0x548>
    3702:	00 00       	nop
			_delay_ms(10);
			Read_TPval(TPval);
    3704:	83 2d       	mov	r24, r3
    3706:	92 2d       	mov	r25, r2
    3708:	0e 94 49 17 	call	0x2e92	; 0x2e92 <Read_TPval>
			//TFT_PutsInt(TPval[0],4,0,0,8,blue,white);
			//TFT_PutsInt(TPval[1],4,40,0,8,blue,white);
			if (TPval[0]>36 && TPval[0]<72)  // 9 0 DEL >> 
    370c:	89 81       	ldd	r24, Y+1	; 0x01
    370e:	9a 81       	ldd	r25, Y+2	; 0x02
    3710:	9c 01       	movw	r18, r24
    3712:	25 52       	subi	r18, 0x25	; 37
    3714:	31 09       	sbc	r19, r1
    3716:	23 32       	cpi	r18, 0x23	; 35
    3718:	31 05       	cpc	r19, r1
    371a:	08 f0       	brcs	.+2      	; 0x371e <main+0x564>
    371c:	af c0       	rjmp	.+350    	; 0x387c <main+0x6c2>
			{
				if (TPval[1]>23 && TPval[1]<73)
    371e:	8b 81       	ldd	r24, Y+3	; 0x03
    3720:	9c 81       	ldd	r25, Y+4	; 0x04
    3722:	9c 01       	movw	r18, r24
    3724:	28 51       	subi	r18, 0x18	; 24
    3726:	31 09       	sbc	r19, r1
    3728:	21 33       	cpi	r18, 0x31	; 49
    372a:	31 05       	cpc	r19, r1
    372c:	60 f5       	brcc	.+88     	; 0x3786 <main+0x5cc>
				{
					TFT_Text("9",mxpos,77,16,black,white);
    372e:	ee 24       	eor	r14, r14
    3730:	ea 94       	dec	r14
    3732:	fe 2c       	mov	r15, r14
    3734:	00 e0       	ldi	r16, 0x00	; 0
    3736:	10 e0       	ldi	r17, 0x00	; 0
    3738:	20 e1       	ldi	r18, 0x10	; 16
    373a:	4d e4       	ldi	r20, 0x4D	; 77
    373c:	50 e0       	ldi	r21, 0x00	; 0
    373e:	b5 01       	movw	r22, r10
    3740:	80 e7       	ldi	r24, 0x70	; 112
    3742:	90 e0       	ldi	r25, 0x00	; 0
    3744:	0e 94 51 15 	call	0x2aa2	; 0x2aa2 <TFT_Text>
					mxpos+=14;
    3748:	9e e0       	ldi	r25, 0x0E	; 14
    374a:	a9 0e       	add	r10, r25
    374c:	b1 1c       	adc	r11, r1
					kp_val = (kp_val * 10) + 9;
    374e:	b4 01       	movw	r22, r8
    3750:	a3 01       	movw	r20, r6
    3752:	44 0f       	add	r20, r20
    3754:	55 1f       	adc	r21, r21
    3756:	66 1f       	adc	r22, r22
    3758:	77 1f       	adc	r23, r23
    375a:	db 01       	movw	r26, r22
    375c:	ca 01       	movw	r24, r20
    375e:	88 0f       	add	r24, r24
    3760:	99 1f       	adc	r25, r25
    3762:	aa 1f       	adc	r26, r26
    3764:	bb 1f       	adc	r27, r27
    3766:	88 0f       	add	r24, r24
    3768:	99 1f       	adc	r25, r25
    376a:	aa 1f       	adc	r26, r26
    376c:	bb 1f       	adc	r27, r27
    376e:	84 0f       	add	r24, r20
    3770:	95 1f       	adc	r25, r21
    3772:	a6 1f       	adc	r26, r22
    3774:	b7 1f       	adc	r27, r23
    3776:	3c 01       	movw	r6, r24
    3778:	4d 01       	movw	r8, r26
    377a:	09 e0       	ldi	r16, 0x09	; 9
    377c:	60 0e       	add	r6, r16
    377e:	71 1c       	adc	r7, r1
    3780:	81 1c       	adc	r8, r1
    3782:	91 1c       	adc	r9, r1
    3784:	78 c0       	rjmp	.+240    	; 0x3876 <main+0x6bc>
				}
				else if (TPval[1]>77 && TPval[1]<126)
    3786:	9c 01       	movw	r18, r24
    3788:	2e 54       	subi	r18, 0x4E	; 78
    378a:	31 09       	sbc	r19, r1
    378c:	20 33       	cpi	r18, 0x30	; 48
    378e:	31 05       	cpc	r19, r1
    3790:	38 f5       	brcc	.+78     	; 0x37e0 <main+0x626>
				{
					TFT_Text("0",mxpos,77,16,black,white);
    3792:	ee 24       	eor	r14, r14
    3794:	ea 94       	dec	r14
    3796:	fe 2c       	mov	r15, r14
    3798:	00 e0       	ldi	r16, 0x00	; 0
    379a:	10 e0       	ldi	r17, 0x00	; 0
    379c:	20 e1       	ldi	r18, 0x10	; 16
    379e:	4d e4       	ldi	r20, 0x4D	; 77
    37a0:	50 e0       	ldi	r21, 0x00	; 0
    37a2:	b5 01       	movw	r22, r10
    37a4:	82 e7       	ldi	r24, 0x72	; 114
    37a6:	90 e0       	ldi	r25, 0x00	; 0
    37a8:	0e 94 51 15 	call	0x2aa2	; 0x2aa2 <TFT_Text>
					mxpos+=14;
    37ac:	1e e0       	ldi	r17, 0x0E	; 14
    37ae:	a1 0e       	add	r10, r17
    37b0:	b1 1c       	adc	r11, r1
					kp_val = (kp_val * 10);
    37b2:	b4 01       	movw	r22, r8
    37b4:	a3 01       	movw	r20, r6
    37b6:	44 0f       	add	r20, r20
    37b8:	55 1f       	adc	r21, r21
    37ba:	66 1f       	adc	r22, r22
    37bc:	77 1f       	adc	r23, r23
    37be:	db 01       	movw	r26, r22
    37c0:	ca 01       	movw	r24, r20
    37c2:	88 0f       	add	r24, r24
    37c4:	99 1f       	adc	r25, r25
    37c6:	aa 1f       	adc	r26, r26
    37c8:	bb 1f       	adc	r27, r27
    37ca:	88 0f       	add	r24, r24
    37cc:	99 1f       	adc	r25, r25
    37ce:	aa 1f       	adc	r26, r26
    37d0:	bb 1f       	adc	r27, r27
    37d2:	3a 01       	movw	r6, r20
    37d4:	4b 01       	movw	r8, r22
    37d6:	68 0e       	add	r6, r24
    37d8:	79 1e       	adc	r7, r25
    37da:	8a 1e       	adc	r8, r26
    37dc:	9b 1e       	adc	r9, r27
    37de:	4b c0       	rjmp	.+150    	; 0x3876 <main+0x6bc>
				}
				else if (TPval[1]>129 && TPval[1]<181)
    37e0:	9c 01       	movw	r18, r24
    37e2:	22 58       	subi	r18, 0x82	; 130
    37e4:	31 09       	sbc	r19, r1
    37e6:	23 33       	cpi	r18, 0x33	; 51
    37e8:	31 05       	cpc	r19, r1
    37ea:	d8 f4       	brcc	.+54     	; 0x3822 <main+0x668>
				{
					mxpos-=14;
    37ec:	2e e0       	ldi	r18, 0x0E	; 14
    37ee:	a2 1a       	sub	r10, r18
    37f0:	b1 08       	sbc	r11, r1
					TFT_Text(" ",mxpos,77,16,black,white);
    37f2:	ee 24       	eor	r14, r14
    37f4:	ea 94       	dec	r14
    37f6:	fe 2c       	mov	r15, r14
    37f8:	00 e0       	ldi	r16, 0x00	; 0
    37fa:	10 e0       	ldi	r17, 0x00	; 0
    37fc:	20 e1       	ldi	r18, 0x10	; 16
    37fe:	4d e4       	ldi	r20, 0x4D	; 77
    3800:	50 e0       	ldi	r21, 0x00	; 0
    3802:	b5 01       	movw	r22, r10
    3804:	8f eb       	ldi	r24, 0xBF	; 191
    3806:	92 e0       	ldi	r25, 0x02	; 2
    3808:	0e 94 51 15 	call	0x2aa2	; 0x2aa2 <TFT_Text>
					kp_val = (kp_val / 10);
    380c:	c4 01       	movw	r24, r8
    380e:	b3 01       	movw	r22, r6
    3810:	2a e0       	ldi	r18, 0x0A	; 10
    3812:	30 e0       	ldi	r19, 0x00	; 0
    3814:	40 e0       	ldi	r20, 0x00	; 0
    3816:	50 e0       	ldi	r21, 0x00	; 0
    3818:	0e 94 42 28 	call	0x5084	; 0x5084 <__udivmodsi4>
    381c:	39 01       	movw	r6, r18
    381e:	4a 01       	movw	r8, r20
    3820:	2a c0       	rjmp	.+84     	; 0x3876 <main+0x6bc>
				}
				else if (TPval[1]>183 && TPval[1]<236)
    3822:	88 5b       	subi	r24, 0xB8	; 184
    3824:	91 09       	sbc	r25, r1
    3826:	c4 97       	sbiw	r24, 0x34	; 52
    3828:	30 f5       	brcc	.+76     	; 0x3876 <main+0x6bc>
				{
					if (input_f == 2)
    382a:	12 30       	cpi	r17, 0x02	; 2
    382c:	39 f0       	breq	.+14     	; 0x383c <main+0x682>
						water = kp_val;
						kp_val = 0;
						mxpos = 13;
						input_f = 3;
					}
					else if (input_f == 4)
    382e:	14 30       	cpi	r17, 0x04	; 4
    3830:	a1 f0       	breq	.+40     	; 0x385a <main+0x6a0>
						temp = kp_val;
						kp_val = 0;
						mxpos = 13;
						input_f = 5;
					}
					else if (input_f == 6)
    3832:	16 30       	cpi	r17, 0x06	; 6
    3834:	01 f5       	brne	.+64     	; 0x3876 <main+0x6bc>
    3836:	39 88       	ldd	r3, Y+17	; 0x11
    3838:	2d 8c       	ldd	r2, Y+29	; 0x1d
    383a:	0c c2       	rjmp	.+1048   	; 0x3c54 <main+0xa9a>
    383c:	6d 8a       	std	Y+21, r6	; 0x15
    383e:	7e 8a       	std	Y+22, r7	; 0x16
    3840:	8f 8a       	std	Y+23, r8	; 0x17
    3842:	98 8e       	std	Y+24, r9	; 0x18
					if (input_f == 2)
					{
						water = kp_val;
						kp_val = 0;
						mxpos = 13;
						input_f = 3;
    3844:	0f 2e       	mov	r0, r31
    3846:	f3 e0       	ldi	r31, 0x03	; 3
    3848:	df 2e       	mov	r13, r31
    384a:	f0 2d       	mov	r31, r0
				else if (TPval[1]>183 && TPval[1]<236)
				{
					if (input_f == 2)
					{
						water = kp_val;
						kp_val = 0;
    384c:	6a a4       	ldd	r6, Y+42	; 0x2a
    384e:	7b a4       	ldd	r7, Y+43	; 0x2b
    3850:	8c a4       	ldd	r8, Y+44	; 0x2c
    3852:	9d a4       	ldd	r9, Y+45	; 0x2d
						mxpos = 13;
    3854:	af 80       	ldd	r10, Y+7	; 0x07
    3856:	bb 84       	ldd	r11, Y+11	; 0x0b
    3858:	0e c0       	rjmp	.+28     	; 0x3876 <main+0x6bc>
    385a:	69 8e       	std	Y+25, r6	; 0x19
    385c:	7a 8e       	std	Y+26, r7	; 0x1a
    385e:	8b 8e       	std	Y+27, r8	; 0x1b
    3860:	9c 8e       	std	Y+28, r9	; 0x1c
					else if (input_f == 4)
					{
						temp = kp_val;
						kp_val = 0;
						mxpos = 13;
						input_f = 5;
    3862:	0f 2e       	mov	r0, r31
    3864:	f5 e0       	ldi	r31, 0x05	; 5
    3866:	df 2e       	mov	r13, r31
    3868:	f0 2d       	mov	r31, r0
						input_f = 3;
					}
					else if (input_f == 4)
					{
						temp = kp_val;
						kp_val = 0;
    386a:	6a a4       	ldd	r6, Y+42	; 0x2a
    386c:	7b a4       	ldd	r7, Y+43	; 0x2b
    386e:	8c a4       	ldd	r8, Y+44	; 0x2c
    3870:	9d a4       	ldd	r9, Y+45	; 0x2d
						mxpos = 13;
    3872:	af 80       	ldd	r10, Y+7	; 0x07
    3874:	bb 84       	ldd	r11, Y+11	; 0x0b
						mxpos = 13;
						input_f = 0;
						break;
					}
				}
				while (!(PIND & (1<<PD3)));
    3876:	83 9b       	sbis	0x10, 3	; 16
    3878:	fe cf       	rjmp	.-4      	; 0x3876 <main+0x6bc>
    387a:	9f c1       	rjmp	.+830    	; 0x3bba <main+0xa00>
			}
			else if (TPval[0]>75 && TPval[0]<112)  // 5 6 7 8 
    387c:	9c 01       	movw	r18, r24
    387e:	2c 54       	subi	r18, 0x4C	; 76
    3880:	31 09       	sbc	r19, r1
    3882:	24 32       	cpi	r18, 0x24	; 36
    3884:	31 05       	cpc	r19, r1
    3886:	08 f0       	brcs	.+2      	; 0x388a <main+0x6d0>
    3888:	ca c0       	rjmp	.+404    	; 0x3a1e <main+0x864>
			{
				if (TPval[1]>23 && TPval[1]<73)
    388a:	8b 81       	ldd	r24, Y+3	; 0x03
    388c:	9c 81       	ldd	r25, Y+4	; 0x04
    388e:	9c 01       	movw	r18, r24
    3890:	28 51       	subi	r18, 0x18	; 24
    3892:	31 09       	sbc	r19, r1
    3894:	21 33       	cpi	r18, 0x31	; 49
    3896:	31 05       	cpc	r19, r1
    3898:	60 f5       	brcc	.+88     	; 0x38f2 <main+0x738>
				{
					TFT_Text("5",mxpos,77,16,black,white);
    389a:	ee 24       	eor	r14, r14
    389c:	ea 94       	dec	r14
    389e:	fe 2c       	mov	r15, r14
    38a0:	00 e0       	ldi	r16, 0x00	; 0
    38a2:	10 e0       	ldi	r17, 0x00	; 0
    38a4:	20 e1       	ldi	r18, 0x10	; 16
    38a6:	4d e4       	ldi	r20, 0x4D	; 77
    38a8:	50 e0       	ldi	r21, 0x00	; 0
    38aa:	b5 01       	movw	r22, r10
    38ac:	88 e6       	ldi	r24, 0x68	; 104
    38ae:	90 e0       	ldi	r25, 0x00	; 0
    38b0:	0e 94 51 15 	call	0x2aa2	; 0x2aa2 <TFT_Text>
					mxpos+=14;
    38b4:	3e e0       	ldi	r19, 0x0E	; 14
    38b6:	a3 0e       	add	r10, r19
    38b8:	b1 1c       	adc	r11, r1
					kp_val = (kp_val * 10) + 5;
    38ba:	b4 01       	movw	r22, r8
    38bc:	a3 01       	movw	r20, r6
    38be:	44 0f       	add	r20, r20
    38c0:	55 1f       	adc	r21, r21
    38c2:	66 1f       	adc	r22, r22
    38c4:	77 1f       	adc	r23, r23
    38c6:	db 01       	movw	r26, r22
    38c8:	ca 01       	movw	r24, r20
    38ca:	88 0f       	add	r24, r24
    38cc:	99 1f       	adc	r25, r25
    38ce:	aa 1f       	adc	r26, r26
    38d0:	bb 1f       	adc	r27, r27
    38d2:	88 0f       	add	r24, r24
    38d4:	99 1f       	adc	r25, r25
    38d6:	aa 1f       	adc	r26, r26
    38d8:	bb 1f       	adc	r27, r27
    38da:	84 0f       	add	r24, r20
    38dc:	95 1f       	adc	r25, r21
    38de:	a6 1f       	adc	r26, r22
    38e0:	b7 1f       	adc	r27, r23
    38e2:	3c 01       	movw	r6, r24
    38e4:	4d 01       	movw	r8, r26
    38e6:	05 e0       	ldi	r16, 0x05	; 5
    38e8:	60 0e       	add	r6, r16
    38ea:	71 1c       	adc	r7, r1
    38ec:	81 1c       	adc	r8, r1
    38ee:	91 1c       	adc	r9, r1
    38f0:	93 c0       	rjmp	.+294    	; 0x3a18 <main+0x85e>
				}
				else if (TPval[1]>77 && TPval[1]<126)
    38f2:	9c 01       	movw	r18, r24
    38f4:	2e 54       	subi	r18, 0x4E	; 78
    38f6:	31 09       	sbc	r19, r1
    38f8:	20 33       	cpi	r18, 0x30	; 48
    38fa:	31 05       	cpc	r19, r1
    38fc:	60 f5       	brcc	.+88     	; 0x3956 <main+0x79c>
				{
					TFT_Text("6",mxpos,77,16,black,white);
    38fe:	ee 24       	eor	r14, r14
    3900:	ea 94       	dec	r14
    3902:	fe 2c       	mov	r15, r14
    3904:	00 e0       	ldi	r16, 0x00	; 0
    3906:	10 e0       	ldi	r17, 0x00	; 0
    3908:	20 e1       	ldi	r18, 0x10	; 16
    390a:	4d e4       	ldi	r20, 0x4D	; 77
    390c:	50 e0       	ldi	r21, 0x00	; 0
    390e:	b5 01       	movw	r22, r10
    3910:	8a e6       	ldi	r24, 0x6A	; 106
    3912:	90 e0       	ldi	r25, 0x00	; 0
    3914:	0e 94 51 15 	call	0x2aa2	; 0x2aa2 <TFT_Text>
					mxpos+=14;
    3918:	1e e0       	ldi	r17, 0x0E	; 14
    391a:	a1 0e       	add	r10, r17
    391c:	b1 1c       	adc	r11, r1
					kp_val = (kp_val * 10) + 6;
    391e:	b4 01       	movw	r22, r8
    3920:	a3 01       	movw	r20, r6
    3922:	44 0f       	add	r20, r20
    3924:	55 1f       	adc	r21, r21
    3926:	66 1f       	adc	r22, r22
    3928:	77 1f       	adc	r23, r23
    392a:	db 01       	movw	r26, r22
    392c:	ca 01       	movw	r24, r20
    392e:	88 0f       	add	r24, r24
    3930:	99 1f       	adc	r25, r25
    3932:	aa 1f       	adc	r26, r26
    3934:	bb 1f       	adc	r27, r27
    3936:	88 0f       	add	r24, r24
    3938:	99 1f       	adc	r25, r25
    393a:	aa 1f       	adc	r26, r26
    393c:	bb 1f       	adc	r27, r27
    393e:	84 0f       	add	r24, r20
    3940:	95 1f       	adc	r25, r21
    3942:	a6 1f       	adc	r26, r22
    3944:	b7 1f       	adc	r27, r23
    3946:	3c 01       	movw	r6, r24
    3948:	4d 01       	movw	r8, r26
    394a:	26 e0       	ldi	r18, 0x06	; 6
    394c:	62 0e       	add	r6, r18
    394e:	71 1c       	adc	r7, r1
    3950:	81 1c       	adc	r8, r1
    3952:	91 1c       	adc	r9, r1
    3954:	61 c0       	rjmp	.+194    	; 0x3a18 <main+0x85e>
				}
				else if (TPval[1]>129 && TPval[1]<181)
    3956:	9c 01       	movw	r18, r24
    3958:	22 58       	subi	r18, 0x82	; 130
    395a:	31 09       	sbc	r19, r1
    395c:	23 33       	cpi	r18, 0x33	; 51
    395e:	31 05       	cpc	r19, r1
    3960:	60 f5       	brcc	.+88     	; 0x39ba <main+0x800>
				{
					TFT_Text("7",mxpos,77,16,black,white);
    3962:	ee 24       	eor	r14, r14
    3964:	ea 94       	dec	r14
    3966:	fe 2c       	mov	r15, r14
    3968:	00 e0       	ldi	r16, 0x00	; 0
    396a:	10 e0       	ldi	r17, 0x00	; 0
    396c:	20 e1       	ldi	r18, 0x10	; 16
    396e:	4d e4       	ldi	r20, 0x4D	; 77
    3970:	50 e0       	ldi	r21, 0x00	; 0
    3972:	b5 01       	movw	r22, r10
    3974:	8c e6       	ldi	r24, 0x6C	; 108
    3976:	90 e0       	ldi	r25, 0x00	; 0
    3978:	0e 94 51 15 	call	0x2aa2	; 0x2aa2 <TFT_Text>
					mxpos+=14;
    397c:	3e e0       	ldi	r19, 0x0E	; 14
    397e:	a3 0e       	add	r10, r19
    3980:	b1 1c       	adc	r11, r1
					kp_val = (kp_val * 10) + 7;
    3982:	b4 01       	movw	r22, r8
    3984:	a3 01       	movw	r20, r6
    3986:	44 0f       	add	r20, r20
    3988:	55 1f       	adc	r21, r21
    398a:	66 1f       	adc	r22, r22
    398c:	77 1f       	adc	r23, r23
    398e:	db 01       	movw	r26, r22
    3990:	ca 01       	movw	r24, r20
    3992:	88 0f       	add	r24, r24
    3994:	99 1f       	adc	r25, r25
    3996:	aa 1f       	adc	r26, r26
    3998:	bb 1f       	adc	r27, r27
    399a:	88 0f       	add	r24, r24
    399c:	99 1f       	adc	r25, r25
    399e:	aa 1f       	adc	r26, r26
    39a0:	bb 1f       	adc	r27, r27
    39a2:	84 0f       	add	r24, r20
    39a4:	95 1f       	adc	r25, r21
    39a6:	a6 1f       	adc	r26, r22
    39a8:	b7 1f       	adc	r27, r23
    39aa:	3c 01       	movw	r6, r24
    39ac:	4d 01       	movw	r8, r26
    39ae:	07 e0       	ldi	r16, 0x07	; 7
    39b0:	60 0e       	add	r6, r16
    39b2:	71 1c       	adc	r7, r1
    39b4:	81 1c       	adc	r8, r1
    39b6:	91 1c       	adc	r9, r1
    39b8:	2f c0       	rjmp	.+94     	; 0x3a18 <main+0x85e>
				}
				else if (TPval[1]>183 && TPval[1]<236)
    39ba:	88 5b       	subi	r24, 0xB8	; 184
    39bc:	91 09       	sbc	r25, r1
    39be:	c4 97       	sbiw	r24, 0x34	; 52
    39c0:	58 f5       	brcc	.+86     	; 0x3a18 <main+0x85e>
				{
					TFT_Text("8",mxpos,77,16,black,white);
    39c2:	ee 24       	eor	r14, r14
    39c4:	ea 94       	dec	r14
    39c6:	fe 2c       	mov	r15, r14
    39c8:	00 e0       	ldi	r16, 0x00	; 0
    39ca:	10 e0       	ldi	r17, 0x00	; 0
    39cc:	20 e1       	ldi	r18, 0x10	; 16
    39ce:	4d e4       	ldi	r20, 0x4D	; 77
    39d0:	50 e0       	ldi	r21, 0x00	; 0
    39d2:	b5 01       	movw	r22, r10
    39d4:	8e e6       	ldi	r24, 0x6E	; 110
    39d6:	90 e0       	ldi	r25, 0x00	; 0
    39d8:	0e 94 51 15 	call	0x2aa2	; 0x2aa2 <TFT_Text>
					mxpos+=14;
    39dc:	1e e0       	ldi	r17, 0x0E	; 14
    39de:	a1 0e       	add	r10, r17
    39e0:	b1 1c       	adc	r11, r1
					kp_val = (kp_val * 10) + 8;
    39e2:	b4 01       	movw	r22, r8
    39e4:	a3 01       	movw	r20, r6
    39e6:	44 0f       	add	r20, r20
    39e8:	55 1f       	adc	r21, r21
    39ea:	66 1f       	adc	r22, r22
    39ec:	77 1f       	adc	r23, r23
    39ee:	db 01       	movw	r26, r22
    39f0:	ca 01       	movw	r24, r20
    39f2:	88 0f       	add	r24, r24
    39f4:	99 1f       	adc	r25, r25
    39f6:	aa 1f       	adc	r26, r26
    39f8:	bb 1f       	adc	r27, r27
    39fa:	88 0f       	add	r24, r24
    39fc:	99 1f       	adc	r25, r25
    39fe:	aa 1f       	adc	r26, r26
    3a00:	bb 1f       	adc	r27, r27
    3a02:	84 0f       	add	r24, r20
    3a04:	95 1f       	adc	r25, r21
    3a06:	a6 1f       	adc	r26, r22
    3a08:	b7 1f       	adc	r27, r23
    3a0a:	3c 01       	movw	r6, r24
    3a0c:	4d 01       	movw	r8, r26
    3a0e:	28 e0       	ldi	r18, 0x08	; 8
    3a10:	62 0e       	add	r6, r18
    3a12:	71 1c       	adc	r7, r1
    3a14:	81 1c       	adc	r8, r1
    3a16:	91 1c       	adc	r9, r1
				}
				while (!(PIND & (1<<PD3)));
    3a18:	83 9b       	sbis	0x10, 3	; 16
    3a1a:	fe cf       	rjmp	.-4      	; 0x3a18 <main+0x85e>
    3a1c:	ce c0       	rjmp	.+412    	; 0x3bba <main+0xa00>
			}
			else if (TPval[0]>115 && TPval[0]<150)  // 1 2 3 4 
    3a1e:	84 57       	subi	r24, 0x74	; 116
    3a20:	91 09       	sbc	r25, r1
    3a22:	82 97       	sbiw	r24, 0x22	; 34
    3a24:	08 f0       	brcs	.+2      	; 0x3a28 <main+0x86e>
    3a26:	c9 c0       	rjmp	.+402    	; 0x3bba <main+0xa00>
			{
				if (TPval[1]>23 && TPval[1]<73)
    3a28:	8b 81       	ldd	r24, Y+3	; 0x03
    3a2a:	9c 81       	ldd	r25, Y+4	; 0x04
    3a2c:	9c 01       	movw	r18, r24
    3a2e:	28 51       	subi	r18, 0x18	; 24
    3a30:	31 09       	sbc	r19, r1
    3a32:	21 33       	cpi	r18, 0x31	; 49
    3a34:	31 05       	cpc	r19, r1
    3a36:	60 f5       	brcc	.+88     	; 0x3a90 <main+0x8d6>
				{
					TFT_Text("1",mxpos,77,16,black,white);
    3a38:	ee 24       	eor	r14, r14
    3a3a:	ea 94       	dec	r14
    3a3c:	fe 2c       	mov	r15, r14
    3a3e:	00 e0       	ldi	r16, 0x00	; 0
    3a40:	10 e0       	ldi	r17, 0x00	; 0
    3a42:	20 e1       	ldi	r18, 0x10	; 16
    3a44:	4d e4       	ldi	r20, 0x4D	; 77
    3a46:	50 e0       	ldi	r21, 0x00	; 0
    3a48:	b5 01       	movw	r22, r10
    3a4a:	80 e6       	ldi	r24, 0x60	; 96
    3a4c:	90 e0       	ldi	r25, 0x00	; 0
    3a4e:	0e 94 51 15 	call	0x2aa2	; 0x2aa2 <TFT_Text>
					mxpos+=14;
    3a52:	3e e0       	ldi	r19, 0x0E	; 14
    3a54:	a3 0e       	add	r10, r19
    3a56:	b1 1c       	adc	r11, r1
					kp_val = (kp_val * 10) + 1;
    3a58:	b4 01       	movw	r22, r8
    3a5a:	a3 01       	movw	r20, r6
    3a5c:	44 0f       	add	r20, r20
    3a5e:	55 1f       	adc	r21, r21
    3a60:	66 1f       	adc	r22, r22
    3a62:	77 1f       	adc	r23, r23
    3a64:	db 01       	movw	r26, r22
    3a66:	ca 01       	movw	r24, r20
    3a68:	88 0f       	add	r24, r24
    3a6a:	99 1f       	adc	r25, r25
    3a6c:	aa 1f       	adc	r26, r26
    3a6e:	bb 1f       	adc	r27, r27
    3a70:	88 0f       	add	r24, r24
    3a72:	99 1f       	adc	r25, r25
    3a74:	aa 1f       	adc	r26, r26
    3a76:	bb 1f       	adc	r27, r27
    3a78:	84 0f       	add	r24, r20
    3a7a:	95 1f       	adc	r25, r21
    3a7c:	a6 1f       	adc	r26, r22
    3a7e:	b7 1f       	adc	r27, r23
    3a80:	3c 01       	movw	r6, r24
    3a82:	4d 01       	movw	r8, r26
    3a84:	0f ef       	ldi	r16, 0xFF	; 255
    3a86:	60 1a       	sub	r6, r16
    3a88:	70 0a       	sbc	r7, r16
    3a8a:	80 0a       	sbc	r8, r16
    3a8c:	90 0a       	sbc	r9, r16
    3a8e:	93 c0       	rjmp	.+294    	; 0x3bb6 <main+0x9fc>
				}
				else if (TPval[1]>77 && TPval[1]<126)
    3a90:	9c 01       	movw	r18, r24
    3a92:	2e 54       	subi	r18, 0x4E	; 78
    3a94:	31 09       	sbc	r19, r1
    3a96:	20 33       	cpi	r18, 0x30	; 48
    3a98:	31 05       	cpc	r19, r1
    3a9a:	60 f5       	brcc	.+88     	; 0x3af4 <main+0x93a>
				{
					TFT_Text("2",mxpos,77,16,black,white);
    3a9c:	ee 24       	eor	r14, r14
    3a9e:	ea 94       	dec	r14
    3aa0:	fe 2c       	mov	r15, r14
    3aa2:	00 e0       	ldi	r16, 0x00	; 0
    3aa4:	10 e0       	ldi	r17, 0x00	; 0
    3aa6:	20 e1       	ldi	r18, 0x10	; 16
    3aa8:	4d e4       	ldi	r20, 0x4D	; 77
    3aaa:	50 e0       	ldi	r21, 0x00	; 0
    3aac:	b5 01       	movw	r22, r10
    3aae:	82 e6       	ldi	r24, 0x62	; 98
    3ab0:	90 e0       	ldi	r25, 0x00	; 0
    3ab2:	0e 94 51 15 	call	0x2aa2	; 0x2aa2 <TFT_Text>
					mxpos+=14;
    3ab6:	1e e0       	ldi	r17, 0x0E	; 14
    3ab8:	a1 0e       	add	r10, r17
    3aba:	b1 1c       	adc	r11, r1
					kp_val = (kp_val * 10) + 2;
    3abc:	b4 01       	movw	r22, r8
    3abe:	a3 01       	movw	r20, r6
    3ac0:	44 0f       	add	r20, r20
    3ac2:	55 1f       	adc	r21, r21
    3ac4:	66 1f       	adc	r22, r22
    3ac6:	77 1f       	adc	r23, r23
    3ac8:	db 01       	movw	r26, r22
    3aca:	ca 01       	movw	r24, r20
    3acc:	88 0f       	add	r24, r24
    3ace:	99 1f       	adc	r25, r25
    3ad0:	aa 1f       	adc	r26, r26
    3ad2:	bb 1f       	adc	r27, r27
    3ad4:	88 0f       	add	r24, r24
    3ad6:	99 1f       	adc	r25, r25
    3ad8:	aa 1f       	adc	r26, r26
    3ada:	bb 1f       	adc	r27, r27
    3adc:	84 0f       	add	r24, r20
    3ade:	95 1f       	adc	r25, r21
    3ae0:	a6 1f       	adc	r26, r22
    3ae2:	b7 1f       	adc	r27, r23
    3ae4:	3c 01       	movw	r6, r24
    3ae6:	4d 01       	movw	r8, r26
    3ae8:	22 e0       	ldi	r18, 0x02	; 2
    3aea:	62 0e       	add	r6, r18
    3aec:	71 1c       	adc	r7, r1
    3aee:	81 1c       	adc	r8, r1
    3af0:	91 1c       	adc	r9, r1
    3af2:	61 c0       	rjmp	.+194    	; 0x3bb6 <main+0x9fc>
				}
				else if (TPval[1]>129 && TPval[1]<181)
    3af4:	9c 01       	movw	r18, r24
    3af6:	22 58       	subi	r18, 0x82	; 130
    3af8:	31 09       	sbc	r19, r1
    3afa:	23 33       	cpi	r18, 0x33	; 51
    3afc:	31 05       	cpc	r19, r1
    3afe:	60 f5       	brcc	.+88     	; 0x3b58 <main+0x99e>
				{
					TFT_Text("3",mxpos,77,16,black,white);
    3b00:	ee 24       	eor	r14, r14
    3b02:	ea 94       	dec	r14
    3b04:	fe 2c       	mov	r15, r14
    3b06:	00 e0       	ldi	r16, 0x00	; 0
    3b08:	10 e0       	ldi	r17, 0x00	; 0
    3b0a:	20 e1       	ldi	r18, 0x10	; 16
    3b0c:	4d e4       	ldi	r20, 0x4D	; 77
    3b0e:	50 e0       	ldi	r21, 0x00	; 0
    3b10:	b5 01       	movw	r22, r10
    3b12:	84 e6       	ldi	r24, 0x64	; 100
    3b14:	90 e0       	ldi	r25, 0x00	; 0
    3b16:	0e 94 51 15 	call	0x2aa2	; 0x2aa2 <TFT_Text>
					mxpos+=14;
    3b1a:	3e e0       	ldi	r19, 0x0E	; 14
    3b1c:	a3 0e       	add	r10, r19
    3b1e:	b1 1c       	adc	r11, r1
					kp_val = (kp_val * 10) + 3;
    3b20:	b4 01       	movw	r22, r8
    3b22:	a3 01       	movw	r20, r6
    3b24:	44 0f       	add	r20, r20
    3b26:	55 1f       	adc	r21, r21
    3b28:	66 1f       	adc	r22, r22
    3b2a:	77 1f       	adc	r23, r23
    3b2c:	db 01       	movw	r26, r22
    3b2e:	ca 01       	movw	r24, r20
    3b30:	88 0f       	add	r24, r24
    3b32:	99 1f       	adc	r25, r25
    3b34:	aa 1f       	adc	r26, r26
    3b36:	bb 1f       	adc	r27, r27
    3b38:	88 0f       	add	r24, r24
    3b3a:	99 1f       	adc	r25, r25
    3b3c:	aa 1f       	adc	r26, r26
    3b3e:	bb 1f       	adc	r27, r27
    3b40:	84 0f       	add	r24, r20
    3b42:	95 1f       	adc	r25, r21
    3b44:	a6 1f       	adc	r26, r22
    3b46:	b7 1f       	adc	r27, r23
    3b48:	3c 01       	movw	r6, r24
    3b4a:	4d 01       	movw	r8, r26
    3b4c:	03 e0       	ldi	r16, 0x03	; 3
    3b4e:	60 0e       	add	r6, r16
    3b50:	71 1c       	adc	r7, r1
    3b52:	81 1c       	adc	r8, r1
    3b54:	91 1c       	adc	r9, r1
    3b56:	2f c0       	rjmp	.+94     	; 0x3bb6 <main+0x9fc>
				}
				else if (TPval[1]>183 && TPval[1]<236)
    3b58:	88 5b       	subi	r24, 0xB8	; 184
    3b5a:	91 09       	sbc	r25, r1
    3b5c:	c4 97       	sbiw	r24, 0x34	; 52
    3b5e:	58 f5       	brcc	.+86     	; 0x3bb6 <main+0x9fc>
				{
					TFT_Text("4",mxpos,77,16,black,white);
    3b60:	ee 24       	eor	r14, r14
    3b62:	ea 94       	dec	r14
    3b64:	fe 2c       	mov	r15, r14
    3b66:	00 e0       	ldi	r16, 0x00	; 0
    3b68:	10 e0       	ldi	r17, 0x00	; 0
    3b6a:	20 e1       	ldi	r18, 0x10	; 16
    3b6c:	4d e4       	ldi	r20, 0x4D	; 77
    3b6e:	50 e0       	ldi	r21, 0x00	; 0
    3b70:	b5 01       	movw	r22, r10
    3b72:	86 e6       	ldi	r24, 0x66	; 102
    3b74:	90 e0       	ldi	r25, 0x00	; 0
    3b76:	0e 94 51 15 	call	0x2aa2	; 0x2aa2 <TFT_Text>
					mxpos+=14;
    3b7a:	1e e0       	ldi	r17, 0x0E	; 14
    3b7c:	a1 0e       	add	r10, r17
    3b7e:	b1 1c       	adc	r11, r1
					kp_val = (kp_val * 10) + 4;
    3b80:	b4 01       	movw	r22, r8
    3b82:	a3 01       	movw	r20, r6
    3b84:	44 0f       	add	r20, r20
    3b86:	55 1f       	adc	r21, r21
    3b88:	66 1f       	adc	r22, r22
    3b8a:	77 1f       	adc	r23, r23
    3b8c:	db 01       	movw	r26, r22
    3b8e:	ca 01       	movw	r24, r20
    3b90:	88 0f       	add	r24, r24
    3b92:	99 1f       	adc	r25, r25
    3b94:	aa 1f       	adc	r26, r26
    3b96:	bb 1f       	adc	r27, r27
    3b98:	88 0f       	add	r24, r24
    3b9a:	99 1f       	adc	r25, r25
    3b9c:	aa 1f       	adc	r26, r26
    3b9e:	bb 1f       	adc	r27, r27
    3ba0:	84 0f       	add	r24, r20
    3ba2:	95 1f       	adc	r25, r21
    3ba4:	a6 1f       	adc	r26, r22
    3ba6:	b7 1f       	adc	r27, r23
    3ba8:	3c 01       	movw	r6, r24
    3baa:	4d 01       	movw	r8, r26
    3bac:	24 e0       	ldi	r18, 0x04	; 4
    3bae:	62 0e       	add	r6, r18
    3bb0:	71 1c       	adc	r7, r1
    3bb2:	81 1c       	adc	r8, r1
    3bb4:	91 1c       	adc	r9, r1
				}
				while (!(PIND & (1<<PD3)));
    3bb6:	83 9b       	sbis	0x10, 3	; 16
    3bb8:	fe cf       	rjmp	.-4      	; 0x3bb6 <main+0x9fc>
    3bba:	3f ef       	ldi	r19, 0xFF	; 255
    3bbc:	80 e7       	ldi	r24, 0x70	; 112
    3bbe:	92 e0       	ldi	r25, 0x02	; 2
    3bc0:	31 50       	subi	r19, 0x01	; 1
    3bc2:	80 40       	sbci	r24, 0x00	; 0
    3bc4:	90 40       	sbci	r25, 0x00	; 0
    3bc6:	e1 f7       	brne	.-8      	; 0x3bc0 <main+0xa06>
    3bc8:	00 c0       	rjmp	.+0      	; 0x3bca <main+0xa10>
    3bca:	00 00       	nop
    3bcc:	fc cc       	rjmp	.-1544   	; 0x35c6 <main+0x40c>
			{
				if (TPval[0]>197 && TPval[0]<216)
				{
					water = 70;
					temp = 25;
					time = 2;
    3bce:	68 94       	set
    3bd0:	66 24       	eor	r6, r6
    3bd2:	61 f8       	bld	r6, 1
    3bd4:	71 2c       	mov	r7, r1
    3bd6:	81 2c       	mov	r8, r1
    3bd8:	91 2c       	mov	r9, r1
			if (TPval[1]>35 && TPval[1]<211)  // for taking predefined or manual input
			{
				if (TPval[0]>197 && TPval[0]<216)
				{
					water = 70;
					temp = 25;
    3bda:	a9 e1       	ldi	r26, 0x19	; 25
    3bdc:	a9 8f       	std	Y+25, r26	; 0x19
    3bde:	1a 8e       	std	Y+26, r1	; 0x1a
    3be0:	1b 8e       	std	Y+27, r1	; 0x1b
    3be2:	1c 8e       	std	Y+28, r1	; 0x1c
			//TFT_PutsInt(TPval[1],4,40,0,8,blue,white);
			if (TPval[1]>35 && TPval[1]<211)  // for taking predefined or manual input
			{
				if (TPval[0]>197 && TPval[0]<216)
				{
					water = 70;
    3be4:	b6 e4       	ldi	r27, 0x46	; 70
    3be6:	bd 8b       	std	Y+21, r27	; 0x15
    3be8:	1e 8a       	std	Y+22, r1	; 0x16
    3bea:	1f 8a       	std	Y+23, r1	; 0x17
    3bec:	18 8e       	std	Y+24, r1	; 0x18
    3bee:	32 c0       	rjmp	.+100    	; 0x3c54 <main+0xa9a>
				}
				else if (TPval[0]>175 && TPval[0]<190)
				{
					water = 70;
					temp = 50;
					time = 2;
    3bf0:	68 94       	set
    3bf2:	66 24       	eor	r6, r6
    3bf4:	61 f8       	bld	r6, 1
    3bf6:	71 2c       	mov	r7, r1
    3bf8:	81 2c       	mov	r8, r1
    3bfa:	91 2c       	mov	r9, r1
					goto confirmation;
				}
				else if (TPval[0]>175 && TPval[0]<190)
				{
					water = 70;
					temp = 50;
    3bfc:	02 e3       	ldi	r16, 0x32	; 50
    3bfe:	09 8f       	std	Y+25, r16	; 0x19
    3c00:	1a 8e       	std	Y+26, r1	; 0x1a
    3c02:	1b 8e       	std	Y+27, r1	; 0x1b
    3c04:	1c 8e       	std	Y+28, r1	; 0x1c
					time = 2;
					goto confirmation;
				}
				else if (TPval[0]>175 && TPval[0]<190)
				{
					water = 70;
    3c06:	16 e4       	ldi	r17, 0x46	; 70
    3c08:	1d 8b       	std	Y+21, r17	; 0x15
    3c0a:	1e 8a       	std	Y+22, r1	; 0x16
    3c0c:	1f 8a       	std	Y+23, r1	; 0x17
    3c0e:	18 8e       	std	Y+24, r1	; 0x18
    3c10:	21 c0       	rjmp	.+66     	; 0x3c54 <main+0xa9a>
				}
				else if (TPval[0]>148 && TPval[0]<167)
				{
					water = 50;
					temp = 50;
					time = 2;
    3c12:	68 94       	set
    3c14:	66 24       	eor	r6, r6
    3c16:	61 f8       	bld	r6, 1
    3c18:	71 2c       	mov	r7, r1
    3c1a:	81 2c       	mov	r8, r1
    3c1c:	91 2c       	mov	r9, r1
					goto confirmation;
				}
				else if (TPval[0]>148 && TPval[0]<167)
				{
					water = 50;
					temp = 50;
    3c1e:	22 e3       	ldi	r18, 0x32	; 50
    3c20:	29 8f       	std	Y+25, r18	; 0x19
    3c22:	1a 8e       	std	Y+26, r1	; 0x1a
    3c24:	1b 8e       	std	Y+27, r1	; 0x1b
    3c26:	1c 8e       	std	Y+28, r1	; 0x1c
					time = 2;
					goto confirmation;
				}
				else if (TPval[0]>148 && TPval[0]<167)
				{
					water = 50;
    3c28:	32 e3       	ldi	r19, 0x32	; 50
    3c2a:	3d 8b       	std	Y+21, r19	; 0x15
    3c2c:	1e 8a       	std	Y+22, r1	; 0x16
    3c2e:	1f 8a       	std	Y+23, r1	; 0x17
    3c30:	18 8e       	std	Y+24, r1	; 0x18
    3c32:	10 c0       	rjmp	.+32     	; 0x3c54 <main+0xa9a>
				}
				else if (TPval[0]>127 && TPval[0]<144)
				{
					water = 60;
					temp = 50;
					time = 2;
    3c34:	68 94       	set
    3c36:	66 24       	eor	r6, r6
    3c38:	61 f8       	bld	r6, 1
    3c3a:	71 2c       	mov	r7, r1
    3c3c:	81 2c       	mov	r8, r1
    3c3e:	91 2c       	mov	r9, r1
					goto confirmation;
				}
				else if (TPval[0]>127 && TPval[0]<144)
				{
					water = 60;
					temp = 50;
    3c40:	82 e3       	ldi	r24, 0x32	; 50
    3c42:	89 8f       	std	Y+25, r24	; 0x19
    3c44:	1a 8e       	std	Y+26, r1	; 0x1a
    3c46:	1b 8e       	std	Y+27, r1	; 0x1b
    3c48:	1c 8e       	std	Y+28, r1	; 0x1c
					time = 2;
					goto confirmation;
				}
				else if (TPval[0]>127 && TPval[0]<144)
				{
					water = 60;
    3c4a:	9c e3       	ldi	r25, 0x3C	; 60
    3c4c:	9d 8b       	std	Y+21, r25	; 0x15
    3c4e:	1e 8a       	std	Y+22, r1	; 0x16
    3c50:	1f 8a       	std	Y+23, r1	; 0x17
    3c52:	18 8e       	std	Y+24, r1	; 0x18
	
	//End task Input system
	
	//Start confirmation input
confirmation:
	TFT_Fill(back_color);
    3c54:	8f e1       	ldi	r24, 0x1F	; 31
    3c56:	90 e0       	ldi	r25, 0x00	; 0
    3c58:	0e 94 6f 13 	call	0x26de	; 0x26de <TFT_Fill>
	TFT_Text("Water :      Liture",20,50,8,white,back_color);
    3c5c:	0f 2e       	mov	r0, r31
    3c5e:	ff e1       	ldi	r31, 0x1F	; 31
    3c60:	ef 2e       	mov	r14, r31
    3c62:	f1 2c       	mov	r15, r1
    3c64:	f0 2d       	mov	r31, r0
    3c66:	0f ef       	ldi	r16, 0xFF	; 255
    3c68:	1f ef       	ldi	r17, 0xFF	; 255
    3c6a:	28 e0       	ldi	r18, 0x08	; 8
    3c6c:	42 e3       	ldi	r20, 0x32	; 50
    3c6e:	50 e0       	ldi	r21, 0x00	; 0
    3c70:	64 e1       	ldi	r22, 0x14	; 20
    3c72:	70 e0       	ldi	r23, 0x00	; 0
    3c74:	8b e5       	ldi	r24, 0x5B	; 91
    3c76:	91 e0       	ldi	r25, 0x01	; 1
    3c78:	0e 94 51 15 	call	0x2aa2	; 0x2aa2 <TFT_Text>
	TFT_PutsInt(water,-1,84,50,8,white,back_color);
    3c7c:	ad 89       	ldd	r26, Y+21	; 0x15
    3c7e:	af a7       	std	Y+47, r26	; 0x2f
    3c80:	be 89       	ldd	r27, Y+22	; 0x16
    3c82:	b8 ab       	std	Y+48, r27	; 0x30
    3c84:	0f 89       	ldd	r16, Y+23	; 0x17
    3c86:	0d 8f       	std	Y+29, r16	; 0x1d
    3c88:	18 8d       	ldd	r17, Y+24	; 0x18
    3c8a:	1e 8f       	std	Y+30, r17	; 0x1e
    3c8c:	0f 2e       	mov	r0, r31
    3c8e:	ff e1       	ldi	r31, 0x1F	; 31
    3c90:	af 2e       	mov	r10, r31
    3c92:	b1 2c       	mov	r11, r1
    3c94:	f0 2d       	mov	r31, r0
    3c96:	cc 24       	eor	r12, r12
    3c98:	ca 94       	dec	r12
    3c9a:	dc 2c       	mov	r13, r12
    3c9c:	68 94       	set
    3c9e:	ee 24       	eor	r14, r14
    3ca0:	e3 f8       	bld	r14, 3
    3ca2:	02 e3       	ldi	r16, 0x32	; 50
    3ca4:	10 e0       	ldi	r17, 0x00	; 0
    3ca6:	24 e5       	ldi	r18, 0x54	; 84
    3ca8:	30 e0       	ldi	r19, 0x00	; 0
    3caa:	4f ef       	ldi	r20, 0xFF	; 255
    3cac:	5f ef       	ldi	r21, 0xFF	; 255
    3cae:	6a 2f       	mov	r22, r26
    3cb0:	7b 2f       	mov	r23, r27
    3cb2:	8f 89       	ldd	r24, Y+23	; 0x17
    3cb4:	98 8d       	ldd	r25, Y+24	; 0x18
    3cb6:	0e 94 e4 15 	call	0x2bc8	; 0x2bc8 <TFT_PutsInt>
	TFT_Text("Temp. :      Deg. C",20,70,8,white,back_color);
    3cba:	0f 2e       	mov	r0, r31
    3cbc:	ff e1       	ldi	r31, 0x1F	; 31
    3cbe:	ef 2e       	mov	r14, r31
    3cc0:	f1 2c       	mov	r15, r1
    3cc2:	f0 2d       	mov	r31, r0
    3cc4:	0f ef       	ldi	r16, 0xFF	; 255
    3cc6:	1f ef       	ldi	r17, 0xFF	; 255
    3cc8:	28 e0       	ldi	r18, 0x08	; 8
    3cca:	46 e4       	ldi	r20, 0x46	; 70
    3ccc:	50 e0       	ldi	r21, 0x00	; 0
    3cce:	64 e1       	ldi	r22, 0x14	; 20
    3cd0:	70 e0       	ldi	r23, 0x00	; 0
    3cd2:	8f e6       	ldi	r24, 0x6F	; 111
    3cd4:	91 e0       	ldi	r25, 0x01	; 1
    3cd6:	0e 94 51 15 	call	0x2aa2	; 0x2aa2 <TFT_Text>
	TFT_PutsInt(temp,-1,84,70,8,white,back_color);
    3cda:	29 8d       	ldd	r18, Y+25	; 0x19
    3cdc:	2f 8f       	std	Y+31, r18	; 0x1f
    3cde:	3a 8d       	ldd	r19, Y+26	; 0x1a
    3ce0:	38 a3       	std	Y+32, r19	; 0x20
    3ce2:	8b 8d       	ldd	r24, Y+27	; 0x1b
    3ce4:	89 a3       	std	Y+33, r24	; 0x21
    3ce6:	9c 8d       	ldd	r25, Y+28	; 0x1c
    3ce8:	9a a3       	std	Y+34, r25	; 0x22
    3cea:	68 94       	set
    3cec:	ee 24       	eor	r14, r14
    3cee:	e3 f8       	bld	r14, 3
    3cf0:	06 e4       	ldi	r16, 0x46	; 70
    3cf2:	10 e0       	ldi	r17, 0x00	; 0
    3cf4:	24 e5       	ldi	r18, 0x54	; 84
    3cf6:	30 e0       	ldi	r19, 0x00	; 0
    3cf8:	4f ef       	ldi	r20, 0xFF	; 255
    3cfa:	5f ef       	ldi	r21, 0xFF	; 255
    3cfc:	69 8d       	ldd	r22, Y+25	; 0x19
    3cfe:	7a 8d       	ldd	r23, Y+26	; 0x1a
    3d00:	0e 94 e4 15 	call	0x2bc8	; 0x2bc8 <TFT_PutsInt>
	TFT_Text("Time  :      minute",20,90,8,white,back_color);
    3d04:	0f 2e       	mov	r0, r31
    3d06:	ff e1       	ldi	r31, 0x1F	; 31
    3d08:	ef 2e       	mov	r14, r31
    3d0a:	f1 2c       	mov	r15, r1
    3d0c:	f0 2d       	mov	r31, r0
    3d0e:	0f ef       	ldi	r16, 0xFF	; 255
    3d10:	1f ef       	ldi	r17, 0xFF	; 255
    3d12:	28 e0       	ldi	r18, 0x08	; 8
    3d14:	4a e5       	ldi	r20, 0x5A	; 90
    3d16:	50 e0       	ldi	r21, 0x00	; 0
    3d18:	64 e1       	ldi	r22, 0x14	; 20
    3d1a:	70 e0       	ldi	r23, 0x00	; 0
    3d1c:	83 e8       	ldi	r24, 0x83	; 131
    3d1e:	91 e0       	ldi	r25, 0x01	; 1
    3d20:	0e 94 51 15 	call	0x2aa2	; 0x2aa2 <TFT_Text>
	TFT_PutsInt(time,-1,84,90,8,white,back_color);
    3d24:	6e a6       	std	Y+46, r6	; 0x2e
    3d26:	7b a2       	std	Y+35, r7	; 0x23
    3d28:	8c a2       	std	Y+36, r8	; 0x24
    3d2a:	9d a2       	std	Y+37, r9	; 0x25
    3d2c:	68 94       	set
    3d2e:	ee 24       	eor	r14, r14
    3d30:	e3 f8       	bld	r14, 3
    3d32:	0a e5       	ldi	r16, 0x5A	; 90
    3d34:	10 e0       	ldi	r17, 0x00	; 0
    3d36:	24 e5       	ldi	r18, 0x54	; 84
    3d38:	30 e0       	ldi	r19, 0x00	; 0
    3d3a:	4f ef       	ldi	r20, 0xFF	; 255
    3d3c:	5f ef       	ldi	r21, 0xFF	; 255
    3d3e:	c4 01       	movw	r24, r8
    3d40:	b3 01       	movw	r22, r6
    3d42:	0e 94 e4 15 	call	0x2bc8	; 0x2bc8 <TFT_PutsInt>
	TFT_Box(50,140,190,180,white);
    3d46:	0f ef       	ldi	r16, 0xFF	; 255
    3d48:	1f ef       	ldi	r17, 0xFF	; 255
    3d4a:	24 eb       	ldi	r18, 0xB4	; 180
    3d4c:	30 e0       	ldi	r19, 0x00	; 0
    3d4e:	4e eb       	ldi	r20, 0xBE	; 190
    3d50:	50 e0       	ldi	r21, 0x00	; 0
    3d52:	6c e8       	ldi	r22, 0x8C	; 140
    3d54:	70 e0       	ldi	r23, 0x00	; 0
    3d56:	82 e3       	ldi	r24, 0x32	; 50
    3d58:	90 e0       	ldi	r25, 0x00	; 0
    3d5a:	0e 94 96 13 	call	0x272c	; 0x272c <TFT_Box>
	TFT_Box(50,200,190,240,white);
    3d5e:	20 ef       	ldi	r18, 0xF0	; 240
    3d60:	30 e0       	ldi	r19, 0x00	; 0
    3d62:	4e eb       	ldi	r20, 0xBE	; 190
    3d64:	50 e0       	ldi	r21, 0x00	; 0
    3d66:	68 ec       	ldi	r22, 0xC8	; 200
    3d68:	70 e0       	ldi	r23, 0x00	; 0
    3d6a:	82 e3       	ldi	r24, 0x32	; 50
    3d6c:	90 e0       	ldi	r25, 0x00	; 0
    3d6e:	0e 94 96 13 	call	0x272c	; 0x272c <TFT_Box>
	TFT_Text("CORRECT !",57,152,16,black,white);
    3d72:	ee 24       	eor	r14, r14
    3d74:	ea 94       	dec	r14
    3d76:	fe 2c       	mov	r15, r14
    3d78:	00 e0       	ldi	r16, 0x00	; 0
    3d7a:	10 e0       	ldi	r17, 0x00	; 0
    3d7c:	20 e1       	ldi	r18, 0x10	; 16
    3d7e:	48 e9       	ldi	r20, 0x98	; 152
    3d80:	50 e0       	ldi	r21, 0x00	; 0
    3d82:	69 e3       	ldi	r22, 0x39	; 57
    3d84:	70 e0       	ldi	r23, 0x00	; 0
    3d86:	87 e9       	ldi	r24, 0x97	; 151
    3d88:	91 e0       	ldi	r25, 0x01	; 1
    3d8a:	0e 94 51 15 	call	0x2aa2	; 0x2aa2 <TFT_Text>
	TFT_Text("INCORRECT",57,212,16,red,white);
    3d8e:	00 e0       	ldi	r16, 0x00	; 0
    3d90:	18 ef       	ldi	r17, 0xF8	; 248
    3d92:	20 e1       	ldi	r18, 0x10	; 16
    3d94:	44 ed       	ldi	r20, 0xD4	; 212
    3d96:	50 e0       	ldi	r21, 0x00	; 0
    3d98:	69 e3       	ldi	r22, 0x39	; 57
    3d9a:	70 e0       	ldi	r23, 0x00	; 0
    3d9c:	81 ea       	ldi	r24, 0xA1	; 161
    3d9e:	91 e0       	ldi	r25, 0x01	; 1
    3da0:	0e 94 51 15 	call	0x2aa2	; 0x2aa2 <TFT_Text>
	while (!(PIND & (1<<PD3)));  // to eliminate the unwanted button press
    3da4:	83 9b       	sbis	0x10, 3	; 16
    3da6:	fe cf       	rjmp	.-4      	; 0x3da4 <main+0xbea>
	while(1)
	{
		if (!(PIND & (1<<PD3)))
    3da8:	83 99       	sbic	0x10, 3	; 16
    3daa:	fe cf       	rjmp	.-4      	; 0x3da8 <main+0xbee>
		{
			Read_TPval(TPval);
    3dac:	83 2d       	mov	r24, r3
    3dae:	92 2d       	mov	r25, r2
    3db0:	0e 94 49 17 	call	0x2e92	; 0x2e92 <Read_TPval>
    3db4:	af e1       	ldi	r26, 0x1F	; 31
    3db6:	be e4       	ldi	r27, 0x4E	; 78
    3db8:	11 97       	sbiw	r26, 0x01	; 1
    3dba:	f1 f7       	brne	.-4      	; 0x3db8 <main+0xbfe>
    3dbc:	00 c0       	rjmp	.+0      	; 0x3dbe <main+0xc04>
    3dbe:	00 00       	nop
			_delay_ms(10);
			Read_TPval(TPval);
    3dc0:	83 2d       	mov	r24, r3
    3dc2:	92 2d       	mov	r25, r2
    3dc4:	0e 94 49 17 	call	0x2e92	; 0x2e92 <Read_TPval>
			//TFT_PutsInt(TPval[0],4,0,0,8,blue,white);
			//TFT_PutsInt(TPval[1],4,40,0,8,blue,white);
			if (TPval[1]>60 && TPval[1]<195)
    3dc8:	2b 81       	ldd	r18, Y+3	; 0x03
    3dca:	3c 81       	ldd	r19, Y+4	; 0x04
    3dcc:	2d 53       	subi	r18, 0x3D	; 61
    3dce:	31 09       	sbc	r19, r1
    3dd0:	26 38       	cpi	r18, 0x86	; 134
    3dd2:	31 05       	cpc	r19, r1
    3dd4:	48 f7       	brcc	.-46     	; 0x3da8 <main+0xbee>
			{
				if (TPval[0]>120 && TPval[0]<150)  //Correct button
    3dd6:	29 81       	ldd	r18, Y+1	; 0x01
    3dd8:	3a 81       	ldd	r19, Y+2	; 0x02
    3dda:	a9 01       	movw	r20, r18
    3ddc:	49 57       	subi	r20, 0x79	; 121
    3dde:	51 09       	sbc	r21, r1
    3de0:	4d 31       	cpi	r20, 0x1D	; 29
    3de2:	51 05       	cpc	r21, r1
    3de4:	80 f0       	brcs	.+32     	; 0x3e06 <main+0xc4c>
				{
					break;
				}
				else if (TPval[0]>75 && TPval[0]<105)  // Incorrect button
    3de6:	2c 54       	subi	r18, 0x4C	; 76
    3de8:	31 09       	sbc	r19, r1
    3dea:	2d 31       	cpi	r18, 0x1D	; 29
    3dec:	31 05       	cpc	r19, r1
    3dee:	08 f4       	brcc	.+2      	; 0x3df2 <main+0xc38>
    3df0:	fd ca       	rjmp	.-2566   	; 0x33ec <main+0x232>
    3df2:	bf ef       	ldi	r27, 0xFF	; 255
    3df4:	00 e7       	ldi	r16, 0x70	; 112
    3df6:	12 e0       	ldi	r17, 0x02	; 2
    3df8:	b1 50       	subi	r27, 0x01	; 1
    3dfa:	00 40       	sbci	r16, 0x00	; 0
    3dfc:	10 40       	sbci	r17, 0x00	; 0
    3dfe:	e1 f7       	brne	.-8      	; 0x3df8 <main+0xc3e>
    3e00:	00 c0       	rjmp	.+0      	; 0x3e02 <main+0xc48>
    3e02:	00 00       	nop
    3e04:	d1 cf       	rjmp	.-94     	; 0x3da8 <main+0xbee>
    3e06:	69 8a       	std	Y+17, r6	; 0x11
    3e08:	7a 8a       	std	Y+18, r7	; 0x12
    3e0a:	8b 8a       	std	Y+19, r8	; 0x13
    3e0c:	9c 8a       	std	Y+20, r9	; 0x14
    3e0e:	7e a4       	ldd	r7, Y+46	; 0x2e
    3e10:	9f a4       	ldd	r9, Y+47	; 0x2f
    3e12:	88 a8       	ldd	r8, Y+48	; 0x30
    3e14:	29 8d       	ldd	r18, Y+25	; 0x19
    3e16:	2b 87       	std	Y+11, r18	; 0x0b
    3e18:	3a 8d       	ldd	r19, Y+26	; 0x1a
    3e1a:	3c 87       	std	Y+12, r19	; 0x0c
    3e1c:	8b 8d       	ldd	r24, Y+27	; 0x1b
    3e1e:	8d 87       	std	Y+13, r24	; 0x0d
    3e20:	9c 8d       	ldd	r25, Y+28	; 0x1c
    3e22:	9e 87       	std	Y+14, r25	; 0x0e
    3e24:	ad 89       	ldd	r26, Y+21	; 0x15
    3e26:	af 83       	std	Y+7, r26	; 0x07
    3e28:	be 89       	ldd	r27, Y+22	; 0x16
    3e2a:	b8 87       	std	Y+8, r27	; 0x08
    3e2c:	0f 89       	ldd	r16, Y+23	; 0x17
    3e2e:	09 87       	std	Y+9, r16	; 0x09
    3e30:	18 8d       	ldd	r17, Y+24	; 0x18
    3e32:	1a 87       	std	Y+10, r17	; 0x0a
		}
	}
	//End confirmation input
	
	//Start progress page
	TFT_Fill(back_color);
    3e34:	8f e1       	ldi	r24, 0x1F	; 31
    3e36:	90 e0       	ldi	r25, 0x00	; 0
    3e38:	0e 94 6f 13 	call	0x26de	; 0x26de <TFT_Fill>
	TFT_Text("Progress monitor...",20,20,8,white,back_color);
    3e3c:	0f 2e       	mov	r0, r31
    3e3e:	ff e1       	ldi	r31, 0x1F	; 31
    3e40:	ef 2e       	mov	r14, r31
    3e42:	f1 2c       	mov	r15, r1
    3e44:	f0 2d       	mov	r31, r0
    3e46:	0f ef       	ldi	r16, 0xFF	; 255
    3e48:	1f ef       	ldi	r17, 0xFF	; 255
    3e4a:	28 e0       	ldi	r18, 0x08	; 8
    3e4c:	44 e1       	ldi	r20, 0x14	; 20
    3e4e:	50 e0       	ldi	r21, 0x00	; 0
    3e50:	64 e1       	ldi	r22, 0x14	; 20
    3e52:	70 e0       	ldi	r23, 0x00	; 0
    3e54:	8b ea       	ldi	r24, 0xAB	; 171
    3e56:	91 e0       	ldi	r25, 0x01	; 1
    3e58:	0e 94 51 15 	call	0x2aa2	; 0x2aa2 <TFT_Text>
	
	TFT_Box(30,40,210,56,white);
    3e5c:	28 e3       	ldi	r18, 0x38	; 56
    3e5e:	30 e0       	ldi	r19, 0x00	; 0
    3e60:	42 ed       	ldi	r20, 0xD2	; 210
    3e62:	50 e0       	ldi	r21, 0x00	; 0
    3e64:	68 e2       	ldi	r22, 0x28	; 40
    3e66:	70 e0       	ldi	r23, 0x00	; 0
    3e68:	8e e1       	ldi	r24, 0x1E	; 30
    3e6a:	90 e0       	ldi	r25, 0x00	; 0
    3e6c:	0e 94 96 13 	call	0x272c	; 0x272c <TFT_Box>
	TFT_Rectangle(30,56,210,120,white);
    3e70:	28 e7       	ldi	r18, 0x78	; 120
    3e72:	30 e0       	ldi	r19, 0x00	; 0
    3e74:	42 ed       	ldi	r20, 0xD2	; 210
    3e76:	50 e0       	ldi	r21, 0x00	; 0
    3e78:	68 e3       	ldi	r22, 0x38	; 56
    3e7a:	70 e0       	ldi	r23, 0x00	; 0
    3e7c:	8e e1       	ldi	r24, 0x1E	; 30
    3e7e:	90 e0       	ldi	r25, 0x00	; 0
    3e80:	0e 94 1b 14 	call	0x2836	; 0x2836 <TFT_Rectangle>
	TFT_Text("Water:",35,44,8,black,white);
    3e84:	ee 24       	eor	r14, r14
    3e86:	ea 94       	dec	r14
    3e88:	fe 2c       	mov	r15, r14
    3e8a:	00 e0       	ldi	r16, 0x00	; 0
    3e8c:	10 e0       	ldi	r17, 0x00	; 0
    3e8e:	28 e0       	ldi	r18, 0x08	; 8
    3e90:	4c e2       	ldi	r20, 0x2C	; 44
    3e92:	50 e0       	ldi	r21, 0x00	; 0
    3e94:	63 e2       	ldi	r22, 0x23	; 35
    3e96:	70 e0       	ldi	r23, 0x00	; 0
    3e98:	8f eb       	ldi	r24, 0xBF	; 191
    3e9a:	91 e0       	ldi	r25, 0x01	; 1
    3e9c:	0e 94 51 15 	call	0x2aa2	; 0x2aa2 <TFT_Text>
	TFT_Text("Status   : Valve Off",35,60,8,white,back_color); // Idle, Loading, Complete//On
    3ea0:	0f 2e       	mov	r0, r31
    3ea2:	ff e1       	ldi	r31, 0x1F	; 31
    3ea4:	ef 2e       	mov	r14, r31
    3ea6:	f1 2c       	mov	r15, r1
    3ea8:	f0 2d       	mov	r31, r0
    3eaa:	0f ef       	ldi	r16, 0xFF	; 255
    3eac:	1f ef       	ldi	r17, 0xFF	; 255
    3eae:	28 e0       	ldi	r18, 0x08	; 8
    3eb0:	4c e3       	ldi	r20, 0x3C	; 60
    3eb2:	50 e0       	ldi	r21, 0x00	; 0
    3eb4:	63 e2       	ldi	r22, 0x23	; 35
    3eb6:	70 e0       	ldi	r23, 0x00	; 0
    3eb8:	86 ec       	ldi	r24, 0xC6	; 198
    3eba:	91 e0       	ldi	r25, 0x01	; 1
    3ebc:	0e 94 51 15 	call	0x2aa2	; 0x2aa2 <TFT_Text>
	TFT_Text("0   %     0   Liter",43,72,8,white,back_color);
    3ec0:	28 e0       	ldi	r18, 0x08	; 8
    3ec2:	48 e4       	ldi	r20, 0x48	; 72
    3ec4:	50 e0       	ldi	r21, 0x00	; 0
    3ec6:	6b e2       	ldi	r22, 0x2B	; 43
    3ec8:	70 e0       	ldi	r23, 0x00	; 0
    3eca:	8b ed       	ldi	r24, 0xDB	; 219
    3ecc:	91 e0       	ldi	r25, 0x01	; 1
    3ece:	0e 94 51 15 	call	0x2aa2	; 0x2aa2 <TFT_Text>
	TFT_Text("Target   :     Liter",35,84,8,white,back_color);
    3ed2:	28 e0       	ldi	r18, 0x08	; 8
    3ed4:	44 e5       	ldi	r20, 0x54	; 84
    3ed6:	50 e0       	ldi	r21, 0x00	; 0
    3ed8:	63 e2       	ldi	r22, 0x23	; 35
    3eda:	70 e0       	ldi	r23, 0x00	; 0
    3edc:	8f ee       	ldi	r24, 0xEF	; 239
    3ede:	91 e0       	ldi	r25, 0x01	; 1
    3ee0:	0e 94 51 15 	call	0x2aa2	; 0x2aa2 <TFT_Text>
	TFT_PutsInt(water,-1,123,84,8,white,back_color);
    3ee4:	0f 2e       	mov	r0, r31
    3ee6:	ff e1       	ldi	r31, 0x1F	; 31
    3ee8:	af 2e       	mov	r10, r31
    3eea:	b1 2c       	mov	r11, r1
    3eec:	f0 2d       	mov	r31, r0
    3eee:	cc 24       	eor	r12, r12
    3ef0:	ca 94       	dec	r12
    3ef2:	dc 2c       	mov	r13, r12
    3ef4:	68 94       	set
    3ef6:	ee 24       	eor	r14, r14
    3ef8:	e3 f8       	bld	r14, 3
    3efa:	04 e5       	ldi	r16, 0x54	; 84
    3efc:	10 e0       	ldi	r17, 0x00	; 0
    3efe:	2b e7       	ldi	r18, 0x7B	; 123
    3f00:	30 e0       	ldi	r19, 0x00	; 0
    3f02:	4f ef       	ldi	r20, 0xFF	; 255
    3f04:	5f ef       	ldi	r21, 0xFF	; 255
    3f06:	69 2d       	mov	r22, r9
    3f08:	78 2d       	mov	r23, r8
    3f0a:	8d 8d       	ldd	r24, Y+29	; 0x1d
    3f0c:	9e 8d       	ldd	r25, Y+30	; 0x1e
    3f0e:	0e 94 e4 15 	call	0x2bc8	; 0x2bc8 <TFT_PutsInt>
	TFT_Text("Remaining:     Liter",35,102,8,white,back_color);
    3f12:	0f 2e       	mov	r0, r31
    3f14:	ff e1       	ldi	r31, 0x1F	; 31
    3f16:	ef 2e       	mov	r14, r31
    3f18:	f1 2c       	mov	r15, r1
    3f1a:	f0 2d       	mov	r31, r0
    3f1c:	0f ef       	ldi	r16, 0xFF	; 255
    3f1e:	1f ef       	ldi	r17, 0xFF	; 255
    3f20:	28 e0       	ldi	r18, 0x08	; 8
    3f22:	46 e6       	ldi	r20, 0x66	; 102
    3f24:	50 e0       	ldi	r21, 0x00	; 0
    3f26:	63 e2       	ldi	r22, 0x23	; 35
    3f28:	70 e0       	ldi	r23, 0x00	; 0
    3f2a:	84 e0       	ldi	r24, 0x04	; 4
    3f2c:	92 e0       	ldi	r25, 0x02	; 2
    3f2e:	0e 94 51 15 	call	0x2aa2	; 0x2aa2 <TFT_Text>
	TFT_PutsInt(water,4,123,102,8,white,back_color);
    3f32:	68 94       	set
    3f34:	ee 24       	eor	r14, r14
    3f36:	e3 f8       	bld	r14, 3
    3f38:	06 e6       	ldi	r16, 0x66	; 102
    3f3a:	10 e0       	ldi	r17, 0x00	; 0
    3f3c:	2b e7       	ldi	r18, 0x7B	; 123
    3f3e:	30 e0       	ldi	r19, 0x00	; 0
    3f40:	44 e0       	ldi	r20, 0x04	; 4
    3f42:	50 e0       	ldi	r21, 0x00	; 0
    3f44:	69 2d       	mov	r22, r9
    3f46:	78 2d       	mov	r23, r8
    3f48:	8d 8d       	ldd	r24, Y+29	; 0x1d
    3f4a:	9e 8d       	ldd	r25, Y+30	; 0x1e
    3f4c:	0e 94 e4 15 	call	0x2bc8	; 0x2bc8 <TFT_PutsInt>
	
	TFT_Box(30,128,210,144,white);
    3f50:	0f ef       	ldi	r16, 0xFF	; 255
    3f52:	1f ef       	ldi	r17, 0xFF	; 255
    3f54:	20 e9       	ldi	r18, 0x90	; 144
    3f56:	30 e0       	ldi	r19, 0x00	; 0
    3f58:	42 ed       	ldi	r20, 0xD2	; 210
    3f5a:	50 e0       	ldi	r21, 0x00	; 0
    3f5c:	60 e8       	ldi	r22, 0x80	; 128
    3f5e:	70 e0       	ldi	r23, 0x00	; 0
    3f60:	8e e1       	ldi	r24, 0x1E	; 30
    3f62:	90 e0       	ldi	r25, 0x00	; 0
    3f64:	0e 94 96 13 	call	0x272c	; 0x272c <TFT_Box>
	TFT_Rectangle(30,144,210,208,white);
    3f68:	20 ed       	ldi	r18, 0xD0	; 208
    3f6a:	30 e0       	ldi	r19, 0x00	; 0
    3f6c:	42 ed       	ldi	r20, 0xD2	; 210
    3f6e:	50 e0       	ldi	r21, 0x00	; 0
    3f70:	60 e9       	ldi	r22, 0x90	; 144
    3f72:	70 e0       	ldi	r23, 0x00	; 0
    3f74:	8e e1       	ldi	r24, 0x1E	; 30
    3f76:	90 e0       	ldi	r25, 0x00	; 0
    3f78:	0e 94 1b 14 	call	0x2836	; 0x2836 <TFT_Rectangle>
	TFT_Text("Temperature:",35,132,8,black,white);
    3f7c:	ee 24       	eor	r14, r14
    3f7e:	ea 94       	dec	r14
    3f80:	fe 2c       	mov	r15, r14
    3f82:	00 e0       	ldi	r16, 0x00	; 0
    3f84:	10 e0       	ldi	r17, 0x00	; 0
    3f86:	28 e0       	ldi	r18, 0x08	; 8
    3f88:	44 e8       	ldi	r20, 0x84	; 132
    3f8a:	50 e0       	ldi	r21, 0x00	; 0
    3f8c:	63 e2       	ldi	r22, 0x23	; 35
    3f8e:	70 e0       	ldi	r23, 0x00	; 0
    3f90:	8c e8       	ldi	r24, 0x8C	; 140
    3f92:	90 e0       	ldi	r25, 0x00	; 0
    3f94:	0e 94 51 15 	call	0x2aa2	; 0x2aa2 <TFT_Text>
	TFT_Text("Status   : Valve Off",35,148,8,white,back_color);  //NC, Rising, Complete
    3f98:	0f 2e       	mov	r0, r31
    3f9a:	ff e1       	ldi	r31, 0x1F	; 31
    3f9c:	ef 2e       	mov	r14, r31
    3f9e:	f1 2c       	mov	r15, r1
    3fa0:	f0 2d       	mov	r31, r0
    3fa2:	0f ef       	ldi	r16, 0xFF	; 255
    3fa4:	1f ef       	ldi	r17, 0xFF	; 255
    3fa6:	28 e0       	ldi	r18, 0x08	; 8
    3fa8:	44 e9       	ldi	r20, 0x94	; 148
    3faa:	50 e0       	ldi	r21, 0x00	; 0
    3fac:	63 e2       	ldi	r22, 0x23	; 35
    3fae:	70 e0       	ldi	r23, 0x00	; 0
    3fb0:	86 ec       	ldi	r24, 0xC6	; 198
    3fb2:	91 e0       	ldi	r25, 0x01	; 1
    3fb4:	0e 94 51 15 	call	0x2aa2	; 0x2aa2 <TFT_Text>
	TFT_Text("0   %     N   Deg.C",43,160,8,white,back_color);
    3fb8:	28 e0       	ldi	r18, 0x08	; 8
    3fba:	40 ea       	ldi	r20, 0xA0	; 160
    3fbc:	50 e0       	ldi	r21, 0x00	; 0
    3fbe:	6b e2       	ldi	r22, 0x2B	; 43
    3fc0:	70 e0       	ldi	r23, 0x00	; 0
    3fc2:	89 e1       	ldi	r24, 0x19	; 25
    3fc4:	92 e0       	ldi	r25, 0x02	; 2
    3fc6:	0e 94 51 15 	call	0x2aa2	; 0x2aa2 <TFT_Text>
	TFT_Text("Target   :     Deg.C",35,172,8,white,back_color);
    3fca:	28 e0       	ldi	r18, 0x08	; 8
    3fcc:	4c ea       	ldi	r20, 0xAC	; 172
    3fce:	50 e0       	ldi	r21, 0x00	; 0
    3fd0:	63 e2       	ldi	r22, 0x23	; 35
    3fd2:	70 e0       	ldi	r23, 0x00	; 0
    3fd4:	8d e2       	ldi	r24, 0x2D	; 45
    3fd6:	92 e0       	ldi	r25, 0x02	; 2
    3fd8:	0e 94 51 15 	call	0x2aa2	; 0x2aa2 <TFT_Text>
	TFT_PutsInt(temp,-1,123,172,8,white,back_color);
    3fdc:	68 94       	set
    3fde:	ee 24       	eor	r14, r14
    3fe0:	e3 f8       	bld	r14, 3
    3fe2:	0c ea       	ldi	r16, 0xAC	; 172
    3fe4:	10 e0       	ldi	r17, 0x00	; 0
    3fe6:	2b e7       	ldi	r18, 0x7B	; 123
    3fe8:	30 e0       	ldi	r19, 0x00	; 0
    3fea:	4f ef       	ldi	r20, 0xFF	; 255
    3fec:	5f ef       	ldi	r21, 0xFF	; 255
    3fee:	6f 8d       	ldd	r22, Y+31	; 0x1f
    3ff0:	78 a1       	ldd	r23, Y+32	; 0x20
    3ff2:	89 a1       	ldd	r24, Y+33	; 0x21
    3ff4:	9a a1       	ldd	r25, Y+34	; 0x22
    3ff6:	0e 94 e4 15 	call	0x2bc8	; 0x2bc8 <TFT_PutsInt>
	TFT_Text("Remaining:     Deg.C",35,188,8,white,back_color);
    3ffa:	0f 2e       	mov	r0, r31
    3ffc:	ff e1       	ldi	r31, 0x1F	; 31
    3ffe:	ef 2e       	mov	r14, r31
    4000:	f1 2c       	mov	r15, r1
    4002:	f0 2d       	mov	r31, r0
    4004:	0f ef       	ldi	r16, 0xFF	; 255
    4006:	1f ef       	ldi	r17, 0xFF	; 255
    4008:	28 e0       	ldi	r18, 0x08	; 8
    400a:	4c eb       	ldi	r20, 0xBC	; 188
    400c:	50 e0       	ldi	r21, 0x00	; 0
    400e:	63 e2       	ldi	r22, 0x23	; 35
    4010:	70 e0       	ldi	r23, 0x00	; 0
    4012:	82 e4       	ldi	r24, 0x42	; 66
    4014:	92 e0       	ldi	r25, 0x02	; 2
    4016:	0e 94 51 15 	call	0x2aa2	; 0x2aa2 <TFT_Text>
	TFT_PutsInt(temp,3,123,188,8,white,back_color);
    401a:	68 94       	set
    401c:	ee 24       	eor	r14, r14
    401e:	e3 f8       	bld	r14, 3
    4020:	0c eb       	ldi	r16, 0xBC	; 188
    4022:	10 e0       	ldi	r17, 0x00	; 0
    4024:	2b e7       	ldi	r18, 0x7B	; 123
    4026:	30 e0       	ldi	r19, 0x00	; 0
    4028:	43 e0       	ldi	r20, 0x03	; 3
    402a:	50 e0       	ldi	r21, 0x00	; 0
    402c:	6f 8d       	ldd	r22, Y+31	; 0x1f
    402e:	78 a1       	ldd	r23, Y+32	; 0x20
    4030:	89 a1       	ldd	r24, Y+33	; 0x21
    4032:	9a a1       	ldd	r25, Y+34	; 0x22
    4034:	0e 94 e4 15 	call	0x2bc8	; 0x2bc8 <TFT_PutsInt>
	
	TFT_Box(30,216,210,232,white);
    4038:	0f ef       	ldi	r16, 0xFF	; 255
    403a:	1f ef       	ldi	r17, 0xFF	; 255
    403c:	28 ee       	ldi	r18, 0xE8	; 232
    403e:	30 e0       	ldi	r19, 0x00	; 0
    4040:	42 ed       	ldi	r20, 0xD2	; 210
    4042:	50 e0       	ldi	r21, 0x00	; 0
    4044:	68 ed       	ldi	r22, 0xD8	; 216
    4046:	70 e0       	ldi	r23, 0x00	; 0
    4048:	8e e1       	ldi	r24, 0x1E	; 30
    404a:	90 e0       	ldi	r25, 0x00	; 0
    404c:	0e 94 96 13 	call	0x272c	; 0x272c <TFT_Box>
	TFT_Rectangle(30,232,210,296,white);
    4050:	28 e2       	ldi	r18, 0x28	; 40
    4052:	31 e0       	ldi	r19, 0x01	; 1
    4054:	42 ed       	ldi	r20, 0xD2	; 210
    4056:	50 e0       	ldi	r21, 0x00	; 0
    4058:	68 ee       	ldi	r22, 0xE8	; 232
    405a:	70 e0       	ldi	r23, 0x00	; 0
    405c:	8e e1       	ldi	r24, 0x1E	; 30
    405e:	90 e0       	ldi	r25, 0x00	; 0
    4060:	0e 94 1b 14 	call	0x2836	; 0x2836 <TFT_Rectangle>
	TFT_Text("Time:",35,220,8,black,white);
    4064:	ee 24       	eor	r14, r14
    4066:	ea 94       	dec	r14
    4068:	fe 2c       	mov	r15, r14
    406a:	00 e0       	ldi	r16, 0x00	; 0
    406c:	10 e0       	ldi	r17, 0x00	; 0
    406e:	28 e0       	ldi	r18, 0x08	; 8
    4070:	4c ed       	ldi	r20, 0xDC	; 220
    4072:	50 e0       	ldi	r21, 0x00	; 0
    4074:	63 e2       	ldi	r22, 0x23	; 35
    4076:	70 e0       	ldi	r23, 0x00	; 0
    4078:	87 e5       	ldi	r24, 0x57	; 87
    407a:	92 e0       	ldi	r25, 0x02	; 2
    407c:	0e 94 51 15 	call	0x2aa2	; 0x2aa2 <TFT_Text>
	TFT_Text("Status   : Idle",35,236,8,white,back_color);   //Idle , Counting, Complete
    4080:	0f 2e       	mov	r0, r31
    4082:	ff e1       	ldi	r31, 0x1F	; 31
    4084:	ef 2e       	mov	r14, r31
    4086:	f1 2c       	mov	r15, r1
    4088:	f0 2d       	mov	r31, r0
    408a:	0f ef       	ldi	r16, 0xFF	; 255
    408c:	1f ef       	ldi	r17, 0xFF	; 255
    408e:	28 e0       	ldi	r18, 0x08	; 8
    4090:	4c ee       	ldi	r20, 0xEC	; 236
    4092:	50 e0       	ldi	r21, 0x00	; 0
    4094:	63 e2       	ldi	r22, 0x23	; 35
    4096:	70 e0       	ldi	r23, 0x00	; 0
    4098:	8d e5       	ldi	r24, 0x5D	; 93
    409a:	92 e0       	ldi	r25, 0x02	; 2
    409c:	0e 94 51 15 	call	0x2aa2	; 0x2aa2 <TFT_Text>
	TFT_Text("Target   :     min",35,248,8,white,back_color);
    40a0:	28 e0       	ldi	r18, 0x08	; 8
    40a2:	48 ef       	ldi	r20, 0xF8	; 248
    40a4:	50 e0       	ldi	r21, 0x00	; 0
    40a6:	63 e2       	ldi	r22, 0x23	; 35
    40a8:	70 e0       	ldi	r23, 0x00	; 0
    40aa:	8d e6       	ldi	r24, 0x6D	; 109
    40ac:	92 e0       	ldi	r25, 0x02	; 2
    40ae:	0e 94 51 15 	call	0x2aa2	; 0x2aa2 <TFT_Text>
	TFT_PutsInt(time,-1,123,248,8,white,back_color);
    40b2:	68 94       	set
    40b4:	ee 24       	eor	r14, r14
    40b6:	e3 f8       	bld	r14, 3
    40b8:	08 ef       	ldi	r16, 0xF8	; 248
    40ba:	10 e0       	ldi	r17, 0x00	; 0
    40bc:	2b e7       	ldi	r18, 0x7B	; 123
    40be:	30 e0       	ldi	r19, 0x00	; 0
    40c0:	4f ef       	ldi	r20, 0xFF	; 255
    40c2:	5f ef       	ldi	r21, 0xFF	; 255
    40c4:	67 2d       	mov	r22, r7
    40c6:	7b a1       	ldd	r23, Y+35	; 0x23
    40c8:	8c a1       	ldd	r24, Y+36	; 0x24
    40ca:	9d a1       	ldd	r25, Y+37	; 0x25
    40cc:	0e 94 e4 15 	call	0x2bc8	; 0x2bc8 <TFT_PutsInt>
	TFT_Text("Counted  : 0      min",35,260,8,white,back_color);
    40d0:	0f 2e       	mov	r0, r31
    40d2:	ff e1       	ldi	r31, 0x1F	; 31
    40d4:	ef 2e       	mov	r14, r31
    40d6:	f1 2c       	mov	r15, r1
    40d8:	f0 2d       	mov	r31, r0
    40da:	0f ef       	ldi	r16, 0xFF	; 255
    40dc:	1f ef       	ldi	r17, 0xFF	; 255
    40de:	28 e0       	ldi	r18, 0x08	; 8
    40e0:	44 e0       	ldi	r20, 0x04	; 4
    40e2:	51 e0       	ldi	r21, 0x01	; 1
    40e4:	63 e2       	ldi	r22, 0x23	; 35
    40e6:	70 e0       	ldi	r23, 0x00	; 0
    40e8:	80 e8       	ldi	r24, 0x80	; 128
    40ea:	92 e0       	ldi	r25, 0x02	; 2
    40ec:	0e 94 51 15 	call	0x2aa2	; 0x2aa2 <TFT_Text>
	TFT_Text("Remaining:       min",35,276,8,white,back_color);
    40f0:	28 e0       	ldi	r18, 0x08	; 8
    40f2:	44 e1       	ldi	r20, 0x14	; 20
    40f4:	51 e0       	ldi	r21, 0x01	; 1
    40f6:	63 e2       	ldi	r22, 0x23	; 35
    40f8:	70 e0       	ldi	r23, 0x00	; 0
    40fa:	86 e9       	ldi	r24, 0x96	; 150
    40fc:	92 e0       	ldi	r25, 0x02	; 2
    40fe:	0e 94 51 15 	call	0x2aa2	; 0x2aa2 <TFT_Text>
	TFT_PutsInt(time,4,123,276,8,white,back_color);
    4102:	68 94       	set
    4104:	ee 24       	eor	r14, r14
    4106:	e3 f8       	bld	r14, 3
    4108:	04 e1       	ldi	r16, 0x14	; 20
    410a:	11 e0       	ldi	r17, 0x01	; 1
    410c:	2b e7       	ldi	r18, 0x7B	; 123
    410e:	30 e0       	ldi	r19, 0x00	; 0
    4110:	44 e0       	ldi	r20, 0x04	; 4
    4112:	50 e0       	ldi	r21, 0x00	; 0
    4114:	67 2d       	mov	r22, r7
    4116:	7b a1       	ldd	r23, Y+35	; 0x23
    4118:	8c a1       	ldd	r24, Y+36	; 0x24
    411a:	9d a1       	ldd	r25, Y+37	; 0x25
    411c:	0e 94 e4 15 	call	0x2bc8	; 0x2bc8 <TFT_PutsInt>
	
	//Applying one by one method to calculate water, temperature and time measurement
	
	i_water = 0;
    4120:	10 92 de 02 	sts	0x02DE, r1
    4124:	10 92 df 02 	sts	0x02DF, r1
    4128:	10 92 e0 02 	sts	0x02E0, r1
    412c:	10 92 e1 02 	sts	0x02E1, r1
	i_time = 0;
    4130:	10 92 da 02 	sts	0x02DA, r1
    4134:	10 92 db 02 	sts	0x02DB, r1
    4138:	10 92 dc 02 	sts	0x02DC, r1
    413c:	10 92 dd 02 	sts	0x02DD, r1
    4140:	41 c0       	rjmp	.+130    	; 0x41c4 <main+0x100a>
	while (1) //This while loop is for water valve open after 1 second
	{
		if (i_time > 0)
		{
			PORTD |= (1<<0);  //This port pin is for water valve on
    4142:	90 9a       	sbi	0x12, 0	; 18
			TFT_Text("On ",171,60,8,white,red);
    4144:	0f 2e       	mov	r0, r31
    4146:	e1 2c       	mov	r14, r1
    4148:	f8 ef       	ldi	r31, 0xF8	; 248
    414a:	ff 2e       	mov	r15, r31
    414c:	f0 2d       	mov	r31, r0
    414e:	0f ef       	ldi	r16, 0xFF	; 255
    4150:	1f ef       	ldi	r17, 0xFF	; 255
    4152:	28 e0       	ldi	r18, 0x08	; 8
    4154:	4c e3       	ldi	r20, 0x3C	; 60
    4156:	50 e0       	ldi	r21, 0x00	; 0
    4158:	6b ea       	ldi	r22, 0xAB	; 171
    415a:	70 e0       	ldi	r23, 0x00	; 0
    415c:	8b ea       	ldi	r24, 0xAB	; 171
    415e:	92 e0       	ldi	r25, 0x02	; 2
    4160:	0e 94 51 15 	call	0x2aa2	; 0x2aa2 <TFT_Text>
		TFT_PutsInt(i_time,4,5,5,8,blue,white);
	}
	
	while (1) //This while loop is for water calculation
	{
		water_read = (i_water*10)/33; //This is the assumption to calculate water 1 liter = 2 rotation of propeller
    4164:	80 91 de 02 	lds	r24, 0x02DE
    4168:	90 91 df 02 	lds	r25, 0x02DF
    416c:	a0 91 e0 02 	lds	r26, 0x02E0
    4170:	b0 91 e1 02 	lds	r27, 0x02E1
    4174:	88 0f       	add	r24, r24
    4176:	99 1f       	adc	r25, r25
    4178:	aa 1f       	adc	r26, r26
    417a:	bb 1f       	adc	r27, r27
    417c:	ac 01       	movw	r20, r24
    417e:	bd 01       	movw	r22, r26
    4180:	44 0f       	add	r20, r20
    4182:	55 1f       	adc	r21, r21
    4184:	66 1f       	adc	r22, r22
    4186:	77 1f       	adc	r23, r23
    4188:	44 0f       	add	r20, r20
    418a:	55 1f       	adc	r21, r21
    418c:	66 1f       	adc	r22, r22
    418e:	77 1f       	adc	r23, r23
    4190:	8c 01       	movw	r16, r24
    4192:	9d 01       	movw	r18, r26
    4194:	04 0f       	add	r16, r20
    4196:	15 1f       	adc	r17, r21
    4198:	26 1f       	adc	r18, r22
    419a:	37 1f       	adc	r19, r23
    419c:	c9 01       	movw	r24, r18
    419e:	b8 01       	movw	r22, r16
    41a0:	21 e2       	ldi	r18, 0x21	; 33
    41a2:	30 e0       	ldi	r19, 0x00	; 0
    41a4:	40 e0       	ldi	r20, 0x00	; 0
    41a6:	50 e0       	ldi	r21, 0x00	; 0
    41a8:	0e 94 42 28 	call	0x5084	; 0x5084 <__udivmodsi4>
    41ac:	29 01       	movw	r4, r18
    41ae:	3a 01       	movw	r6, r20
		if (water_read >= water)
    41b0:	8f 81       	ldd	r24, Y+7	; 0x07
    41b2:	98 85       	ldd	r25, Y+8	; 0x08
    41b4:	a9 85       	ldd	r26, Y+9	; 0x09
    41b6:	ba 85       	ldd	r27, Y+10	; 0x0a
    41b8:	28 17       	cp	r18, r24
    41ba:	39 07       	cpc	r19, r25
    41bc:	4a 07       	cpc	r20, r26
    41be:	5b 07       	cpc	r21, r27
    41c0:	28 f1       	brcs	.+74     	; 0x420c <main+0x1052>
    41c2:	8a c3       	rjmp	.+1812   	; 0x48d8 <main+0x171e>
		{
			PORTD |= (1<<0);  //This port pin is for water valve on
			TFT_Text("On ",171,60,8,white,red);
			break;
		}
		TFT_PutsInt(i_time,4,5,5,8,blue,white);
    41c4:	aa 24       	eor	r10, r10
    41c6:	aa 94       	dec	r10
    41c8:	ba 2c       	mov	r11, r10
    41ca:	0f 2e       	mov	r0, r31
    41cc:	ff e1       	ldi	r31, 0x1F	; 31
    41ce:	cf 2e       	mov	r12, r31
    41d0:	d1 2c       	mov	r13, r1
    41d2:	f0 2d       	mov	r31, r0
    41d4:	68 94       	set
    41d6:	ee 24       	eor	r14, r14
    41d8:	e3 f8       	bld	r14, 3
    41da:	05 e0       	ldi	r16, 0x05	; 5
    41dc:	10 e0       	ldi	r17, 0x00	; 0
    41de:	25 e0       	ldi	r18, 0x05	; 5
    41e0:	30 e0       	ldi	r19, 0x00	; 0
    41e2:	44 e0       	ldi	r20, 0x04	; 4
    41e4:	50 e0       	ldi	r21, 0x00	; 0
    41e6:	60 e0       	ldi	r22, 0x00	; 0
    41e8:	70 e0       	ldi	r23, 0x00	; 0
    41ea:	80 e0       	ldi	r24, 0x00	; 0
    41ec:	90 e0       	ldi	r25, 0x00	; 0
    41ee:	0e 94 e4 15 	call	0x2bc8	; 0x2bc8 <TFT_PutsInt>
	
	i_water = 0;
	i_time = 0;
	while (1) //This while loop is for water valve open after 1 second
	{
		if (i_time > 0)
    41f2:	80 91 da 02 	lds	r24, 0x02DA
    41f6:	90 91 db 02 	lds	r25, 0x02DB
    41fa:	a0 91 dc 02 	lds	r26, 0x02DC
    41fe:	b0 91 dd 02 	lds	r27, 0x02DD
    4202:	89 2b       	or	r24, r25
    4204:	8a 2b       	or	r24, r26
    4206:	8b 2b       	or	r24, r27
    4208:	e9 f2       	breq	.-70     	; 0x41c4 <main+0x100a>
    420a:	9b cf       	rjmp	.-202    	; 0x4142 <main+0xf88>
		water_read = (i_water*10)/33; //This is the assumption to calculate water 1 liter = 2 rotation of propeller
		if (water_read >= water)
		{
			break;
		}
		else if (!(PIND & (1<<PD3)))
    420c:	83 99       	sbic	0x10, 3	; 16
    420e:	1b c0       	rjmp	.+54     	; 0x4246 <main+0x108c>
		{
			Read_TPval(TPval);
    4210:	ce 01       	movw	r24, r28
    4212:	01 96       	adiw	r24, 0x01	; 1
    4214:	0e 94 49 17 	call	0x2e92	; 0x2e92 <Read_TPval>
    4218:	af e1       	ldi	r26, 0x1F	; 31
    421a:	be e4       	ldi	r27, 0x4E	; 78
    421c:	11 97       	sbiw	r26, 0x01	; 1
    421e:	f1 f7       	brne	.-4      	; 0x421c <main+0x1062>
    4220:	00 c0       	rjmp	.+0      	; 0x4222 <main+0x1068>
    4222:	00 00       	nop
			_delay_ms(10);
			Read_TPval(TPval);
    4224:	ce 01       	movw	r24, r28
    4226:	01 96       	adiw	r24, 0x01	; 1
    4228:	0e 94 49 17 	call	0x2e92	; 0x2e92 <Read_TPval>
			if (TPval[0]>190 && TPval[0]<222 && TPval[1]>37 && TPval[1]<216)
    422c:	89 81       	ldd	r24, Y+1	; 0x01
    422e:	9a 81       	ldd	r25, Y+2	; 0x02
    4230:	8f 5b       	subi	r24, 0xBF	; 191
    4232:	91 09       	sbc	r25, r1
    4234:	4f 97       	sbiw	r24, 0x1f	; 31
    4236:	38 f4       	brcc	.+14     	; 0x4246 <main+0x108c>
    4238:	8b 81       	ldd	r24, Y+3	; 0x03
    423a:	9c 81       	ldd	r25, Y+4	; 0x04
    423c:	86 97       	sbiw	r24, 0x26	; 38
    423e:	82 3b       	cpi	r24, 0xB2	; 178
    4240:	91 05       	cpc	r25, r1
    4242:	08 f4       	brcc	.+2      	; 0x4246 <main+0x108c>
    4244:	81 c0       	rjmp	.+258    	; 0x4348 <main+0x118e>
			{
				break;
			}
		}
		TFT_PutsInt((water_read*100)/water,-1,43,72,8,white,back_color);
    4246:	a4 e6       	ldi	r26, 0x64	; 100
    4248:	b0 e0       	ldi	r27, 0x00	; 0
    424a:	a3 01       	movw	r20, r6
    424c:	92 01       	movw	r18, r4
    424e:	0e 94 92 28 	call	0x5124	; 0x5124 <__muluhisi3>
    4252:	2f 81       	ldd	r18, Y+7	; 0x07
    4254:	38 85       	ldd	r19, Y+8	; 0x08
    4256:	49 85       	ldd	r20, Y+9	; 0x09
    4258:	5a 85       	ldd	r21, Y+10	; 0x0a
    425a:	0e 94 42 28 	call	0x5084	; 0x5084 <__udivmodsi4>
    425e:	ca 01       	movw	r24, r20
    4260:	b9 01       	movw	r22, r18
    4262:	0f 2e       	mov	r0, r31
    4264:	ff e1       	ldi	r31, 0x1F	; 31
    4266:	af 2e       	mov	r10, r31
    4268:	b1 2c       	mov	r11, r1
    426a:	f0 2d       	mov	r31, r0
    426c:	cc 24       	eor	r12, r12
    426e:	ca 94       	dec	r12
    4270:	dc 2c       	mov	r13, r12
    4272:	68 94       	set
    4274:	ee 24       	eor	r14, r14
    4276:	e3 f8       	bld	r14, 3
    4278:	08 e4       	ldi	r16, 0x48	; 72
    427a:	10 e0       	ldi	r17, 0x00	; 0
    427c:	2b e2       	ldi	r18, 0x2B	; 43
    427e:	30 e0       	ldi	r19, 0x00	; 0
    4280:	4f ef       	ldi	r20, 0xFF	; 255
    4282:	5f ef       	ldi	r21, 0xFF	; 255
    4284:	0e 94 e4 15 	call	0x2bc8	; 0x2bc8 <TFT_PutsInt>
		TFT_PutsInt(water_read,-1,123,72,8,white,back_color);
    4288:	2b e7       	ldi	r18, 0x7B	; 123
    428a:	30 e0       	ldi	r19, 0x00	; 0
    428c:	4f ef       	ldi	r20, 0xFF	; 255
    428e:	5f ef       	ldi	r21, 0xFF	; 255
    4290:	c3 01       	movw	r24, r6
    4292:	b2 01       	movw	r22, r4
    4294:	0e 94 e4 15 	call	0x2bc8	; 0x2bc8 <TFT_PutsInt>
		TFT_PutsInt(water-water_read,4,123,102,8,white,back_color);
    4298:	6f 81       	ldd	r22, Y+7	; 0x07
    429a:	78 85       	ldd	r23, Y+8	; 0x08
    429c:	89 85       	ldd	r24, Y+9	; 0x09
    429e:	9a 85       	ldd	r25, Y+10	; 0x0a
    42a0:	64 19       	sub	r22, r4
    42a2:	75 09       	sbc	r23, r5
    42a4:	86 09       	sbc	r24, r6
    42a6:	97 09       	sbc	r25, r7
    42a8:	06 e6       	ldi	r16, 0x66	; 102
    42aa:	10 e0       	ldi	r17, 0x00	; 0
    42ac:	2b e7       	ldi	r18, 0x7B	; 123
    42ae:	30 e0       	ldi	r19, 0x00	; 0
    42b0:	44 e0       	ldi	r20, 0x04	; 4
    42b2:	50 e0       	ldi	r21, 0x00	; 0
    42b4:	0e 94 e4 15 	call	0x2bc8	; 0x2bc8 <TFT_PutsInt>
		TFT_PutsInt(i_time,4,5,5,8,blue,white);
    42b8:	60 91 da 02 	lds	r22, 0x02DA
    42bc:	70 91 db 02 	lds	r23, 0x02DB
    42c0:	80 91 dc 02 	lds	r24, 0x02DC
    42c4:	90 91 dd 02 	lds	r25, 0x02DD
    42c8:	aa 24       	eor	r10, r10
    42ca:	aa 94       	dec	r10
    42cc:	ba 2c       	mov	r11, r10
    42ce:	0f 2e       	mov	r0, r31
    42d0:	ff e1       	ldi	r31, 0x1F	; 31
    42d2:	cf 2e       	mov	r12, r31
    42d4:	d1 2c       	mov	r13, r1
    42d6:	f0 2d       	mov	r31, r0
    42d8:	05 e0       	ldi	r16, 0x05	; 5
    42da:	10 e0       	ldi	r17, 0x00	; 0
    42dc:	25 e0       	ldi	r18, 0x05	; 5
    42de:	30 e0       	ldi	r19, 0x00	; 0
    42e0:	44 e0       	ldi	r20, 0x04	; 4
    42e2:	50 e0       	ldi	r21, 0x00	; 0
    42e4:	0e 94 e4 15 	call	0x2bc8	; 0x2bc8 <TFT_PutsInt>
		TFT_PutsInt(i_time,4,5,5,8,blue,white);
	}
	
	while (1) //This while loop is for water calculation
	{
		water_read = (i_water*10)/33; //This is the assumption to calculate water 1 liter = 2 rotation of propeller
    42e8:	80 91 de 02 	lds	r24, 0x02DE
    42ec:	90 91 df 02 	lds	r25, 0x02DF
    42f0:	a0 91 e0 02 	lds	r26, 0x02E0
    42f4:	b0 91 e1 02 	lds	r27, 0x02E1
    42f8:	88 0f       	add	r24, r24
    42fa:	99 1f       	adc	r25, r25
    42fc:	aa 1f       	adc	r26, r26
    42fe:	bb 1f       	adc	r27, r27
    4300:	ac 01       	movw	r20, r24
    4302:	bd 01       	movw	r22, r26
    4304:	44 0f       	add	r20, r20
    4306:	55 1f       	adc	r21, r21
    4308:	66 1f       	adc	r22, r22
    430a:	77 1f       	adc	r23, r23
    430c:	44 0f       	add	r20, r20
    430e:	55 1f       	adc	r21, r21
    4310:	66 1f       	adc	r22, r22
    4312:	77 1f       	adc	r23, r23
    4314:	8c 01       	movw	r16, r24
    4316:	9d 01       	movw	r18, r26
    4318:	04 0f       	add	r16, r20
    431a:	15 1f       	adc	r17, r21
    431c:	26 1f       	adc	r18, r22
    431e:	37 1f       	adc	r19, r23
    4320:	c9 01       	movw	r24, r18
    4322:	b8 01       	movw	r22, r16
    4324:	21 e2       	ldi	r18, 0x21	; 33
    4326:	30 e0       	ldi	r19, 0x00	; 0
    4328:	40 e0       	ldi	r20, 0x00	; 0
    432a:	50 e0       	ldi	r21, 0x00	; 0
    432c:	0e 94 42 28 	call	0x5084	; 0x5084 <__udivmodsi4>
    4330:	29 01       	movw	r4, r18
    4332:	3a 01       	movw	r6, r20
		if (water_read >= water)
    4334:	8f 81       	ldd	r24, Y+7	; 0x07
    4336:	98 85       	ldd	r25, Y+8	; 0x08
    4338:	a9 85       	ldd	r26, Y+9	; 0x09
    433a:	ba 85       	ldd	r27, Y+10	; 0x0a
    433c:	28 17       	cp	r18, r24
    433e:	39 07       	cpc	r19, r25
    4340:	4a 07       	cpc	r20, r26
    4342:	5b 07       	cpc	r21, r27
    4344:	08 f4       	brcc	.+2      	; 0x4348 <main+0x118e>
    4346:	62 cf       	rjmp	.-316    	; 0x420c <main+0x1052>
		TFT_PutsInt(water_read,-1,123,72,8,white,back_color);
		TFT_PutsInt(water-water_read,4,123,102,8,white,back_color);
		TFT_PutsInt(i_time,4,5,5,8,blue,white);
	}
	
	PORTD &= ~(1<<0); //This port pin is for water valve off
    4348:	90 98       	cbi	0x12, 0	; 18
	TFT_Text("Off",171,60,8,white,back_color);
    434a:	0f 2e       	mov	r0, r31
    434c:	ff e1       	ldi	r31, 0x1F	; 31
    434e:	ef 2e       	mov	r14, r31
    4350:	f1 2c       	mov	r15, r1
    4352:	f0 2d       	mov	r31, r0
    4354:	0f ef       	ldi	r16, 0xFF	; 255
    4356:	1f ef       	ldi	r17, 0xFF	; 255
    4358:	28 e0       	ldi	r18, 0x08	; 8
    435a:	4c e3       	ldi	r20, 0x3C	; 60
    435c:	50 e0       	ldi	r21, 0x00	; 0
    435e:	6b ea       	ldi	r22, 0xAB	; 171
    4360:	70 e0       	ldi	r23, 0x00	; 0
    4362:	87 ed       	ldi	r24, 0xD7	; 215
    4364:	91 e0       	ldi	r25, 0x01	; 1
    4366:	0e 94 51 15 	call	0x2aa2	; 0x2aa2 <TFT_Text>
	
	//Updating last status for water
	TFT_PutsInt(100,-1,43,72,8,white,back_color);
    436a:	0f 2e       	mov	r0, r31
    436c:	ff e1       	ldi	r31, 0x1F	; 31
    436e:	af 2e       	mov	r10, r31
    4370:	b1 2c       	mov	r11, r1
    4372:	f0 2d       	mov	r31, r0
    4374:	cc 24       	eor	r12, r12
    4376:	ca 94       	dec	r12
    4378:	dc 2c       	mov	r13, r12
    437a:	68 94       	set
    437c:	ee 24       	eor	r14, r14
    437e:	e3 f8       	bld	r14, 3
    4380:	08 e4       	ldi	r16, 0x48	; 72
    4382:	10 e0       	ldi	r17, 0x00	; 0
    4384:	2b e2       	ldi	r18, 0x2B	; 43
    4386:	30 e0       	ldi	r19, 0x00	; 0
    4388:	4f ef       	ldi	r20, 0xFF	; 255
    438a:	5f ef       	ldi	r21, 0xFF	; 255
    438c:	64 e6       	ldi	r22, 0x64	; 100
    438e:	70 e0       	ldi	r23, 0x00	; 0
    4390:	80 e0       	ldi	r24, 0x00	; 0
    4392:	90 e0       	ldi	r25, 0x00	; 0
    4394:	0e 94 e4 15 	call	0x2bc8	; 0x2bc8 <TFT_PutsInt>
	TFT_PutsInt(water,-1,123,72,8,white,back_color);
    4398:	2b e7       	ldi	r18, 0x7B	; 123
    439a:	30 e0       	ldi	r19, 0x00	; 0
    439c:	4f ef       	ldi	r20, 0xFF	; 255
    439e:	5f ef       	ldi	r21, 0xFF	; 255
    43a0:	69 2d       	mov	r22, r9
    43a2:	78 2d       	mov	r23, r8
    43a4:	8d 8d       	ldd	r24, Y+29	; 0x1d
    43a6:	9e 8d       	ldd	r25, Y+30	; 0x1e
    43a8:	0e 94 e4 15 	call	0x2bc8	; 0x2bc8 <TFT_PutsInt>
	TFT_PutsInt(0,4,123,102,8,white,back_color);
    43ac:	06 e6       	ldi	r16, 0x66	; 102
    43ae:	10 e0       	ldi	r17, 0x00	; 0
    43b0:	2b e7       	ldi	r18, 0x7B	; 123
    43b2:	30 e0       	ldi	r19, 0x00	; 0
    43b4:	44 e0       	ldi	r20, 0x04	; 4
    43b6:	50 e0       	ldi	r21, 0x00	; 0
    43b8:	60 e0       	ldi	r22, 0x00	; 0
    43ba:	70 e0       	ldi	r23, 0x00	; 0
    43bc:	80 e0       	ldi	r24, 0x00	; 0
    43be:	90 e0       	ldi	r25, 0x00	; 0
    43c0:	0e 94 e4 15 	call	0x2bc8	; 0x2bc8 <TFT_PutsInt>
	
	i_time = 0;
    43c4:	10 92 da 02 	sts	0x02DA, r1
    43c8:	10 92 db 02 	sts	0x02DB, r1
    43cc:	10 92 dc 02 	sts	0x02DC, r1
    43d0:	10 92 dd 02 	sts	0x02DD, r1
    43d4:	12 c0       	rjmp	.+36     	; 0x43fa <main+0x1240>
	while (1) //This while loop is for steam valve open after 1 second
	{
		if (i_time > 0)
		{
			PORTD |= (1<<1);  //This port pin is for steam valve on
    43d6:	91 9a       	sbi	0x12, 1	; 18
			TFT_Text("On ",171,148,8,white,red);
    43d8:	0f 2e       	mov	r0, r31
    43da:	e1 2c       	mov	r14, r1
    43dc:	f8 ef       	ldi	r31, 0xF8	; 248
    43de:	ff 2e       	mov	r15, r31
    43e0:	f0 2d       	mov	r31, r0
    43e2:	0f ef       	ldi	r16, 0xFF	; 255
    43e4:	1f ef       	ldi	r17, 0xFF	; 255
    43e6:	28 e0       	ldi	r18, 0x08	; 8
    43e8:	44 e9       	ldi	r20, 0x94	; 148
    43ea:	50 e0       	ldi	r21, 0x00	; 0
    43ec:	6b ea       	ldi	r22, 0xAB	; 171
    43ee:	70 e0       	ldi	r23, 0x00	; 0
    43f0:	8b ea       	ldi	r24, 0xAB	; 171
    43f2:	92 e0       	ldi	r25, 0x02	; 2
    43f4:	0e 94 51 15 	call	0x2aa2	; 0x2aa2 <TFT_Text>
			break;
    43f8:	24 c0       	rjmp	.+72     	; 0x4442 <main+0x1288>
		}
		TFT_PutsInt(i_time,4,5,5,8,blue,white);
    43fa:	aa 24       	eor	r10, r10
    43fc:	aa 94       	dec	r10
    43fe:	ba 2c       	mov	r11, r10
    4400:	0f 2e       	mov	r0, r31
    4402:	ff e1       	ldi	r31, 0x1F	; 31
    4404:	cf 2e       	mov	r12, r31
    4406:	d1 2c       	mov	r13, r1
    4408:	f0 2d       	mov	r31, r0
    440a:	68 94       	set
    440c:	ee 24       	eor	r14, r14
    440e:	e3 f8       	bld	r14, 3
    4410:	05 e0       	ldi	r16, 0x05	; 5
    4412:	10 e0       	ldi	r17, 0x00	; 0
    4414:	25 e0       	ldi	r18, 0x05	; 5
    4416:	30 e0       	ldi	r19, 0x00	; 0
    4418:	44 e0       	ldi	r20, 0x04	; 4
    441a:	50 e0       	ldi	r21, 0x00	; 0
    441c:	60 e0       	ldi	r22, 0x00	; 0
    441e:	70 e0       	ldi	r23, 0x00	; 0
    4420:	80 e0       	ldi	r24, 0x00	; 0
    4422:	90 e0       	ldi	r25, 0x00	; 0
    4424:	0e 94 e4 15 	call	0x2bc8	; 0x2bc8 <TFT_PutsInt>
	TFT_PutsInt(0,4,123,102,8,white,back_color);
	
	i_time = 0;
	while (1) //This while loop is for steam valve open after 1 second
	{
		if (i_time > 0)
    4428:	80 91 da 02 	lds	r24, 0x02DA
    442c:	90 91 db 02 	lds	r25, 0x02DB
    4430:	a0 91 dc 02 	lds	r26, 0x02DC
    4434:	b0 91 dd 02 	lds	r27, 0x02DD
    4438:	89 2b       	or	r24, r25
    443a:	8a 2b       	or	r24, r26
    443c:	8b 2b       	or	r24, r27
    443e:	e9 f2       	breq	.-70     	; 0x43fa <main+0x1240>
    4440:	ca cf       	rjmp	.-108    	; 0x43d6 <main+0x121c>
    4442:	af e3       	ldi	r26, 0x3F	; 63
    4444:	bc e9       	ldi	r27, 0x9C	; 156
    4446:	11 97       	sbiw	r26, 0x01	; 1
    4448:	f1 f7       	brne	.-4      	; 0x4446 <main+0x128c>
    444a:	00 c0       	rjmp	.+0      	; 0x444c <main+0x1292>
    444c:	00 00       	nop
		TFT_PutsInt(i_time,4,5,5,8,blue,white);
	}
	while (1) //This while loop is for temperature calculation
	{
		_delay_ms(20);
		temp_read = (Read_ADC(0,0x00)*6)/5; //This is the divider to adjust the temperature now 4 for experiment
    444e:	60 e0       	ldi	r22, 0x00	; 0
    4450:	80 e0       	ldi	r24, 0x00	; 0
    4452:	0e 94 59 17 	call	0x2eb2	; 0x2eb2 <Read_ADC>
    4456:	9c 01       	movw	r18, r24
    4458:	22 0f       	add	r18, r18
    445a:	33 1f       	adc	r19, r19
    445c:	82 0f       	add	r24, r18
    445e:	93 1f       	adc	r25, r19
    4460:	9c 01       	movw	r18, r24
    4462:	22 0f       	add	r18, r18
    4464:	33 1f       	adc	r19, r19
    4466:	ad ec       	ldi	r26, 0xCD	; 205
    4468:	bc ec       	ldi	r27, 0xCC	; 204
    446a:	0e 94 83 28 	call	0x5106	; 0x5106 <__umulhisi3>
    446e:	4c 01       	movw	r8, r24
    4470:	96 94       	lsr	r9
    4472:	87 94       	ror	r8
    4474:	96 94       	lsr	r9
    4476:	87 94       	ror	r8
    4478:	24 01       	movw	r4, r8
    447a:	61 2c       	mov	r6, r1
    447c:	71 2c       	mov	r7, r1
		if (temp_read >= temp)
    447e:	0b 85       	ldd	r16, Y+11	; 0x0b
    4480:	1c 85       	ldd	r17, Y+12	; 0x0c
    4482:	2d 85       	ldd	r18, Y+13	; 0x0d
    4484:	3e 85       	ldd	r19, Y+14	; 0x0e
    4486:	40 16       	cp	r4, r16
    4488:	51 06       	cpc	r5, r17
    448a:	62 06       	cpc	r6, r18
    448c:	73 06       	cpc	r7, r19
    448e:	08 f0       	brcs	.+2      	; 0x4492 <main+0x12d8>
    4490:	99 c0       	rjmp	.+306    	; 0x45c4 <main+0x140a>
		{
			break;
		}
		else if (!(PIND & (1<<PD3)))
    4492:	83 99       	sbic	0x10, 3	; 16
    4494:	1b c0       	rjmp	.+54     	; 0x44cc <main+0x1312>
		{
			Read_TPval(TPval);
    4496:	ce 01       	movw	r24, r28
    4498:	01 96       	adiw	r24, 0x01	; 1
    449a:	0e 94 49 17 	call	0x2e92	; 0x2e92 <Read_TPval>
    449e:	8f e1       	ldi	r24, 0x1F	; 31
    44a0:	9e e4       	ldi	r25, 0x4E	; 78
    44a2:	01 97       	sbiw	r24, 0x01	; 1
    44a4:	f1 f7       	brne	.-4      	; 0x44a2 <main+0x12e8>
    44a6:	00 c0       	rjmp	.+0      	; 0x44a8 <main+0x12ee>
    44a8:	00 00       	nop
			_delay_ms(10);
			Read_TPval(TPval);
    44aa:	ce 01       	movw	r24, r28
    44ac:	01 96       	adiw	r24, 0x01	; 1
    44ae:	0e 94 49 17 	call	0x2e92	; 0x2e92 <Read_TPval>
			if (TPval[0]>130 && TPval[0]<165 && TPval[1]>37 && TPval[1]<216)
    44b2:	89 81       	ldd	r24, Y+1	; 0x01
    44b4:	9a 81       	ldd	r25, Y+2	; 0x02
    44b6:	83 58       	subi	r24, 0x83	; 131
    44b8:	91 09       	sbc	r25, r1
    44ba:	82 97       	sbiw	r24, 0x22	; 34
    44bc:	38 f4       	brcc	.+14     	; 0x44cc <main+0x1312>
    44be:	8b 81       	ldd	r24, Y+3	; 0x03
    44c0:	9c 81       	ldd	r25, Y+4	; 0x04
    44c2:	86 97       	sbiw	r24, 0x26	; 38
    44c4:	82 3b       	cpi	r24, 0xB2	; 178
    44c6:	91 05       	cpc	r25, r1
    44c8:	08 f4       	brcc	.+2      	; 0x44cc <main+0x1312>
    44ca:	7c c0       	rjmp	.+248    	; 0x45c4 <main+0x140a>
			{
				break;
			}
		}
		if (compare_time != i_time)
    44cc:	40 91 d6 02 	lds	r20, 0x02D6
    44d0:	50 91 d7 02 	lds	r21, 0x02D7
    44d4:	60 91 d8 02 	lds	r22, 0x02D8
    44d8:	70 91 d9 02 	lds	r23, 0x02D9
    44dc:	80 91 da 02 	lds	r24, 0x02DA
    44e0:	90 91 db 02 	lds	r25, 0x02DB
    44e4:	a0 91 dc 02 	lds	r26, 0x02DC
    44e8:	b0 91 dd 02 	lds	r27, 0x02DD
    44ec:	48 17       	cp	r20, r24
    44ee:	59 07       	cpc	r21, r25
    44f0:	6a 07       	cpc	r22, r26
    44f2:	7b 07       	cpc	r23, r27
    44f4:	09 f4       	brne	.+2      	; 0x44f8 <main+0x133e>
    44f6:	4a c0       	rjmp	.+148    	; 0x458c <main+0x13d2>
		{
			TFT_PutsInt((temp_read*100)/temp,3,43,160,8,white,back_color);
    44f8:	a4 e6       	ldi	r26, 0x64	; 100
    44fa:	b0 e0       	ldi	r27, 0x00	; 0
    44fc:	a3 01       	movw	r20, r6
    44fe:	92 01       	movw	r18, r4
    4500:	0e 94 92 28 	call	0x5124	; 0x5124 <__muluhisi3>
    4504:	2b 85       	ldd	r18, Y+11	; 0x0b
    4506:	3c 85       	ldd	r19, Y+12	; 0x0c
    4508:	4d 85       	ldd	r20, Y+13	; 0x0d
    450a:	5e 85       	ldd	r21, Y+14	; 0x0e
    450c:	0e 94 42 28 	call	0x5084	; 0x5084 <__udivmodsi4>
    4510:	ca 01       	movw	r24, r20
    4512:	b9 01       	movw	r22, r18
    4514:	0f 2e       	mov	r0, r31
    4516:	ff e1       	ldi	r31, 0x1F	; 31
    4518:	af 2e       	mov	r10, r31
    451a:	b1 2c       	mov	r11, r1
    451c:	f0 2d       	mov	r31, r0
    451e:	cc 24       	eor	r12, r12
    4520:	ca 94       	dec	r12
    4522:	dc 2c       	mov	r13, r12
    4524:	68 94       	set
    4526:	ee 24       	eor	r14, r14
    4528:	e3 f8       	bld	r14, 3
    452a:	00 ea       	ldi	r16, 0xA0	; 160
    452c:	10 e0       	ldi	r17, 0x00	; 0
    452e:	2b e2       	ldi	r18, 0x2B	; 43
    4530:	30 e0       	ldi	r19, 0x00	; 0
    4532:	43 e0       	ldi	r20, 0x03	; 3
    4534:	50 e0       	ldi	r21, 0x00	; 0
    4536:	0e 94 e4 15 	call	0x2bc8	; 0x2bc8 <TFT_PutsInt>
			TFT_PutsInt(temp_read,3,123,160,8,white,back_color);
    453a:	b4 01       	movw	r22, r8
    453c:	80 e0       	ldi	r24, 0x00	; 0
    453e:	90 e0       	ldi	r25, 0x00	; 0
    4540:	2b e7       	ldi	r18, 0x7B	; 123
    4542:	30 e0       	ldi	r19, 0x00	; 0
    4544:	43 e0       	ldi	r20, 0x03	; 3
    4546:	50 e0       	ldi	r21, 0x00	; 0
    4548:	0e 94 e4 15 	call	0x2bc8	; 0x2bc8 <TFT_PutsInt>
			TFT_PutsInt(temp-temp_read,3,123,188,8,white,back_color);
    454c:	6b 85       	ldd	r22, Y+11	; 0x0b
    454e:	7c 85       	ldd	r23, Y+12	; 0x0c
    4550:	8d 85       	ldd	r24, Y+13	; 0x0d
    4552:	9e 85       	ldd	r25, Y+14	; 0x0e
    4554:	64 19       	sub	r22, r4
    4556:	75 09       	sbc	r23, r5
    4558:	86 09       	sbc	r24, r6
    455a:	97 09       	sbc	r25, r7
    455c:	0c eb       	ldi	r16, 0xBC	; 188
    455e:	10 e0       	ldi	r17, 0x00	; 0
    4560:	2b e7       	ldi	r18, 0x7B	; 123
    4562:	30 e0       	ldi	r19, 0x00	; 0
    4564:	43 e0       	ldi	r20, 0x03	; 3
    4566:	50 e0       	ldi	r21, 0x00	; 0
    4568:	0e 94 e4 15 	call	0x2bc8	; 0x2bc8 <TFT_PutsInt>
			compare_time = i_time;
    456c:	80 91 da 02 	lds	r24, 0x02DA
    4570:	90 91 db 02 	lds	r25, 0x02DB
    4574:	a0 91 dc 02 	lds	r26, 0x02DC
    4578:	b0 91 dd 02 	lds	r27, 0x02DD
    457c:	80 93 d6 02 	sts	0x02D6, r24
    4580:	90 93 d7 02 	sts	0x02D7, r25
    4584:	a0 93 d8 02 	sts	0x02D8, r26
    4588:	b0 93 d9 02 	sts	0x02D9, r27
		}
		
		TFT_PutsInt(i_time,4,5,5,8,blue,white);
    458c:	60 91 da 02 	lds	r22, 0x02DA
    4590:	70 91 db 02 	lds	r23, 0x02DB
    4594:	80 91 dc 02 	lds	r24, 0x02DC
    4598:	90 91 dd 02 	lds	r25, 0x02DD
    459c:	aa 24       	eor	r10, r10
    459e:	aa 94       	dec	r10
    45a0:	ba 2c       	mov	r11, r10
    45a2:	0f 2e       	mov	r0, r31
    45a4:	ff e1       	ldi	r31, 0x1F	; 31
    45a6:	cf 2e       	mov	r12, r31
    45a8:	d1 2c       	mov	r13, r1
    45aa:	f0 2d       	mov	r31, r0
    45ac:	68 94       	set
    45ae:	ee 24       	eor	r14, r14
    45b0:	e3 f8       	bld	r14, 3
    45b2:	05 e0       	ldi	r16, 0x05	; 5
    45b4:	10 e0       	ldi	r17, 0x00	; 0
    45b6:	25 e0       	ldi	r18, 0x05	; 5
    45b8:	30 e0       	ldi	r19, 0x00	; 0
    45ba:	44 e0       	ldi	r20, 0x04	; 4
    45bc:	50 e0       	ldi	r21, 0x00	; 0
    45be:	0e 94 e4 15 	call	0x2bc8	; 0x2bc8 <TFT_PutsInt>
	}
    45c2:	3f cf       	rjmp	.-386    	; 0x4442 <main+0x1288>
	
	PORTD &= ~(1<<1); //This port pin is for steam valve off
    45c4:	91 98       	cbi	0x12, 1	; 18
	TFT_Text("Off",171,148,8,white,back_color);
    45c6:	0f 2e       	mov	r0, r31
    45c8:	ff e1       	ldi	r31, 0x1F	; 31
    45ca:	ef 2e       	mov	r14, r31
    45cc:	f1 2c       	mov	r15, r1
    45ce:	f0 2d       	mov	r31, r0
    45d0:	0f ef       	ldi	r16, 0xFF	; 255
    45d2:	1f ef       	ldi	r17, 0xFF	; 255
    45d4:	28 e0       	ldi	r18, 0x08	; 8
    45d6:	44 e9       	ldi	r20, 0x94	; 148
    45d8:	50 e0       	ldi	r21, 0x00	; 0
    45da:	6b ea       	ldi	r22, 0xAB	; 171
    45dc:	70 e0       	ldi	r23, 0x00	; 0
    45de:	87 ed       	ldi	r24, 0xD7	; 215
    45e0:	91 e0       	ldi	r25, 0x01	; 1
    45e2:	0e 94 51 15 	call	0x2aa2	; 0x2aa2 <TFT_Text>
	
	// Updating last status for temperature
	TFT_PutsInt(100,3,43,160,8,white,back_color);
    45e6:	0f 2e       	mov	r0, r31
    45e8:	ff e1       	ldi	r31, 0x1F	; 31
    45ea:	af 2e       	mov	r10, r31
    45ec:	b1 2c       	mov	r11, r1
    45ee:	f0 2d       	mov	r31, r0
    45f0:	cc 24       	eor	r12, r12
    45f2:	ca 94       	dec	r12
    45f4:	dc 2c       	mov	r13, r12
    45f6:	68 94       	set
    45f8:	ee 24       	eor	r14, r14
    45fa:	e3 f8       	bld	r14, 3
    45fc:	00 ea       	ldi	r16, 0xA0	; 160
    45fe:	10 e0       	ldi	r17, 0x00	; 0
    4600:	2b e2       	ldi	r18, 0x2B	; 43
    4602:	30 e0       	ldi	r19, 0x00	; 0
    4604:	43 e0       	ldi	r20, 0x03	; 3
    4606:	50 e0       	ldi	r21, 0x00	; 0
    4608:	64 e6       	ldi	r22, 0x64	; 100
    460a:	70 e0       	ldi	r23, 0x00	; 0
    460c:	80 e0       	ldi	r24, 0x00	; 0
    460e:	90 e0       	ldi	r25, 0x00	; 0
    4610:	0e 94 e4 15 	call	0x2bc8	; 0x2bc8 <TFT_PutsInt>
	TFT_PutsInt(temp,3,123,160,8,white,back_color);
    4614:	2b e7       	ldi	r18, 0x7B	; 123
    4616:	30 e0       	ldi	r19, 0x00	; 0
    4618:	43 e0       	ldi	r20, 0x03	; 3
    461a:	50 e0       	ldi	r21, 0x00	; 0
    461c:	6f 8d       	ldd	r22, Y+31	; 0x1f
    461e:	78 a1       	ldd	r23, Y+32	; 0x20
    4620:	89 a1       	ldd	r24, Y+33	; 0x21
    4622:	9a a1       	ldd	r25, Y+34	; 0x22
    4624:	0e 94 e4 15 	call	0x2bc8	; 0x2bc8 <TFT_PutsInt>
	TFT_PutsInt(0,3,123,188,8,white,back_color);	
    4628:	0c eb       	ldi	r16, 0xBC	; 188
    462a:	10 e0       	ldi	r17, 0x00	; 0
    462c:	2b e7       	ldi	r18, 0x7B	; 123
    462e:	30 e0       	ldi	r19, 0x00	; 0
    4630:	43 e0       	ldi	r20, 0x03	; 3
    4632:	50 e0       	ldi	r21, 0x00	; 0
    4634:	60 e0       	ldi	r22, 0x00	; 0
    4636:	70 e0       	ldi	r23, 0x00	; 0
    4638:	80 e0       	ldi	r24, 0x00	; 0
    463a:	90 e0       	ldi	r25, 0x00	; 0
    463c:	0e 94 e4 15 	call	0x2bc8	; 0x2bc8 <TFT_PutsInt>
	
	i_time = 0;
    4640:	10 92 da 02 	sts	0x02DA, r1
    4644:	10 92 db 02 	sts	0x02DB, r1
    4648:	10 92 dc 02 	sts	0x02DC, r1
    464c:	10 92 dd 02 	sts	0x02DD, r1
	TFT_Text("Counting",123,236,8,white,red);
    4650:	0f 2e       	mov	r0, r31
    4652:	e1 2c       	mov	r14, r1
    4654:	f8 ef       	ldi	r31, 0xF8	; 248
    4656:	ff 2e       	mov	r15, r31
    4658:	f0 2d       	mov	r31, r0
    465a:	0f ef       	ldi	r16, 0xFF	; 255
    465c:	1f ef       	ldi	r17, 0xFF	; 255
    465e:	28 e0       	ldi	r18, 0x08	; 8
    4660:	4c ee       	ldi	r20, 0xEC	; 236
    4662:	50 e0       	ldi	r21, 0x00	; 0
    4664:	6b e7       	ldi	r22, 0x7B	; 123
    4666:	70 e0       	ldi	r23, 0x00	; 0
    4668:	8f ea       	ldi	r24, 0xAF	; 175
    466a:	92 e0       	ldi	r25, 0x02	; 2
    466c:	0e 94 51 15 	call	0x2aa2	; 0x2aa2 <TFT_Text>
	while (1) //This while loop is for time calculation
	{
		time_read = i_time / 60;
    4670:	60 91 da 02 	lds	r22, 0x02DA
    4674:	70 91 db 02 	lds	r23, 0x02DB
    4678:	80 91 dc 02 	lds	r24, 0x02DC
    467c:	90 91 dd 02 	lds	r25, 0x02DD
    4680:	2c e3       	ldi	r18, 0x3C	; 60
    4682:	30 e0       	ldi	r19, 0x00	; 0
    4684:	40 e0       	ldi	r20, 0x00	; 0
    4686:	50 e0       	ldi	r21, 0x00	; 0
    4688:	0e 94 42 28 	call	0x5084	; 0x5084 <__udivmodsi4>
    468c:	29 01       	movw	r4, r18
    468e:	3a 01       	movw	r6, r20
		if (time_read >= time)
    4690:	09 89       	ldd	r16, Y+17	; 0x11
    4692:	1a 89       	ldd	r17, Y+18	; 0x12
    4694:	2b 89       	ldd	r18, Y+19	; 0x13
    4696:	3c 89       	ldd	r19, Y+20	; 0x14
    4698:	40 16       	cp	r4, r16
    469a:	51 06       	cpc	r5, r17
    469c:	62 06       	cpc	r6, r18
    469e:	73 06       	cpc	r7, r19
    46a0:	08 f4       	brcc	.+2      	; 0x46a4 <main+0x14ea>
    46a2:	3f c0       	rjmp	.+126    	; 0x4722 <main+0x1568>
		{
skip_time:
			PORTD |= (1<<6); //This port pin is for alarm on
    46a4:	96 9a       	sbi	0x12, 6	; 18
			TFT_Text("Idle    ",123,236,8,white,back_color);
    46a6:	0f 2e       	mov	r0, r31
    46a8:	ff e1       	ldi	r31, 0x1F	; 31
    46aa:	ef 2e       	mov	r14, r31
    46ac:	f1 2c       	mov	r15, r1
    46ae:	f0 2d       	mov	r31, r0
    46b0:	0f ef       	ldi	r16, 0xFF	; 255
    46b2:	1f ef       	ldi	r17, 0xFF	; 255
    46b4:	28 e0       	ldi	r18, 0x08	; 8
    46b6:	4c ee       	ldi	r20, 0xEC	; 236
    46b8:	50 e0       	ldi	r21, 0x00	; 0
    46ba:	6b e7       	ldi	r22, 0x7B	; 123
    46bc:	70 e0       	ldi	r23, 0x00	; 0
    46be:	88 eb       	ldi	r24, 0xB8	; 184
    46c0:	92 e0       	ldi	r25, 0x02	; 2
    46c2:	0e 94 51 15 	call	0x2aa2	; 0x2aa2 <TFT_Text>
			}
		}
		TFT_PutsInt(i_time,4,5,5,8,blue,white);
	}
	 //this section is to wait for alarm off command
	 i_time = 0;
    46c6:	10 92 da 02 	sts	0x02DA, r1
    46ca:	10 92 db 02 	sts	0x02DB, r1
    46ce:	10 92 dc 02 	sts	0x02DC, r1
    46d2:	10 92 dd 02 	sts	0x02DD, r1
	TFT_Fill(back_color);
    46d6:	8f e1       	ldi	r24, 0x1F	; 31
    46d8:	90 e0       	ldi	r25, 0x00	; 0
    46da:	0e 94 6f 13 	call	0x26de	; 0x26de <TFT_Fill>
	TFT_Text("ALARMING!",51,84,16,white,back_color);
    46de:	20 e1       	ldi	r18, 0x10	; 16
    46e0:	44 e5       	ldi	r20, 0x54	; 84
    46e2:	50 e0       	ldi	r21, 0x00	; 0
    46e4:	63 e3       	ldi	r22, 0x33	; 51
    46e6:	70 e0       	ldi	r23, 0x00	; 0
    46e8:	81 ec       	ldi	r24, 0xC1	; 193
    46ea:	92 e0       	ldi	r25, 0x02	; 2
    46ec:	0e 94 51 15 	call	0x2aa2	; 0x2aa2 <TFT_Text>
	TFT_Box(35,150,195,174,white);
    46f0:	2e ea       	ldi	r18, 0xAE	; 174
    46f2:	30 e0       	ldi	r19, 0x00	; 0
    46f4:	43 ec       	ldi	r20, 0xC3	; 195
    46f6:	50 e0       	ldi	r21, 0x00	; 0
    46f8:	66 e9       	ldi	r22, 0x96	; 150
    46fa:	70 e0       	ldi	r23, 0x00	; 0
    46fc:	83 e2       	ldi	r24, 0x23	; 35
    46fe:	90 e0       	ldi	r25, 0x00	; 0
    4700:	0e 94 96 13 	call	0x272c	; 0x272c <TFT_Box>
	TFT_Text("ALARM OFF",53,155,16,red,white);	
    4704:	ee 24       	eor	r14, r14
    4706:	ea 94       	dec	r14
    4708:	fe 2c       	mov	r15, r14
    470a:	00 e0       	ldi	r16, 0x00	; 0
    470c:	18 ef       	ldi	r17, 0xF8	; 248
    470e:	20 e1       	ldi	r18, 0x10	; 16
    4710:	4b e9       	ldi	r20, 0x9B	; 155
    4712:	50 e0       	ldi	r21, 0x00	; 0
    4714:	65 e3       	ldi	r22, 0x35	; 53
    4716:	70 e0       	ldi	r23, 0x00	; 0
    4718:	8b ec       	ldi	r24, 0xCB	; 203
    471a:	92 e0       	ldi	r25, 0x02	; 2
    471c:	0e 94 51 15 	call	0x2aa2	; 0x2aa2 <TFT_Text>
    4720:	97 c0       	rjmp	.+302    	; 0x4850 <main+0x1696>
skip_time:
			PORTD |= (1<<6); //This port pin is for alarm on
			TFT_Text("Idle    ",123,236,8,white,back_color);
			break;
		}
		TFT_PutsInt(time_read,-1,123,260,8,white,back_color);
    4722:	0f 2e       	mov	r0, r31
    4724:	ff e1       	ldi	r31, 0x1F	; 31
    4726:	af 2e       	mov	r10, r31
    4728:	b1 2c       	mov	r11, r1
    472a:	f0 2d       	mov	r31, r0
    472c:	cc 24       	eor	r12, r12
    472e:	ca 94       	dec	r12
    4730:	dc 2c       	mov	r13, r12
    4732:	68 94       	set
    4734:	ee 24       	eor	r14, r14
    4736:	e3 f8       	bld	r14, 3
    4738:	04 e0       	ldi	r16, 0x04	; 4
    473a:	11 e0       	ldi	r17, 0x01	; 1
    473c:	2b e7       	ldi	r18, 0x7B	; 123
    473e:	30 e0       	ldi	r19, 0x00	; 0
    4740:	4f ef       	ldi	r20, 0xFF	; 255
    4742:	5f ef       	ldi	r21, 0xFF	; 255
    4744:	c3 01       	movw	r24, r6
    4746:	b2 01       	movw	r22, r4
    4748:	0e 94 e4 15 	call	0x2bc8	; 0x2bc8 <TFT_PutsInt>
		TFT_Text(":",155,260,8,white,back_color);
    474c:	0f 2e       	mov	r0, r31
    474e:	ff e1       	ldi	r31, 0x1F	; 31
    4750:	ef 2e       	mov	r14, r31
    4752:	f1 2c       	mov	r15, r1
    4754:	f0 2d       	mov	r31, r0
    4756:	0f ef       	ldi	r16, 0xFF	; 255
    4758:	1f ef       	ldi	r17, 0xFF	; 255
    475a:	28 e0       	ldi	r18, 0x08	; 8
    475c:	44 e0       	ldi	r20, 0x04	; 4
    475e:	51 e0       	ldi	r21, 0x01	; 1
    4760:	6b e9       	ldi	r22, 0x9B	; 155
    4762:	70 e0       	ldi	r23, 0x00	; 0
    4764:	8b e5       	ldi	r24, 0x5B	; 91
    4766:	92 e0       	ldi	r25, 0x02	; 2
    4768:	0e 94 51 15 	call	0x2aa2	; 0x2aa2 <TFT_Text>
		TFT_PutsInt(i_time % 60,2,163,260,8,white,back_color);
    476c:	60 91 da 02 	lds	r22, 0x02DA
    4770:	70 91 db 02 	lds	r23, 0x02DB
    4774:	80 91 dc 02 	lds	r24, 0x02DC
    4778:	90 91 dd 02 	lds	r25, 0x02DD
    477c:	2c e3       	ldi	r18, 0x3C	; 60
    477e:	30 e0       	ldi	r19, 0x00	; 0
    4780:	40 e0       	ldi	r20, 0x00	; 0
    4782:	50 e0       	ldi	r21, 0x00	; 0
    4784:	0e 94 42 28 	call	0x5084	; 0x5084 <__udivmodsi4>
    4788:	68 94       	set
    478a:	ee 24       	eor	r14, r14
    478c:	e3 f8       	bld	r14, 3
    478e:	04 e0       	ldi	r16, 0x04	; 4
    4790:	11 e0       	ldi	r17, 0x01	; 1
    4792:	23 ea       	ldi	r18, 0xA3	; 163
    4794:	30 e0       	ldi	r19, 0x00	; 0
    4796:	42 e0       	ldi	r20, 0x02	; 2
    4798:	50 e0       	ldi	r21, 0x00	; 0
    479a:	0e 94 e4 15 	call	0x2bc8	; 0x2bc8 <TFT_PutsInt>
		TFT_PutsInt(time - time_read,4,123,276,8,white,back_color);
    479e:	69 89       	ldd	r22, Y+17	; 0x11
    47a0:	7a 89       	ldd	r23, Y+18	; 0x12
    47a2:	8b 89       	ldd	r24, Y+19	; 0x13
    47a4:	9c 89       	ldd	r25, Y+20	; 0x14
    47a6:	64 19       	sub	r22, r4
    47a8:	75 09       	sbc	r23, r5
    47aa:	86 09       	sbc	r24, r6
    47ac:	97 09       	sbc	r25, r7
    47ae:	04 e1       	ldi	r16, 0x14	; 20
    47b0:	11 e0       	ldi	r17, 0x01	; 1
    47b2:	2b e7       	ldi	r18, 0x7B	; 123
    47b4:	30 e0       	ldi	r19, 0x00	; 0
    47b6:	44 e0       	ldi	r20, 0x04	; 4
    47b8:	50 e0       	ldi	r21, 0x00	; 0
    47ba:	0e 94 e4 15 	call	0x2bc8	; 0x2bc8 <TFT_PutsInt>
		if (!(PIND & (1<<PD3)))
    47be:	83 99       	sbic	0x10, 3	; 16
    47c0:	11 c0       	rjmp	.+34     	; 0x47e4 <main+0x162a>
		{
			Read_TPval(TPval);
    47c2:	ce 01       	movw	r24, r28
    47c4:	01 96       	adiw	r24, 0x01	; 1
    47c6:	0e 94 49 17 	call	0x2e92	; 0x2e92 <Read_TPval>
			//TFT_PutsInt(TPval[0],4,0,0,8,blue,white);
			//TFT_PutsInt(TPval[1],4,40,0,8,blue,white);
			if (TPval[0]>77 && TPval[0]<103 && TPval[1]>37 && TPval[1]<216)
    47ca:	89 81       	ldd	r24, Y+1	; 0x01
    47cc:	9a 81       	ldd	r25, Y+2	; 0x02
    47ce:	8e 54       	subi	r24, 0x4E	; 78
    47d0:	91 09       	sbc	r25, r1
    47d2:	49 97       	sbiw	r24, 0x19	; 25
    47d4:	38 f4       	brcc	.+14     	; 0x47e4 <main+0x162a>
    47d6:	8b 81       	ldd	r24, Y+3	; 0x03
    47d8:	9c 81       	ldd	r25, Y+4	; 0x04
    47da:	86 97       	sbiw	r24, 0x26	; 38
    47dc:	82 3b       	cpi	r24, 0xB2	; 178
    47de:	91 05       	cpc	r25, r1
    47e0:	08 f4       	brcc	.+2      	; 0x47e4 <main+0x162a>
    47e2:	60 cf       	rjmp	.-320    	; 0x46a4 <main+0x14ea>
			{
				goto skip_time;
			}
		}
		TFT_PutsInt(i_time,4,5,5,8,blue,white);
    47e4:	60 91 da 02 	lds	r22, 0x02DA
    47e8:	70 91 db 02 	lds	r23, 0x02DB
    47ec:	80 91 dc 02 	lds	r24, 0x02DC
    47f0:	90 91 dd 02 	lds	r25, 0x02DD
    47f4:	aa 24       	eor	r10, r10
    47f6:	aa 94       	dec	r10
    47f8:	ba 2c       	mov	r11, r10
    47fa:	0f 2e       	mov	r0, r31
    47fc:	ff e1       	ldi	r31, 0x1F	; 31
    47fe:	cf 2e       	mov	r12, r31
    4800:	d1 2c       	mov	r13, r1
    4802:	f0 2d       	mov	r31, r0
    4804:	68 94       	set
    4806:	ee 24       	eor	r14, r14
    4808:	e3 f8       	bld	r14, 3
    480a:	05 e0       	ldi	r16, 0x05	; 5
    480c:	10 e0       	ldi	r17, 0x00	; 0
    480e:	25 e0       	ldi	r18, 0x05	; 5
    4810:	30 e0       	ldi	r19, 0x00	; 0
    4812:	44 e0       	ldi	r20, 0x04	; 4
    4814:	50 e0       	ldi	r21, 0x00	; 0
    4816:	0e 94 e4 15 	call	0x2bc8	; 0x2bc8 <TFT_PutsInt>
	
	i_time = 0;
	TFT_Text("Counting",123,236,8,white,red);
	while (1) //This while loop is for time calculation
	{
		time_read = i_time / 60;
    481a:	60 91 da 02 	lds	r22, 0x02DA
    481e:	70 91 db 02 	lds	r23, 0x02DB
    4822:	80 91 dc 02 	lds	r24, 0x02DC
    4826:	90 91 dd 02 	lds	r25, 0x02DD
    482a:	2c e3       	ldi	r18, 0x3C	; 60
    482c:	30 e0       	ldi	r19, 0x00	; 0
    482e:	40 e0       	ldi	r20, 0x00	; 0
    4830:	50 e0       	ldi	r21, 0x00	; 0
    4832:	0e 94 42 28 	call	0x5084	; 0x5084 <__udivmodsi4>
    4836:	29 01       	movw	r4, r18
    4838:	3a 01       	movw	r6, r20
		if (time_read >= time)
    483a:	89 89       	ldd	r24, Y+17	; 0x11
    483c:	9a 89       	ldd	r25, Y+18	; 0x12
    483e:	ab 89       	ldd	r26, Y+19	; 0x13
    4840:	bc 89       	ldd	r27, Y+20	; 0x14
    4842:	28 17       	cp	r18, r24
    4844:	39 07       	cpc	r19, r25
    4846:	4a 07       	cpc	r20, r26
    4848:	5b 07       	cpc	r21, r27
    484a:	08 f4       	brcc	.+2      	; 0x484e <main+0x1694>
    484c:	6a cf       	rjmp	.-300    	; 0x4722 <main+0x1568>
    484e:	2a cf       	rjmp	.-428    	; 0x46a4 <main+0x14ea>
	TFT_Text("ALARMING!",51,84,16,white,back_color);
	TFT_Box(35,150,195,174,white);
	TFT_Text("ALARM OFF",53,155,16,red,white);	
	while (1)
	{
		if (!(PIND & (1<<PD3)))
    4850:	83 99       	sbic	0x10, 3	; 16
    4852:	26 c0       	rjmp	.+76     	; 0x48a0 <main+0x16e6>
		{
			Read_TPval(TPval);
    4854:	ce 01       	movw	r24, r28
    4856:	01 96       	adiw	r24, 0x01	; 1
    4858:	0e 94 49 17 	call	0x2e92	; 0x2e92 <Read_TPval>
    485c:	af e1       	ldi	r26, 0x1F	; 31
    485e:	be e4       	ldi	r27, 0x4E	; 78
    4860:	11 97       	sbiw	r26, 0x01	; 1
    4862:	f1 f7       	brne	.-4      	; 0x4860 <main+0x16a6>
    4864:	00 c0       	rjmp	.+0      	; 0x4866 <main+0x16ac>
    4866:	00 00       	nop
			_delay_ms(10);
			Read_TPval(TPval);
    4868:	ce 01       	movw	r24, r28
    486a:	01 96       	adiw	r24, 0x01	; 1
    486c:	0e 94 49 17 	call	0x2e92	; 0x2e92 <Read_TPval>
			//TFT_PutsInt(TPval[0],4,0,0,8,blue,white);
			//TFT_PutsInt(TPval[1],4,40,0,8,blue,white);
			if (TPval[0]>120 && TPval[0]<150 && TPval[1]>51 && TPval[1]<201)
    4870:	89 81       	ldd	r24, Y+1	; 0x01
    4872:	9a 81       	ldd	r25, Y+2	; 0x02
    4874:	89 57       	subi	r24, 0x79	; 121
    4876:	91 09       	sbc	r25, r1
    4878:	4d 97       	sbiw	r24, 0x1d	; 29
    487a:	48 f4       	brcc	.+18     	; 0x488e <main+0x16d4>
    487c:	8b 81       	ldd	r24, Y+3	; 0x03
    487e:	9c 81       	ldd	r25, Y+4	; 0x04
    4880:	c4 97       	sbiw	r24, 0x34	; 52
    4882:	85 39       	cpi	r24, 0x95	; 149
    4884:	91 05       	cpc	r25, r1
    4886:	18 f4       	brcc	.+6      	; 0x488e <main+0x16d4>
			{
				PORTD &= ~(1<<6); //This port pin is programmed for alarm Off
    4888:	96 98       	cbi	0x12, 6	; 18
				goto start_pgm;
    488a:	0c 94 30 19 	jmp	0x3260	; 0x3260 <main+0xa6>
    488e:	bf ef       	ldi	r27, 0xFF	; 255
    4890:	00 e7       	ldi	r16, 0x70	; 112
    4892:	12 e0       	ldi	r17, 0x02	; 2
    4894:	b1 50       	subi	r27, 0x01	; 1
    4896:	00 40       	sbci	r16, 0x00	; 0
    4898:	10 40       	sbci	r17, 0x00	; 0
    489a:	e1 f7       	brne	.-8      	; 0x4894 <main+0x16da>
    489c:	00 c0       	rjmp	.+0      	; 0x489e <main+0x16e4>
    489e:	00 00       	nop
			}
			_delay_ms(100);
		}
		TFT_PutsInt(i_time,4,5,5,8,blue,white);
    48a0:	60 91 da 02 	lds	r22, 0x02DA
    48a4:	70 91 db 02 	lds	r23, 0x02DB
    48a8:	80 91 dc 02 	lds	r24, 0x02DC
    48ac:	90 91 dd 02 	lds	r25, 0x02DD
    48b0:	aa 24       	eor	r10, r10
    48b2:	aa 94       	dec	r10
    48b4:	ba 2c       	mov	r11, r10
    48b6:	0f 2e       	mov	r0, r31
    48b8:	ff e1       	ldi	r31, 0x1F	; 31
    48ba:	cf 2e       	mov	r12, r31
    48bc:	d1 2c       	mov	r13, r1
    48be:	f0 2d       	mov	r31, r0
    48c0:	68 94       	set
    48c2:	ee 24       	eor	r14, r14
    48c4:	e3 f8       	bld	r14, 3
    48c6:	05 e0       	ldi	r16, 0x05	; 5
    48c8:	10 e0       	ldi	r17, 0x00	; 0
    48ca:	25 e0       	ldi	r18, 0x05	; 5
    48cc:	30 e0       	ldi	r19, 0x00	; 0
    48ce:	44 e0       	ldi	r20, 0x04	; 4
    48d0:	50 e0       	ldi	r21, 0x00	; 0
    48d2:	0e 94 e4 15 	call	0x2bc8	; 0x2bc8 <TFT_PutsInt>
	}
    48d6:	bc cf       	rjmp	.-136    	; 0x4850 <main+0x1696>
		TFT_PutsInt(water_read,-1,123,72,8,white,back_color);
		TFT_PutsInt(water-water_read,4,123,102,8,white,back_color);
		TFT_PutsInt(i_time,4,5,5,8,blue,white);
	}
	
	PORTD &= ~(1<<0); //This port pin is for water valve off
    48d8:	90 98       	cbi	0x12, 0	; 18
	TFT_Text("Off",171,60,8,white,back_color);
    48da:	0f 2e       	mov	r0, r31
    48dc:	ff e1       	ldi	r31, 0x1F	; 31
    48de:	ef 2e       	mov	r14, r31
    48e0:	f1 2c       	mov	r15, r1
    48e2:	f0 2d       	mov	r31, r0
    48e4:	0f ef       	ldi	r16, 0xFF	; 255
    48e6:	1f ef       	ldi	r17, 0xFF	; 255
    48e8:	28 e0       	ldi	r18, 0x08	; 8
    48ea:	4c e3       	ldi	r20, 0x3C	; 60
    48ec:	50 e0       	ldi	r21, 0x00	; 0
    48ee:	6b ea       	ldi	r22, 0xAB	; 171
    48f0:	70 e0       	ldi	r23, 0x00	; 0
    48f2:	87 ed       	ldi	r24, 0xD7	; 215
    48f4:	91 e0       	ldi	r25, 0x01	; 1
    48f6:	0e 94 51 15 	call	0x2aa2	; 0x2aa2 <TFT_Text>
	
	//Updating last status for water
	TFT_PutsInt(100,-1,43,72,8,white,back_color);
    48fa:	0f 2e       	mov	r0, r31
    48fc:	ff e1       	ldi	r31, 0x1F	; 31
    48fe:	af 2e       	mov	r10, r31
    4900:	b1 2c       	mov	r11, r1
    4902:	f0 2d       	mov	r31, r0
    4904:	cc 24       	eor	r12, r12
    4906:	ca 94       	dec	r12
    4908:	dc 2c       	mov	r13, r12
    490a:	68 94       	set
    490c:	ee 24       	eor	r14, r14
    490e:	e3 f8       	bld	r14, 3
    4910:	08 e4       	ldi	r16, 0x48	; 72
    4912:	10 e0       	ldi	r17, 0x00	; 0
    4914:	2b e2       	ldi	r18, 0x2B	; 43
    4916:	30 e0       	ldi	r19, 0x00	; 0
    4918:	4f ef       	ldi	r20, 0xFF	; 255
    491a:	5f ef       	ldi	r21, 0xFF	; 255
    491c:	64 e6       	ldi	r22, 0x64	; 100
    491e:	70 e0       	ldi	r23, 0x00	; 0
    4920:	80 e0       	ldi	r24, 0x00	; 0
    4922:	90 e0       	ldi	r25, 0x00	; 0
    4924:	0e 94 e4 15 	call	0x2bc8	; 0x2bc8 <TFT_PutsInt>
	TFT_PutsInt(water,-1,123,72,8,white,back_color);
    4928:	2b e7       	ldi	r18, 0x7B	; 123
    492a:	30 e0       	ldi	r19, 0x00	; 0
    492c:	4f ef       	ldi	r20, 0xFF	; 255
    492e:	5f ef       	ldi	r21, 0xFF	; 255
    4930:	69 2d       	mov	r22, r9
    4932:	78 2d       	mov	r23, r8
    4934:	8d 8d       	ldd	r24, Y+29	; 0x1d
    4936:	9e 8d       	ldd	r25, Y+30	; 0x1e
    4938:	0e 94 e4 15 	call	0x2bc8	; 0x2bc8 <TFT_PutsInt>
	TFT_PutsInt(0,4,123,102,8,white,back_color);
    493c:	06 e6       	ldi	r16, 0x66	; 102
    493e:	10 e0       	ldi	r17, 0x00	; 0
    4940:	2b e7       	ldi	r18, 0x7B	; 123
    4942:	30 e0       	ldi	r19, 0x00	; 0
    4944:	44 e0       	ldi	r20, 0x04	; 4
    4946:	50 e0       	ldi	r21, 0x00	; 0
    4948:	60 e0       	ldi	r22, 0x00	; 0
    494a:	70 e0       	ldi	r23, 0x00	; 0
    494c:	80 e0       	ldi	r24, 0x00	; 0
    494e:	90 e0       	ldi	r25, 0x00	; 0
    4950:	0e 94 e4 15 	call	0x2bc8	; 0x2bc8 <TFT_PutsInt>
	
	i_time = 0;
    4954:	10 92 da 02 	sts	0x02DA, r1
    4958:	10 92 db 02 	sts	0x02DB, r1
    495c:	10 92 dc 02 	sts	0x02DC, r1
    4960:	10 92 dd 02 	sts	0x02DD, r1
    4964:	4a cd       	rjmp	.-1388   	; 0x43fa <main+0x1240>

00004966 <vfprintf>:
    4966:	a3 e1       	ldi	r26, 0x13	; 19
    4968:	b0 e0       	ldi	r27, 0x00	; 0
    496a:	e9 eb       	ldi	r30, 0xB9	; 185
    496c:	f4 e2       	ldi	r31, 0x24	; 36
    496e:	0c 94 9d 28 	jmp	0x513a	; 0x513a <__prologue_saves__>
    4972:	7c 01       	movw	r14, r24
    4974:	1b 01       	movw	r2, r22
    4976:	6a 01       	movw	r12, r20
    4978:	fc 01       	movw	r30, r24
    497a:	17 82       	std	Z+7, r1	; 0x07
    497c:	16 82       	std	Z+6, r1	; 0x06
    497e:	83 81       	ldd	r24, Z+3	; 0x03
    4980:	81 ff       	sbrs	r24, 1
    4982:	66 c3       	rjmp	.+1740   	; 0x5050 <vfprintf+0x6ea>
    4984:	be 01       	movw	r22, r28
    4986:	6f 5f       	subi	r22, 0xFF	; 255
    4988:	7f 4f       	sbci	r23, 0xFF	; 255
    498a:	4b 01       	movw	r8, r22
    498c:	f7 01       	movw	r30, r14
    498e:	93 81       	ldd	r25, Z+3	; 0x03
    4990:	f1 01       	movw	r30, r2
    4992:	93 fd       	sbrc	r25, 3
    4994:	85 91       	lpm	r24, Z+
    4996:	93 ff       	sbrs	r25, 3
    4998:	81 91       	ld	r24, Z+
    499a:	1f 01       	movw	r2, r30
    499c:	88 23       	and	r24, r24
    499e:	09 f4       	brne	.+2      	; 0x49a2 <vfprintf+0x3c>
    49a0:	53 c3       	rjmp	.+1702   	; 0x5048 <vfprintf+0x6e2>
    49a2:	85 32       	cpi	r24, 0x25	; 37
    49a4:	39 f4       	brne	.+14     	; 0x49b4 <vfprintf+0x4e>
    49a6:	93 fd       	sbrc	r25, 3
    49a8:	85 91       	lpm	r24, Z+
    49aa:	93 ff       	sbrs	r25, 3
    49ac:	81 91       	ld	r24, Z+
    49ae:	1f 01       	movw	r2, r30
    49b0:	85 32       	cpi	r24, 0x25	; 37
    49b2:	39 f4       	brne	.+14     	; 0x49c2 <vfprintf+0x5c>
    49b4:	b7 01       	movw	r22, r14
    49b6:	90 e0       	ldi	r25, 0x00	; 0
    49b8:	0e 94 d6 29 	call	0x53ac	; 0x53ac <fputc>
    49bc:	56 01       	movw	r10, r12
    49be:	65 01       	movw	r12, r10
    49c0:	e5 cf       	rjmp	.-54     	; 0x498c <vfprintf+0x26>
    49c2:	10 e0       	ldi	r17, 0x00	; 0
    49c4:	51 2c       	mov	r5, r1
    49c6:	20 e0       	ldi	r18, 0x00	; 0
    49c8:	20 32       	cpi	r18, 0x20	; 32
    49ca:	a0 f4       	brcc	.+40     	; 0x49f4 <vfprintf+0x8e>
    49cc:	8b 32       	cpi	r24, 0x2B	; 43
    49ce:	69 f0       	breq	.+26     	; 0x49ea <vfprintf+0x84>
    49d0:	30 f4       	brcc	.+12     	; 0x49de <vfprintf+0x78>
    49d2:	80 32       	cpi	r24, 0x20	; 32
    49d4:	59 f0       	breq	.+22     	; 0x49ec <vfprintf+0x86>
    49d6:	83 32       	cpi	r24, 0x23	; 35
    49d8:	69 f4       	brne	.+26     	; 0x49f4 <vfprintf+0x8e>
    49da:	20 61       	ori	r18, 0x10	; 16
    49dc:	2c c0       	rjmp	.+88     	; 0x4a36 <vfprintf+0xd0>
    49de:	8d 32       	cpi	r24, 0x2D	; 45
    49e0:	39 f0       	breq	.+14     	; 0x49f0 <vfprintf+0x8a>
    49e2:	80 33       	cpi	r24, 0x30	; 48
    49e4:	39 f4       	brne	.+14     	; 0x49f4 <vfprintf+0x8e>
    49e6:	21 60       	ori	r18, 0x01	; 1
    49e8:	26 c0       	rjmp	.+76     	; 0x4a36 <vfprintf+0xd0>
    49ea:	22 60       	ori	r18, 0x02	; 2
    49ec:	24 60       	ori	r18, 0x04	; 4
    49ee:	23 c0       	rjmp	.+70     	; 0x4a36 <vfprintf+0xd0>
    49f0:	28 60       	ori	r18, 0x08	; 8
    49f2:	21 c0       	rjmp	.+66     	; 0x4a36 <vfprintf+0xd0>
    49f4:	27 fd       	sbrc	r18, 7
    49f6:	27 c0       	rjmp	.+78     	; 0x4a46 <vfprintf+0xe0>
    49f8:	30 ed       	ldi	r19, 0xD0	; 208
    49fa:	38 0f       	add	r19, r24
    49fc:	3a 30       	cpi	r19, 0x0A	; 10
    49fe:	78 f4       	brcc	.+30     	; 0x4a1e <vfprintf+0xb8>
    4a00:	26 ff       	sbrs	r18, 6
    4a02:	06 c0       	rjmp	.+12     	; 0x4a10 <vfprintf+0xaa>
    4a04:	fa e0       	ldi	r31, 0x0A	; 10
    4a06:	1f 9f       	mul	r17, r31
    4a08:	30 0d       	add	r19, r0
    4a0a:	11 24       	eor	r1, r1
    4a0c:	13 2f       	mov	r17, r19
    4a0e:	13 c0       	rjmp	.+38     	; 0x4a36 <vfprintf+0xd0>
    4a10:	6a e0       	ldi	r22, 0x0A	; 10
    4a12:	56 9e       	mul	r5, r22
    4a14:	30 0d       	add	r19, r0
    4a16:	11 24       	eor	r1, r1
    4a18:	53 2e       	mov	r5, r19
    4a1a:	20 62       	ori	r18, 0x20	; 32
    4a1c:	0c c0       	rjmp	.+24     	; 0x4a36 <vfprintf+0xd0>
    4a1e:	8e 32       	cpi	r24, 0x2E	; 46
    4a20:	21 f4       	brne	.+8      	; 0x4a2a <vfprintf+0xc4>
    4a22:	26 fd       	sbrc	r18, 6
    4a24:	11 c3       	rjmp	.+1570   	; 0x5048 <vfprintf+0x6e2>
    4a26:	20 64       	ori	r18, 0x40	; 64
    4a28:	06 c0       	rjmp	.+12     	; 0x4a36 <vfprintf+0xd0>
    4a2a:	8c 36       	cpi	r24, 0x6C	; 108
    4a2c:	11 f4       	brne	.+4      	; 0x4a32 <vfprintf+0xcc>
    4a2e:	20 68       	ori	r18, 0x80	; 128
    4a30:	02 c0       	rjmp	.+4      	; 0x4a36 <vfprintf+0xd0>
    4a32:	88 36       	cpi	r24, 0x68	; 104
    4a34:	41 f4       	brne	.+16     	; 0x4a46 <vfprintf+0xe0>
    4a36:	f1 01       	movw	r30, r2
    4a38:	93 fd       	sbrc	r25, 3
    4a3a:	85 91       	lpm	r24, Z+
    4a3c:	93 ff       	sbrs	r25, 3
    4a3e:	81 91       	ld	r24, Z+
    4a40:	1f 01       	movw	r2, r30
    4a42:	81 11       	cpse	r24, r1
    4a44:	c1 cf       	rjmp	.-126    	; 0x49c8 <vfprintf+0x62>
    4a46:	9b eb       	ldi	r25, 0xBB	; 187
    4a48:	98 0f       	add	r25, r24
    4a4a:	93 30       	cpi	r25, 0x03	; 3
    4a4c:	18 f4       	brcc	.+6      	; 0x4a54 <vfprintf+0xee>
    4a4e:	20 61       	ori	r18, 0x10	; 16
    4a50:	80 5e       	subi	r24, 0xE0	; 224
    4a52:	06 c0       	rjmp	.+12     	; 0x4a60 <vfprintf+0xfa>
    4a54:	9b e9       	ldi	r25, 0x9B	; 155
    4a56:	98 0f       	add	r25, r24
    4a58:	93 30       	cpi	r25, 0x03	; 3
    4a5a:	08 f0       	brcs	.+2      	; 0x4a5e <vfprintf+0xf8>
    4a5c:	aa c1       	rjmp	.+852    	; 0x4db2 <vfprintf+0x44c>
    4a5e:	2f 7e       	andi	r18, 0xEF	; 239
    4a60:	26 ff       	sbrs	r18, 6
    4a62:	16 e0       	ldi	r17, 0x06	; 6
    4a64:	2f 73       	andi	r18, 0x3F	; 63
    4a66:	72 2e       	mov	r7, r18
    4a68:	85 36       	cpi	r24, 0x65	; 101
    4a6a:	21 f4       	brne	.+8      	; 0x4a74 <vfprintf+0x10e>
    4a6c:	f2 2f       	mov	r31, r18
    4a6e:	f0 64       	ori	r31, 0x40	; 64
    4a70:	7f 2e       	mov	r7, r31
    4a72:	08 c0       	rjmp	.+16     	; 0x4a84 <vfprintf+0x11e>
    4a74:	86 36       	cpi	r24, 0x66	; 102
    4a76:	21 f4       	brne	.+8      	; 0x4a80 <vfprintf+0x11a>
    4a78:	62 2f       	mov	r22, r18
    4a7a:	60 68       	ori	r22, 0x80	; 128
    4a7c:	76 2e       	mov	r7, r22
    4a7e:	02 c0       	rjmp	.+4      	; 0x4a84 <vfprintf+0x11e>
    4a80:	11 11       	cpse	r17, r1
    4a82:	11 50       	subi	r17, 0x01	; 1
    4a84:	77 fe       	sbrs	r7, 7
    4a86:	07 c0       	rjmp	.+14     	; 0x4a96 <vfprintf+0x130>
    4a88:	1c 33       	cpi	r17, 0x3C	; 60
    4a8a:	48 f4       	brcc	.+18     	; 0x4a9e <vfprintf+0x138>
    4a8c:	44 24       	eor	r4, r4
    4a8e:	43 94       	inc	r4
    4a90:	41 0e       	add	r4, r17
    4a92:	27 e0       	ldi	r18, 0x07	; 7
    4a94:	0b c0       	rjmp	.+22     	; 0x4aac <vfprintf+0x146>
    4a96:	18 30       	cpi	r17, 0x08	; 8
    4a98:	30 f4       	brcc	.+12     	; 0x4aa6 <vfprintf+0x140>
    4a9a:	21 2f       	mov	r18, r17
    4a9c:	06 c0       	rjmp	.+12     	; 0x4aaa <vfprintf+0x144>
    4a9e:	27 e0       	ldi	r18, 0x07	; 7
    4aa0:	4c e3       	ldi	r20, 0x3C	; 60
    4aa2:	44 2e       	mov	r4, r20
    4aa4:	03 c0       	rjmp	.+6      	; 0x4aac <vfprintf+0x146>
    4aa6:	27 e0       	ldi	r18, 0x07	; 7
    4aa8:	17 e0       	ldi	r17, 0x07	; 7
    4aaa:	41 2c       	mov	r4, r1
    4aac:	56 01       	movw	r10, r12
    4aae:	74 e0       	ldi	r23, 0x04	; 4
    4ab0:	a7 0e       	add	r10, r23
    4ab2:	b1 1c       	adc	r11, r1
    4ab4:	f6 01       	movw	r30, r12
    4ab6:	60 81       	ld	r22, Z
    4ab8:	71 81       	ldd	r23, Z+1	; 0x01
    4aba:	82 81       	ldd	r24, Z+2	; 0x02
    4abc:	93 81       	ldd	r25, Z+3	; 0x03
    4abe:	04 2d       	mov	r16, r4
    4ac0:	a4 01       	movw	r20, r8
    4ac2:	0e 94 e8 28 	call	0x51d0	; 0x51d0 <__ftoa_engine>
    4ac6:	6c 01       	movw	r12, r24
    4ac8:	09 81       	ldd	r16, Y+1	; 0x01
    4aca:	00 ff       	sbrs	r16, 0
    4acc:	02 c0       	rjmp	.+4      	; 0x4ad2 <vfprintf+0x16c>
    4ace:	03 ff       	sbrs	r16, 3
    4ad0:	06 c0       	rjmp	.+12     	; 0x4ade <vfprintf+0x178>
    4ad2:	71 fc       	sbrc	r7, 1
    4ad4:	07 c0       	rjmp	.+14     	; 0x4ae4 <vfprintf+0x17e>
    4ad6:	72 fc       	sbrc	r7, 2
    4ad8:	08 c0       	rjmp	.+16     	; 0x4aea <vfprintf+0x184>
    4ada:	61 2c       	mov	r6, r1
    4adc:	08 c0       	rjmp	.+16     	; 0x4aee <vfprintf+0x188>
    4ade:	3d e2       	ldi	r19, 0x2D	; 45
    4ae0:	63 2e       	mov	r6, r19
    4ae2:	05 c0       	rjmp	.+10     	; 0x4aee <vfprintf+0x188>
    4ae4:	2b e2       	ldi	r18, 0x2B	; 43
    4ae6:	62 2e       	mov	r6, r18
    4ae8:	02 c0       	rjmp	.+4      	; 0x4aee <vfprintf+0x188>
    4aea:	90 e2       	ldi	r25, 0x20	; 32
    4aec:	69 2e       	mov	r6, r25
    4aee:	80 2f       	mov	r24, r16
    4af0:	8c 70       	andi	r24, 0x0C	; 12
    4af2:	99 f1       	breq	.+102    	; 0x4b5a <vfprintf+0x1f4>
    4af4:	66 20       	and	r6, r6
    4af6:	11 f0       	breq	.+4      	; 0x4afc <vfprintf+0x196>
    4af8:	84 e0       	ldi	r24, 0x04	; 4
    4afa:	01 c0       	rjmp	.+2      	; 0x4afe <vfprintf+0x198>
    4afc:	83 e0       	ldi	r24, 0x03	; 3
    4afe:	85 15       	cp	r24, r5
    4b00:	10 f0       	brcs	.+4      	; 0x4b06 <vfprintf+0x1a0>
    4b02:	51 2c       	mov	r5, r1
    4b04:	0b c0       	rjmp	.+22     	; 0x4b1c <vfprintf+0x1b6>
    4b06:	58 1a       	sub	r5, r24
    4b08:	73 fc       	sbrc	r7, 3
    4b0a:	08 c0       	rjmp	.+16     	; 0x4b1c <vfprintf+0x1b6>
    4b0c:	b7 01       	movw	r22, r14
    4b0e:	80 e2       	ldi	r24, 0x20	; 32
    4b10:	90 e0       	ldi	r25, 0x00	; 0
    4b12:	0e 94 d6 29 	call	0x53ac	; 0x53ac <fputc>
    4b16:	5a 94       	dec	r5
    4b18:	c9 f7       	brne	.-14     	; 0x4b0c <vfprintf+0x1a6>
    4b1a:	f3 cf       	rjmp	.-26     	; 0x4b02 <vfprintf+0x19c>
    4b1c:	66 20       	and	r6, r6
    4b1e:	29 f0       	breq	.+10     	; 0x4b2a <vfprintf+0x1c4>
    4b20:	b7 01       	movw	r22, r14
    4b22:	86 2d       	mov	r24, r6
    4b24:	90 e0       	ldi	r25, 0x00	; 0
    4b26:	0e 94 d6 29 	call	0x53ac	; 0x53ac <fputc>
    4b2a:	03 fd       	sbrc	r16, 3
    4b2c:	03 c0       	rjmp	.+6      	; 0x4b34 <vfprintf+0x1ce>
    4b2e:	00 ed       	ldi	r16, 0xD0	; 208
    4b30:	12 e2       	ldi	r17, 0x22	; 34
    4b32:	02 c0       	rjmp	.+4      	; 0x4b38 <vfprintf+0x1d2>
    4b34:	0c ec       	ldi	r16, 0xCC	; 204
    4b36:	12 e2       	ldi	r17, 0x22	; 34
    4b38:	f7 2d       	mov	r31, r7
    4b3a:	f0 71       	andi	r31, 0x10	; 16
    4b3c:	7f 2e       	mov	r7, r31
    4b3e:	f8 01       	movw	r30, r16
    4b40:	84 91       	lpm	r24, Z
    4b42:	88 23       	and	r24, r24
    4b44:	09 f4       	brne	.+2      	; 0x4b48 <vfprintf+0x1e2>
    4b46:	76 c2       	rjmp	.+1260   	; 0x5034 <vfprintf+0x6ce>
    4b48:	71 10       	cpse	r7, r1
    4b4a:	80 52       	subi	r24, 0x20	; 32
    4b4c:	b7 01       	movw	r22, r14
    4b4e:	90 e0       	ldi	r25, 0x00	; 0
    4b50:	0e 94 d6 29 	call	0x53ac	; 0x53ac <fputc>
    4b54:	0f 5f       	subi	r16, 0xFF	; 255
    4b56:	1f 4f       	sbci	r17, 0xFF	; 255
    4b58:	f2 cf       	rjmp	.-28     	; 0x4b3e <vfprintf+0x1d8>
    4b5a:	77 fe       	sbrs	r7, 7
    4b5c:	0f c0       	rjmp	.+30     	; 0x4b7c <vfprintf+0x216>
    4b5e:	4c 0c       	add	r4, r12
    4b60:	04 ff       	sbrs	r16, 4
    4b62:	04 c0       	rjmp	.+8      	; 0x4b6c <vfprintf+0x206>
    4b64:	8a 81       	ldd	r24, Y+2	; 0x02
    4b66:	81 33       	cpi	r24, 0x31	; 49
    4b68:	09 f4       	brne	.+2      	; 0x4b6c <vfprintf+0x206>
    4b6a:	4a 94       	dec	r4
    4b6c:	14 14       	cp	r1, r4
    4b6e:	74 f5       	brge	.+92     	; 0x4bcc <vfprintf+0x266>
    4b70:	f8 e0       	ldi	r31, 0x08	; 8
    4b72:	f4 15       	cp	r31, r4
    4b74:	78 f5       	brcc	.+94     	; 0x4bd4 <vfprintf+0x26e>
    4b76:	88 e0       	ldi	r24, 0x08	; 8
    4b78:	48 2e       	mov	r4, r24
    4b7a:	2c c0       	rjmp	.+88     	; 0x4bd4 <vfprintf+0x26e>
    4b7c:	76 fc       	sbrc	r7, 6
    4b7e:	2a c0       	rjmp	.+84     	; 0x4bd4 <vfprintf+0x26e>
    4b80:	81 2f       	mov	r24, r17
    4b82:	90 e0       	ldi	r25, 0x00	; 0
    4b84:	8c 15       	cp	r24, r12
    4b86:	9d 05       	cpc	r25, r13
    4b88:	9c f0       	brlt	.+38     	; 0x4bb0 <vfprintf+0x24a>
    4b8a:	6c ef       	ldi	r22, 0xFC	; 252
    4b8c:	c6 16       	cp	r12, r22
    4b8e:	6f ef       	ldi	r22, 0xFF	; 255
    4b90:	d6 06       	cpc	r13, r22
    4b92:	74 f0       	brlt	.+28     	; 0x4bb0 <vfprintf+0x24a>
    4b94:	77 2d       	mov	r23, r7
    4b96:	70 68       	ori	r23, 0x80	; 128
    4b98:	77 2e       	mov	r7, r23
    4b9a:	0a c0       	rjmp	.+20     	; 0x4bb0 <vfprintf+0x24a>
    4b9c:	e2 e0       	ldi	r30, 0x02	; 2
    4b9e:	f0 e0       	ldi	r31, 0x00	; 0
    4ba0:	ec 0f       	add	r30, r28
    4ba2:	fd 1f       	adc	r31, r29
    4ba4:	e1 0f       	add	r30, r17
    4ba6:	f1 1d       	adc	r31, r1
    4ba8:	80 81       	ld	r24, Z
    4baa:	80 33       	cpi	r24, 0x30	; 48
    4bac:	19 f4       	brne	.+6      	; 0x4bb4 <vfprintf+0x24e>
    4bae:	11 50       	subi	r17, 0x01	; 1
    4bb0:	11 11       	cpse	r17, r1
    4bb2:	f4 cf       	rjmp	.-24     	; 0x4b9c <vfprintf+0x236>
    4bb4:	77 fe       	sbrs	r7, 7
    4bb6:	0e c0       	rjmp	.+28     	; 0x4bd4 <vfprintf+0x26e>
    4bb8:	44 24       	eor	r4, r4
    4bba:	43 94       	inc	r4
    4bbc:	41 0e       	add	r4, r17
    4bbe:	81 2f       	mov	r24, r17
    4bc0:	90 e0       	ldi	r25, 0x00	; 0
    4bc2:	c8 16       	cp	r12, r24
    4bc4:	d9 06       	cpc	r13, r25
    4bc6:	2c f4       	brge	.+10     	; 0x4bd2 <vfprintf+0x26c>
    4bc8:	1c 19       	sub	r17, r12
    4bca:	04 c0       	rjmp	.+8      	; 0x4bd4 <vfprintf+0x26e>
    4bcc:	44 24       	eor	r4, r4
    4bce:	43 94       	inc	r4
    4bd0:	01 c0       	rjmp	.+2      	; 0x4bd4 <vfprintf+0x26e>
    4bd2:	10 e0       	ldi	r17, 0x00	; 0
    4bd4:	77 fe       	sbrs	r7, 7
    4bd6:	07 c0       	rjmp	.+14     	; 0x4be6 <vfprintf+0x280>
    4bd8:	1c 14       	cp	r1, r12
    4bda:	1d 04       	cpc	r1, r13
    4bdc:	3c f4       	brge	.+14     	; 0x4bec <vfprintf+0x286>
    4bde:	96 01       	movw	r18, r12
    4be0:	2f 5f       	subi	r18, 0xFF	; 255
    4be2:	3f 4f       	sbci	r19, 0xFF	; 255
    4be4:	05 c0       	rjmp	.+10     	; 0x4bf0 <vfprintf+0x28a>
    4be6:	25 e0       	ldi	r18, 0x05	; 5
    4be8:	30 e0       	ldi	r19, 0x00	; 0
    4bea:	02 c0       	rjmp	.+4      	; 0x4bf0 <vfprintf+0x28a>
    4bec:	21 e0       	ldi	r18, 0x01	; 1
    4bee:	30 e0       	ldi	r19, 0x00	; 0
    4bf0:	66 20       	and	r6, r6
    4bf2:	11 f0       	breq	.+4      	; 0x4bf8 <vfprintf+0x292>
    4bf4:	2f 5f       	subi	r18, 0xFF	; 255
    4bf6:	3f 4f       	sbci	r19, 0xFF	; 255
    4bf8:	11 23       	and	r17, r17
    4bfa:	31 f0       	breq	.+12     	; 0x4c08 <vfprintf+0x2a2>
    4bfc:	41 2f       	mov	r20, r17
    4bfe:	50 e0       	ldi	r21, 0x00	; 0
    4c00:	4f 5f       	subi	r20, 0xFF	; 255
    4c02:	5f 4f       	sbci	r21, 0xFF	; 255
    4c04:	24 0f       	add	r18, r20
    4c06:	35 1f       	adc	r19, r21
    4c08:	45 2d       	mov	r20, r5
    4c0a:	50 e0       	ldi	r21, 0x00	; 0
    4c0c:	24 17       	cp	r18, r20
    4c0e:	35 07       	cpc	r19, r21
    4c10:	14 f4       	brge	.+4      	; 0x4c16 <vfprintf+0x2b0>
    4c12:	52 1a       	sub	r5, r18
    4c14:	01 c0       	rjmp	.+2      	; 0x4c18 <vfprintf+0x2b2>
    4c16:	51 2c       	mov	r5, r1
    4c18:	87 2d       	mov	r24, r7
    4c1a:	89 70       	andi	r24, 0x09	; 9
    4c1c:	49 f4       	brne	.+18     	; 0x4c30 <vfprintf+0x2ca>
    4c1e:	55 20       	and	r5, r5
    4c20:	39 f0       	breq	.+14     	; 0x4c30 <vfprintf+0x2ca>
    4c22:	b7 01       	movw	r22, r14
    4c24:	80 e2       	ldi	r24, 0x20	; 32
    4c26:	90 e0       	ldi	r25, 0x00	; 0
    4c28:	0e 94 d6 29 	call	0x53ac	; 0x53ac <fputc>
    4c2c:	5a 94       	dec	r5
    4c2e:	f7 cf       	rjmp	.-18     	; 0x4c1e <vfprintf+0x2b8>
    4c30:	66 20       	and	r6, r6
    4c32:	29 f0       	breq	.+10     	; 0x4c3e <vfprintf+0x2d8>
    4c34:	b7 01       	movw	r22, r14
    4c36:	86 2d       	mov	r24, r6
    4c38:	90 e0       	ldi	r25, 0x00	; 0
    4c3a:	0e 94 d6 29 	call	0x53ac	; 0x53ac <fputc>
    4c3e:	73 fc       	sbrc	r7, 3
    4c40:	09 c0       	rjmp	.+18     	; 0x4c54 <vfprintf+0x2ee>
    4c42:	55 20       	and	r5, r5
    4c44:	39 f0       	breq	.+14     	; 0x4c54 <vfprintf+0x2ee>
    4c46:	b7 01       	movw	r22, r14
    4c48:	80 e3       	ldi	r24, 0x30	; 48
    4c4a:	90 e0       	ldi	r25, 0x00	; 0
    4c4c:	0e 94 d6 29 	call	0x53ac	; 0x53ac <fputc>
    4c50:	5a 94       	dec	r5
    4c52:	f7 cf       	rjmp	.-18     	; 0x4c42 <vfprintf+0x2dc>
    4c54:	77 fe       	sbrs	r7, 7
    4c56:	5f c0       	rjmp	.+190    	; 0x4d16 <vfprintf+0x3b0>
    4c58:	9c 2d       	mov	r25, r12
    4c5a:	8d 2d       	mov	r24, r13
    4c5c:	d7 fe       	sbrs	r13, 7
    4c5e:	02 c0       	rjmp	.+4      	; 0x4c64 <vfprintf+0x2fe>
    4c60:	90 e0       	ldi	r25, 0x00	; 0
    4c62:	80 e0       	ldi	r24, 0x00	; 0
    4c64:	69 2e       	mov	r6, r25
    4c66:	78 2e       	mov	r7, r24
    4c68:	40 e0       	ldi	r20, 0x00	; 0
    4c6a:	50 e0       	ldi	r21, 0x00	; 0
    4c6c:	c6 01       	movw	r24, r12
    4c6e:	84 19       	sub	r24, r4
    4c70:	91 09       	sbc	r25, r1
    4c72:	9d 87       	std	Y+13, r25	; 0x0d
    4c74:	8c 87       	std	Y+12, r24	; 0x0c
    4c76:	96 01       	movw	r18, r12
    4c78:	26 19       	sub	r18, r6
    4c7a:	37 09       	sbc	r19, r7
    4c7c:	28 0d       	add	r18, r8
    4c7e:	39 1d       	adc	r19, r9
    4c80:	81 2f       	mov	r24, r17
    4c82:	90 e0       	ldi	r25, 0x00	; 0
    4c84:	ee 27       	eor	r30, r30
    4c86:	ff 27       	eor	r31, r31
    4c88:	e8 1b       	sub	r30, r24
    4c8a:	f9 0b       	sbc	r31, r25
    4c8c:	ff 87       	std	Y+15, r31	; 0x0f
    4c8e:	ee 87       	std	Y+14, r30	; 0x0e
    4c90:	ff ef       	ldi	r31, 0xFF	; 255
    4c92:	6f 16       	cp	r6, r31
    4c94:	7f 06       	cpc	r7, r31
    4c96:	69 f4       	brne	.+26     	; 0x4cb2 <vfprintf+0x34c>
    4c98:	b7 01       	movw	r22, r14
    4c9a:	8e e2       	ldi	r24, 0x2E	; 46
    4c9c:	90 e0       	ldi	r25, 0x00	; 0
    4c9e:	2b 8b       	std	Y+19, r18	; 0x13
    4ca0:	3a 8b       	std	Y+18, r19	; 0x12
    4ca2:	48 8b       	std	Y+16, r20	; 0x10
    4ca4:	59 8b       	std	Y+17, r21	; 0x11
    4ca6:	0e 94 d6 29 	call	0x53ac	; 0x53ac <fputc>
    4caa:	59 89       	ldd	r21, Y+17	; 0x11
    4cac:	48 89       	ldd	r20, Y+16	; 0x10
    4cae:	3a 89       	ldd	r19, Y+18	; 0x12
    4cb0:	2b 89       	ldd	r18, Y+19	; 0x13
    4cb2:	c6 14       	cp	r12, r6
    4cb4:	d7 04       	cpc	r13, r7
    4cb6:	54 f0       	brlt	.+20     	; 0x4ccc <vfprintf+0x366>
    4cb8:	6c 85       	ldd	r22, Y+12	; 0x0c
    4cba:	7d 85       	ldd	r23, Y+13	; 0x0d
    4cbc:	66 15       	cp	r22, r6
    4cbe:	77 05       	cpc	r23, r7
    4cc0:	2c f4       	brge	.+10     	; 0x4ccc <vfprintf+0x366>
    4cc2:	f9 01       	movw	r30, r18
    4cc4:	e4 0f       	add	r30, r20
    4cc6:	f5 1f       	adc	r31, r21
    4cc8:	81 81       	ldd	r24, Z+1	; 0x01
    4cca:	01 c0       	rjmp	.+2      	; 0x4cce <vfprintf+0x368>
    4ccc:	80 e3       	ldi	r24, 0x30	; 48
    4cce:	71 e0       	ldi	r23, 0x01	; 1
    4cd0:	67 1a       	sub	r6, r23
    4cd2:	71 08       	sbc	r7, r1
    4cd4:	4f 5f       	subi	r20, 0xFF	; 255
    4cd6:	5f 4f       	sbci	r21, 0xFF	; 255
    4cd8:	ee 85       	ldd	r30, Y+14	; 0x0e
    4cda:	ff 85       	ldd	r31, Y+15	; 0x0f
    4cdc:	6e 16       	cp	r6, r30
    4cde:	7f 06       	cpc	r7, r31
    4ce0:	6c f0       	brlt	.+26     	; 0x4cfc <vfprintf+0x396>
    4ce2:	b7 01       	movw	r22, r14
    4ce4:	90 e0       	ldi	r25, 0x00	; 0
    4ce6:	2b 8b       	std	Y+19, r18	; 0x13
    4ce8:	3a 8b       	std	Y+18, r19	; 0x12
    4cea:	48 8b       	std	Y+16, r20	; 0x10
    4cec:	59 8b       	std	Y+17, r21	; 0x11
    4cee:	0e 94 d6 29 	call	0x53ac	; 0x53ac <fputc>
    4cf2:	2b 89       	ldd	r18, Y+19	; 0x13
    4cf4:	3a 89       	ldd	r19, Y+18	; 0x12
    4cf6:	48 89       	ldd	r20, Y+16	; 0x10
    4cf8:	59 89       	ldd	r21, Y+17	; 0x11
    4cfa:	ca cf       	rjmp	.-108    	; 0x4c90 <vfprintf+0x32a>
    4cfc:	6c 14       	cp	r6, r12
    4cfe:	7d 04       	cpc	r7, r13
    4d00:	39 f4       	brne	.+14     	; 0x4d10 <vfprintf+0x3aa>
    4d02:	9a 81       	ldd	r25, Y+2	; 0x02
    4d04:	96 33       	cpi	r25, 0x36	; 54
    4d06:	18 f4       	brcc	.+6      	; 0x4d0e <vfprintf+0x3a8>
    4d08:	95 33       	cpi	r25, 0x35	; 53
    4d0a:	11 f4       	brne	.+4      	; 0x4d10 <vfprintf+0x3aa>
    4d0c:	04 ff       	sbrs	r16, 4
    4d0e:	81 e3       	ldi	r24, 0x31	; 49
    4d10:	b7 01       	movw	r22, r14
    4d12:	90 e0       	ldi	r25, 0x00	; 0
    4d14:	4b c0       	rjmp	.+150    	; 0x4dac <vfprintf+0x446>
    4d16:	8a 81       	ldd	r24, Y+2	; 0x02
    4d18:	81 33       	cpi	r24, 0x31	; 49
    4d1a:	09 f0       	breq	.+2      	; 0x4d1e <vfprintf+0x3b8>
    4d1c:	0f 7e       	andi	r16, 0xEF	; 239
    4d1e:	b7 01       	movw	r22, r14
    4d20:	90 e0       	ldi	r25, 0x00	; 0
    4d22:	0e 94 d6 29 	call	0x53ac	; 0x53ac <fputc>
    4d26:	11 11       	cpse	r17, r1
    4d28:	05 c0       	rjmp	.+10     	; 0x4d34 <vfprintf+0x3ce>
    4d2a:	74 fe       	sbrs	r7, 4
    4d2c:	18 c0       	rjmp	.+48     	; 0x4d5e <vfprintf+0x3f8>
    4d2e:	85 e4       	ldi	r24, 0x45	; 69
    4d30:	90 e0       	ldi	r25, 0x00	; 0
    4d32:	17 c0       	rjmp	.+46     	; 0x4d62 <vfprintf+0x3fc>
    4d34:	b7 01       	movw	r22, r14
    4d36:	8e e2       	ldi	r24, 0x2E	; 46
    4d38:	90 e0       	ldi	r25, 0x00	; 0
    4d3a:	0e 94 d6 29 	call	0x53ac	; 0x53ac <fputc>
    4d3e:	82 e0       	ldi	r24, 0x02	; 2
    4d40:	66 24       	eor	r6, r6
    4d42:	63 94       	inc	r6
    4d44:	68 0e       	add	r6, r24
    4d46:	f4 01       	movw	r30, r8
    4d48:	e8 0f       	add	r30, r24
    4d4a:	f1 1d       	adc	r31, r1
    4d4c:	80 81       	ld	r24, Z
    4d4e:	b7 01       	movw	r22, r14
    4d50:	90 e0       	ldi	r25, 0x00	; 0
    4d52:	0e 94 d6 29 	call	0x53ac	; 0x53ac <fputc>
    4d56:	11 50       	subi	r17, 0x01	; 1
    4d58:	41 f3       	breq	.-48     	; 0x4d2a <vfprintf+0x3c4>
    4d5a:	86 2d       	mov	r24, r6
    4d5c:	f1 cf       	rjmp	.-30     	; 0x4d40 <vfprintf+0x3da>
    4d5e:	85 e6       	ldi	r24, 0x65	; 101
    4d60:	90 e0       	ldi	r25, 0x00	; 0
    4d62:	b7 01       	movw	r22, r14
    4d64:	0e 94 d6 29 	call	0x53ac	; 0x53ac <fputc>
    4d68:	d7 fc       	sbrc	r13, 7
    4d6a:	05 c0       	rjmp	.+10     	; 0x4d76 <vfprintf+0x410>
    4d6c:	c1 14       	cp	r12, r1
    4d6e:	d1 04       	cpc	r13, r1
    4d70:	39 f4       	brne	.+14     	; 0x4d80 <vfprintf+0x41a>
    4d72:	04 ff       	sbrs	r16, 4
    4d74:	05 c0       	rjmp	.+10     	; 0x4d80 <vfprintf+0x41a>
    4d76:	d1 94       	neg	r13
    4d78:	c1 94       	neg	r12
    4d7a:	d1 08       	sbc	r13, r1
    4d7c:	8d e2       	ldi	r24, 0x2D	; 45
    4d7e:	01 c0       	rjmp	.+2      	; 0x4d82 <vfprintf+0x41c>
    4d80:	8b e2       	ldi	r24, 0x2B	; 43
    4d82:	b7 01       	movw	r22, r14
    4d84:	90 e0       	ldi	r25, 0x00	; 0
    4d86:	0e 94 d6 29 	call	0x53ac	; 0x53ac <fputc>
    4d8a:	80 e3       	ldi	r24, 0x30	; 48
    4d8c:	6a e0       	ldi	r22, 0x0A	; 10
    4d8e:	c6 16       	cp	r12, r22
    4d90:	d1 04       	cpc	r13, r1
    4d92:	2c f0       	brlt	.+10     	; 0x4d9e <vfprintf+0x438>
    4d94:	8f 5f       	subi	r24, 0xFF	; 255
    4d96:	fa e0       	ldi	r31, 0x0A	; 10
    4d98:	cf 1a       	sub	r12, r31
    4d9a:	d1 08       	sbc	r13, r1
    4d9c:	f7 cf       	rjmp	.-18     	; 0x4d8c <vfprintf+0x426>
    4d9e:	b7 01       	movw	r22, r14
    4da0:	90 e0       	ldi	r25, 0x00	; 0
    4da2:	0e 94 d6 29 	call	0x53ac	; 0x53ac <fputc>
    4da6:	b7 01       	movw	r22, r14
    4da8:	c6 01       	movw	r24, r12
    4daa:	c0 96       	adiw	r24, 0x30	; 48
    4dac:	0e 94 d6 29 	call	0x53ac	; 0x53ac <fputc>
    4db0:	41 c1       	rjmp	.+642    	; 0x5034 <vfprintf+0x6ce>
    4db2:	83 36       	cpi	r24, 0x63	; 99
    4db4:	31 f0       	breq	.+12     	; 0x4dc2 <vfprintf+0x45c>
    4db6:	83 37       	cpi	r24, 0x73	; 115
    4db8:	79 f0       	breq	.+30     	; 0x4dd8 <vfprintf+0x472>
    4dba:	83 35       	cpi	r24, 0x53	; 83
    4dbc:	09 f0       	breq	.+2      	; 0x4dc0 <vfprintf+0x45a>
    4dbe:	58 c0       	rjmp	.+176    	; 0x4e70 <vfprintf+0x50a>
    4dc0:	21 c0       	rjmp	.+66     	; 0x4e04 <vfprintf+0x49e>
    4dc2:	56 01       	movw	r10, r12
    4dc4:	72 e0       	ldi	r23, 0x02	; 2
    4dc6:	a7 0e       	add	r10, r23
    4dc8:	b1 1c       	adc	r11, r1
    4dca:	f6 01       	movw	r30, r12
    4dcc:	80 81       	ld	r24, Z
    4dce:	89 83       	std	Y+1, r24	; 0x01
    4dd0:	01 e0       	ldi	r16, 0x01	; 1
    4dd2:	10 e0       	ldi	r17, 0x00	; 0
    4dd4:	64 01       	movw	r12, r8
    4dd6:	14 c0       	rjmp	.+40     	; 0x4e00 <vfprintf+0x49a>
    4dd8:	56 01       	movw	r10, r12
    4dda:	f2 e0       	ldi	r31, 0x02	; 2
    4ddc:	af 0e       	add	r10, r31
    4dde:	b1 1c       	adc	r11, r1
    4de0:	f6 01       	movw	r30, r12
    4de2:	c0 80       	ld	r12, Z
    4de4:	d1 80       	ldd	r13, Z+1	; 0x01
    4de6:	26 ff       	sbrs	r18, 6
    4de8:	03 c0       	rjmp	.+6      	; 0x4df0 <vfprintf+0x48a>
    4dea:	61 2f       	mov	r22, r17
    4dec:	70 e0       	ldi	r23, 0x00	; 0
    4dee:	02 c0       	rjmp	.+4      	; 0x4df4 <vfprintf+0x48e>
    4df0:	6f ef       	ldi	r22, 0xFF	; 255
    4df2:	7f ef       	ldi	r23, 0xFF	; 255
    4df4:	c6 01       	movw	r24, r12
    4df6:	2b 8b       	std	Y+19, r18	; 0x13
    4df8:	0e 94 cb 29 	call	0x5396	; 0x5396 <strnlen>
    4dfc:	8c 01       	movw	r16, r24
    4dfe:	2b 89       	ldd	r18, Y+19	; 0x13
    4e00:	2f 77       	andi	r18, 0x7F	; 127
    4e02:	15 c0       	rjmp	.+42     	; 0x4e2e <vfprintf+0x4c8>
    4e04:	56 01       	movw	r10, r12
    4e06:	f2 e0       	ldi	r31, 0x02	; 2
    4e08:	af 0e       	add	r10, r31
    4e0a:	b1 1c       	adc	r11, r1
    4e0c:	f6 01       	movw	r30, r12
    4e0e:	c0 80       	ld	r12, Z
    4e10:	d1 80       	ldd	r13, Z+1	; 0x01
    4e12:	26 ff       	sbrs	r18, 6
    4e14:	03 c0       	rjmp	.+6      	; 0x4e1c <vfprintf+0x4b6>
    4e16:	61 2f       	mov	r22, r17
    4e18:	70 e0       	ldi	r23, 0x00	; 0
    4e1a:	02 c0       	rjmp	.+4      	; 0x4e20 <vfprintf+0x4ba>
    4e1c:	6f ef       	ldi	r22, 0xFF	; 255
    4e1e:	7f ef       	ldi	r23, 0xFF	; 255
    4e20:	c6 01       	movw	r24, r12
    4e22:	2b 8b       	std	Y+19, r18	; 0x13
    4e24:	0e 94 c0 29 	call	0x5380	; 0x5380 <strnlen_P>
    4e28:	8c 01       	movw	r16, r24
    4e2a:	2b 89       	ldd	r18, Y+19	; 0x13
    4e2c:	20 68       	ori	r18, 0x80	; 128
    4e2e:	72 2e       	mov	r7, r18
    4e30:	23 fd       	sbrc	r18, 3
    4e32:	1a c0       	rjmp	.+52     	; 0x4e68 <vfprintf+0x502>
    4e34:	85 2d       	mov	r24, r5
    4e36:	90 e0       	ldi	r25, 0x00	; 0
    4e38:	08 17       	cp	r16, r24
    4e3a:	19 07       	cpc	r17, r25
    4e3c:	a8 f4       	brcc	.+42     	; 0x4e68 <vfprintf+0x502>
    4e3e:	b7 01       	movw	r22, r14
    4e40:	80 e2       	ldi	r24, 0x20	; 32
    4e42:	90 e0       	ldi	r25, 0x00	; 0
    4e44:	0e 94 d6 29 	call	0x53ac	; 0x53ac <fputc>
    4e48:	5a 94       	dec	r5
    4e4a:	f4 cf       	rjmp	.-24     	; 0x4e34 <vfprintf+0x4ce>
    4e4c:	f6 01       	movw	r30, r12
    4e4e:	77 fc       	sbrc	r7, 7
    4e50:	85 91       	lpm	r24, Z+
    4e52:	77 fe       	sbrs	r7, 7
    4e54:	81 91       	ld	r24, Z+
    4e56:	6f 01       	movw	r12, r30
    4e58:	b7 01       	movw	r22, r14
    4e5a:	90 e0       	ldi	r25, 0x00	; 0
    4e5c:	0e 94 d6 29 	call	0x53ac	; 0x53ac <fputc>
    4e60:	51 10       	cpse	r5, r1
    4e62:	5a 94       	dec	r5
    4e64:	01 50       	subi	r16, 0x01	; 1
    4e66:	11 09       	sbc	r17, r1
    4e68:	01 15       	cp	r16, r1
    4e6a:	11 05       	cpc	r17, r1
    4e6c:	79 f7       	brne	.-34     	; 0x4e4c <vfprintf+0x4e6>
    4e6e:	e2 c0       	rjmp	.+452    	; 0x5034 <vfprintf+0x6ce>
    4e70:	84 36       	cpi	r24, 0x64	; 100
    4e72:	11 f0       	breq	.+4      	; 0x4e78 <vfprintf+0x512>
    4e74:	89 36       	cpi	r24, 0x69	; 105
    4e76:	51 f5       	brne	.+84     	; 0x4ecc <vfprintf+0x566>
    4e78:	56 01       	movw	r10, r12
    4e7a:	27 ff       	sbrs	r18, 7
    4e7c:	09 c0       	rjmp	.+18     	; 0x4e90 <vfprintf+0x52a>
    4e7e:	f4 e0       	ldi	r31, 0x04	; 4
    4e80:	af 0e       	add	r10, r31
    4e82:	b1 1c       	adc	r11, r1
    4e84:	f6 01       	movw	r30, r12
    4e86:	60 81       	ld	r22, Z
    4e88:	71 81       	ldd	r23, Z+1	; 0x01
    4e8a:	82 81       	ldd	r24, Z+2	; 0x02
    4e8c:	93 81       	ldd	r25, Z+3	; 0x03
    4e8e:	0a c0       	rjmp	.+20     	; 0x4ea4 <vfprintf+0x53e>
    4e90:	f2 e0       	ldi	r31, 0x02	; 2
    4e92:	af 0e       	add	r10, r31
    4e94:	b1 1c       	adc	r11, r1
    4e96:	f6 01       	movw	r30, r12
    4e98:	60 81       	ld	r22, Z
    4e9a:	71 81       	ldd	r23, Z+1	; 0x01
    4e9c:	88 27       	eor	r24, r24
    4e9e:	77 fd       	sbrc	r23, 7
    4ea0:	80 95       	com	r24
    4ea2:	98 2f       	mov	r25, r24
    4ea4:	02 2f       	mov	r16, r18
    4ea6:	0f 76       	andi	r16, 0x6F	; 111
    4ea8:	97 ff       	sbrs	r25, 7
    4eaa:	08 c0       	rjmp	.+16     	; 0x4ebc <vfprintf+0x556>
    4eac:	90 95       	com	r25
    4eae:	80 95       	com	r24
    4eb0:	70 95       	com	r23
    4eb2:	61 95       	neg	r22
    4eb4:	7f 4f       	sbci	r23, 0xFF	; 255
    4eb6:	8f 4f       	sbci	r24, 0xFF	; 255
    4eb8:	9f 4f       	sbci	r25, 0xFF	; 255
    4eba:	00 68       	ori	r16, 0x80	; 128
    4ebc:	2a e0       	ldi	r18, 0x0A	; 10
    4ebe:	30 e0       	ldi	r19, 0x00	; 0
    4ec0:	a4 01       	movw	r20, r8
    4ec2:	0e 94 08 2a 	call	0x5410	; 0x5410 <__ultoa_invert>
    4ec6:	c8 2e       	mov	r12, r24
    4ec8:	c8 18       	sub	r12, r8
    4eca:	3e c0       	rjmp	.+124    	; 0x4f48 <vfprintf+0x5e2>
    4ecc:	02 2f       	mov	r16, r18
    4ece:	85 37       	cpi	r24, 0x75	; 117
    4ed0:	21 f4       	brne	.+8      	; 0x4eda <vfprintf+0x574>
    4ed2:	0f 7e       	andi	r16, 0xEF	; 239
    4ed4:	2a e0       	ldi	r18, 0x0A	; 10
    4ed6:	30 e0       	ldi	r19, 0x00	; 0
    4ed8:	1d c0       	rjmp	.+58     	; 0x4f14 <vfprintf+0x5ae>
    4eda:	09 7f       	andi	r16, 0xF9	; 249
    4edc:	8f 36       	cpi	r24, 0x6F	; 111
    4ede:	91 f0       	breq	.+36     	; 0x4f04 <vfprintf+0x59e>
    4ee0:	18 f4       	brcc	.+6      	; 0x4ee8 <vfprintf+0x582>
    4ee2:	88 35       	cpi	r24, 0x58	; 88
    4ee4:	59 f0       	breq	.+22     	; 0x4efc <vfprintf+0x596>
    4ee6:	b0 c0       	rjmp	.+352    	; 0x5048 <vfprintf+0x6e2>
    4ee8:	80 37       	cpi	r24, 0x70	; 112
    4eea:	19 f0       	breq	.+6      	; 0x4ef2 <vfprintf+0x58c>
    4eec:	88 37       	cpi	r24, 0x78	; 120
    4eee:	11 f0       	breq	.+4      	; 0x4ef4 <vfprintf+0x58e>
    4ef0:	ab c0       	rjmp	.+342    	; 0x5048 <vfprintf+0x6e2>
    4ef2:	00 61       	ori	r16, 0x10	; 16
    4ef4:	04 ff       	sbrs	r16, 4
    4ef6:	09 c0       	rjmp	.+18     	; 0x4f0a <vfprintf+0x5a4>
    4ef8:	04 60       	ori	r16, 0x04	; 4
    4efa:	07 c0       	rjmp	.+14     	; 0x4f0a <vfprintf+0x5a4>
    4efc:	24 ff       	sbrs	r18, 4
    4efe:	08 c0       	rjmp	.+16     	; 0x4f10 <vfprintf+0x5aa>
    4f00:	06 60       	ori	r16, 0x06	; 6
    4f02:	06 c0       	rjmp	.+12     	; 0x4f10 <vfprintf+0x5aa>
    4f04:	28 e0       	ldi	r18, 0x08	; 8
    4f06:	30 e0       	ldi	r19, 0x00	; 0
    4f08:	05 c0       	rjmp	.+10     	; 0x4f14 <vfprintf+0x5ae>
    4f0a:	20 e1       	ldi	r18, 0x10	; 16
    4f0c:	30 e0       	ldi	r19, 0x00	; 0
    4f0e:	02 c0       	rjmp	.+4      	; 0x4f14 <vfprintf+0x5ae>
    4f10:	20 e1       	ldi	r18, 0x10	; 16
    4f12:	32 e0       	ldi	r19, 0x02	; 2
    4f14:	56 01       	movw	r10, r12
    4f16:	07 ff       	sbrs	r16, 7
    4f18:	09 c0       	rjmp	.+18     	; 0x4f2c <vfprintf+0x5c6>
    4f1a:	f4 e0       	ldi	r31, 0x04	; 4
    4f1c:	af 0e       	add	r10, r31
    4f1e:	b1 1c       	adc	r11, r1
    4f20:	f6 01       	movw	r30, r12
    4f22:	60 81       	ld	r22, Z
    4f24:	71 81       	ldd	r23, Z+1	; 0x01
    4f26:	82 81       	ldd	r24, Z+2	; 0x02
    4f28:	93 81       	ldd	r25, Z+3	; 0x03
    4f2a:	08 c0       	rjmp	.+16     	; 0x4f3c <vfprintf+0x5d6>
    4f2c:	f2 e0       	ldi	r31, 0x02	; 2
    4f2e:	af 0e       	add	r10, r31
    4f30:	b1 1c       	adc	r11, r1
    4f32:	f6 01       	movw	r30, r12
    4f34:	60 81       	ld	r22, Z
    4f36:	71 81       	ldd	r23, Z+1	; 0x01
    4f38:	80 e0       	ldi	r24, 0x00	; 0
    4f3a:	90 e0       	ldi	r25, 0x00	; 0
    4f3c:	a4 01       	movw	r20, r8
    4f3e:	0e 94 08 2a 	call	0x5410	; 0x5410 <__ultoa_invert>
    4f42:	c8 2e       	mov	r12, r24
    4f44:	c8 18       	sub	r12, r8
    4f46:	0f 77       	andi	r16, 0x7F	; 127
    4f48:	06 ff       	sbrs	r16, 6
    4f4a:	0b c0       	rjmp	.+22     	; 0x4f62 <vfprintf+0x5fc>
    4f4c:	20 2f       	mov	r18, r16
    4f4e:	2e 7f       	andi	r18, 0xFE	; 254
    4f50:	c1 16       	cp	r12, r17
    4f52:	50 f4       	brcc	.+20     	; 0x4f68 <vfprintf+0x602>
    4f54:	04 ff       	sbrs	r16, 4
    4f56:	0a c0       	rjmp	.+20     	; 0x4f6c <vfprintf+0x606>
    4f58:	02 fd       	sbrc	r16, 2
    4f5a:	08 c0       	rjmp	.+16     	; 0x4f6c <vfprintf+0x606>
    4f5c:	20 2f       	mov	r18, r16
    4f5e:	2e 7e       	andi	r18, 0xEE	; 238
    4f60:	05 c0       	rjmp	.+10     	; 0x4f6c <vfprintf+0x606>
    4f62:	dc 2c       	mov	r13, r12
    4f64:	20 2f       	mov	r18, r16
    4f66:	03 c0       	rjmp	.+6      	; 0x4f6e <vfprintf+0x608>
    4f68:	dc 2c       	mov	r13, r12
    4f6a:	01 c0       	rjmp	.+2      	; 0x4f6e <vfprintf+0x608>
    4f6c:	d1 2e       	mov	r13, r17
    4f6e:	24 ff       	sbrs	r18, 4
    4f70:	0d c0       	rjmp	.+26     	; 0x4f8c <vfprintf+0x626>
    4f72:	fe 01       	movw	r30, r28
    4f74:	ec 0d       	add	r30, r12
    4f76:	f1 1d       	adc	r31, r1
    4f78:	80 81       	ld	r24, Z
    4f7a:	80 33       	cpi	r24, 0x30	; 48
    4f7c:	11 f4       	brne	.+4      	; 0x4f82 <vfprintf+0x61c>
    4f7e:	29 7e       	andi	r18, 0xE9	; 233
    4f80:	09 c0       	rjmp	.+18     	; 0x4f94 <vfprintf+0x62e>
    4f82:	22 ff       	sbrs	r18, 2
    4f84:	06 c0       	rjmp	.+12     	; 0x4f92 <vfprintf+0x62c>
    4f86:	d3 94       	inc	r13
    4f88:	d3 94       	inc	r13
    4f8a:	04 c0       	rjmp	.+8      	; 0x4f94 <vfprintf+0x62e>
    4f8c:	82 2f       	mov	r24, r18
    4f8e:	86 78       	andi	r24, 0x86	; 134
    4f90:	09 f0       	breq	.+2      	; 0x4f94 <vfprintf+0x62e>
    4f92:	d3 94       	inc	r13
    4f94:	23 fd       	sbrc	r18, 3
    4f96:	13 c0       	rjmp	.+38     	; 0x4fbe <vfprintf+0x658>
    4f98:	20 ff       	sbrs	r18, 0
    4f9a:	06 c0       	rjmp	.+12     	; 0x4fa8 <vfprintf+0x642>
    4f9c:	1c 2d       	mov	r17, r12
    4f9e:	d5 14       	cp	r13, r5
    4fa0:	18 f4       	brcc	.+6      	; 0x4fa8 <vfprintf+0x642>
    4fa2:	15 0d       	add	r17, r5
    4fa4:	1d 19       	sub	r17, r13
    4fa6:	d5 2c       	mov	r13, r5
    4fa8:	d5 14       	cp	r13, r5
    4faa:	68 f4       	brcc	.+26     	; 0x4fc6 <vfprintf+0x660>
    4fac:	b7 01       	movw	r22, r14
    4fae:	80 e2       	ldi	r24, 0x20	; 32
    4fb0:	90 e0       	ldi	r25, 0x00	; 0
    4fb2:	2b 8b       	std	Y+19, r18	; 0x13
    4fb4:	0e 94 d6 29 	call	0x53ac	; 0x53ac <fputc>
    4fb8:	d3 94       	inc	r13
    4fba:	2b 89       	ldd	r18, Y+19	; 0x13
    4fbc:	f5 cf       	rjmp	.-22     	; 0x4fa8 <vfprintf+0x642>
    4fbe:	d5 14       	cp	r13, r5
    4fc0:	10 f4       	brcc	.+4      	; 0x4fc6 <vfprintf+0x660>
    4fc2:	5d 18       	sub	r5, r13
    4fc4:	01 c0       	rjmp	.+2      	; 0x4fc8 <vfprintf+0x662>
    4fc6:	51 2c       	mov	r5, r1
    4fc8:	24 ff       	sbrs	r18, 4
    4fca:	12 c0       	rjmp	.+36     	; 0x4ff0 <vfprintf+0x68a>
    4fcc:	b7 01       	movw	r22, r14
    4fce:	80 e3       	ldi	r24, 0x30	; 48
    4fd0:	90 e0       	ldi	r25, 0x00	; 0
    4fd2:	2b 8b       	std	Y+19, r18	; 0x13
    4fd4:	0e 94 d6 29 	call	0x53ac	; 0x53ac <fputc>
    4fd8:	2b 89       	ldd	r18, Y+19	; 0x13
    4fda:	22 ff       	sbrs	r18, 2
    4fdc:	17 c0       	rjmp	.+46     	; 0x500c <vfprintf+0x6a6>
    4fde:	21 ff       	sbrs	r18, 1
    4fe0:	03 c0       	rjmp	.+6      	; 0x4fe8 <vfprintf+0x682>
    4fe2:	88 e5       	ldi	r24, 0x58	; 88
    4fe4:	90 e0       	ldi	r25, 0x00	; 0
    4fe6:	02 c0       	rjmp	.+4      	; 0x4fec <vfprintf+0x686>
    4fe8:	88 e7       	ldi	r24, 0x78	; 120
    4fea:	90 e0       	ldi	r25, 0x00	; 0
    4fec:	b7 01       	movw	r22, r14
    4fee:	0c c0       	rjmp	.+24     	; 0x5008 <vfprintf+0x6a2>
    4ff0:	82 2f       	mov	r24, r18
    4ff2:	86 78       	andi	r24, 0x86	; 134
    4ff4:	59 f0       	breq	.+22     	; 0x500c <vfprintf+0x6a6>
    4ff6:	21 fd       	sbrc	r18, 1
    4ff8:	02 c0       	rjmp	.+4      	; 0x4ffe <vfprintf+0x698>
    4ffa:	80 e2       	ldi	r24, 0x20	; 32
    4ffc:	01 c0       	rjmp	.+2      	; 0x5000 <vfprintf+0x69a>
    4ffe:	8b e2       	ldi	r24, 0x2B	; 43
    5000:	27 fd       	sbrc	r18, 7
    5002:	8d e2       	ldi	r24, 0x2D	; 45
    5004:	b7 01       	movw	r22, r14
    5006:	90 e0       	ldi	r25, 0x00	; 0
    5008:	0e 94 d6 29 	call	0x53ac	; 0x53ac <fputc>
    500c:	c1 16       	cp	r12, r17
    500e:	38 f4       	brcc	.+14     	; 0x501e <vfprintf+0x6b8>
    5010:	b7 01       	movw	r22, r14
    5012:	80 e3       	ldi	r24, 0x30	; 48
    5014:	90 e0       	ldi	r25, 0x00	; 0
    5016:	0e 94 d6 29 	call	0x53ac	; 0x53ac <fputc>
    501a:	11 50       	subi	r17, 0x01	; 1
    501c:	f7 cf       	rjmp	.-18     	; 0x500c <vfprintf+0x6a6>
    501e:	ca 94       	dec	r12
    5020:	f4 01       	movw	r30, r8
    5022:	ec 0d       	add	r30, r12
    5024:	f1 1d       	adc	r31, r1
    5026:	80 81       	ld	r24, Z
    5028:	b7 01       	movw	r22, r14
    502a:	90 e0       	ldi	r25, 0x00	; 0
    502c:	0e 94 d6 29 	call	0x53ac	; 0x53ac <fputc>
    5030:	c1 10       	cpse	r12, r1
    5032:	f5 cf       	rjmp	.-22     	; 0x501e <vfprintf+0x6b8>
    5034:	55 20       	and	r5, r5
    5036:	09 f4       	brne	.+2      	; 0x503a <vfprintf+0x6d4>
    5038:	c2 cc       	rjmp	.-1660   	; 0x49be <vfprintf+0x58>
    503a:	b7 01       	movw	r22, r14
    503c:	80 e2       	ldi	r24, 0x20	; 32
    503e:	90 e0       	ldi	r25, 0x00	; 0
    5040:	0e 94 d6 29 	call	0x53ac	; 0x53ac <fputc>
    5044:	5a 94       	dec	r5
    5046:	f6 cf       	rjmp	.-20     	; 0x5034 <vfprintf+0x6ce>
    5048:	f7 01       	movw	r30, r14
    504a:	86 81       	ldd	r24, Z+6	; 0x06
    504c:	97 81       	ldd	r25, Z+7	; 0x07
    504e:	02 c0       	rjmp	.+4      	; 0x5054 <vfprintf+0x6ee>
    5050:	8f ef       	ldi	r24, 0xFF	; 255
    5052:	9f ef       	ldi	r25, 0xFF	; 255
    5054:	63 96       	adiw	r28, 0x13	; 19
    5056:	e2 e1       	ldi	r30, 0x12	; 18
    5058:	0c 94 b9 28 	jmp	0x5172	; 0x5172 <__epilogue_restores__>

0000505c <__divmodhi4>:
    505c:	97 fb       	bst	r25, 7
    505e:	07 2e       	mov	r0, r23
    5060:	16 f4       	brtc	.+4      	; 0x5066 <__divmodhi4+0xa>
    5062:	00 94       	com	r0
    5064:	07 d0       	rcall	.+14     	; 0x5074 <__divmodhi4_neg1>
    5066:	77 fd       	sbrc	r23, 7
    5068:	09 d0       	rcall	.+18     	; 0x507c <__divmodhi4_neg2>
    506a:	0e 94 d4 28 	call	0x51a8	; 0x51a8 <__udivmodhi4>
    506e:	07 fc       	sbrc	r0, 7
    5070:	05 d0       	rcall	.+10     	; 0x507c <__divmodhi4_neg2>
    5072:	3e f4       	brtc	.+14     	; 0x5082 <__divmodhi4_exit>

00005074 <__divmodhi4_neg1>:
    5074:	90 95       	com	r25
    5076:	81 95       	neg	r24
    5078:	9f 4f       	sbci	r25, 0xFF	; 255
    507a:	08 95       	ret

0000507c <__divmodhi4_neg2>:
    507c:	70 95       	com	r23
    507e:	61 95       	neg	r22
    5080:	7f 4f       	sbci	r23, 0xFF	; 255

00005082 <__divmodhi4_exit>:
    5082:	08 95       	ret

00005084 <__udivmodsi4>:
    5084:	a1 e2       	ldi	r26, 0x21	; 33
    5086:	1a 2e       	mov	r1, r26
    5088:	aa 1b       	sub	r26, r26
    508a:	bb 1b       	sub	r27, r27
    508c:	fd 01       	movw	r30, r26
    508e:	0d c0       	rjmp	.+26     	; 0x50aa <__udivmodsi4_ep>

00005090 <__udivmodsi4_loop>:
    5090:	aa 1f       	adc	r26, r26
    5092:	bb 1f       	adc	r27, r27
    5094:	ee 1f       	adc	r30, r30
    5096:	ff 1f       	adc	r31, r31
    5098:	a2 17       	cp	r26, r18
    509a:	b3 07       	cpc	r27, r19
    509c:	e4 07       	cpc	r30, r20
    509e:	f5 07       	cpc	r31, r21
    50a0:	20 f0       	brcs	.+8      	; 0x50aa <__udivmodsi4_ep>
    50a2:	a2 1b       	sub	r26, r18
    50a4:	b3 0b       	sbc	r27, r19
    50a6:	e4 0b       	sbc	r30, r20
    50a8:	f5 0b       	sbc	r31, r21

000050aa <__udivmodsi4_ep>:
    50aa:	66 1f       	adc	r22, r22
    50ac:	77 1f       	adc	r23, r23
    50ae:	88 1f       	adc	r24, r24
    50b0:	99 1f       	adc	r25, r25
    50b2:	1a 94       	dec	r1
    50b4:	69 f7       	brne	.-38     	; 0x5090 <__udivmodsi4_loop>
    50b6:	60 95       	com	r22
    50b8:	70 95       	com	r23
    50ba:	80 95       	com	r24
    50bc:	90 95       	com	r25
    50be:	9b 01       	movw	r18, r22
    50c0:	ac 01       	movw	r20, r24
    50c2:	bd 01       	movw	r22, r26
    50c4:	cf 01       	movw	r24, r30
    50c6:	08 95       	ret

000050c8 <__divmodsi4>:
    50c8:	05 2e       	mov	r0, r21
    50ca:	97 fb       	bst	r25, 7
    50cc:	1e f4       	brtc	.+6      	; 0x50d4 <__divmodsi4+0xc>
    50ce:	00 94       	com	r0
    50d0:	0e 94 7b 28 	call	0x50f6	; 0x50f6 <__negsi2>
    50d4:	57 fd       	sbrc	r21, 7
    50d6:	07 d0       	rcall	.+14     	; 0x50e6 <__divmodsi4_neg2>
    50d8:	0e 94 42 28 	call	0x5084	; 0x5084 <__udivmodsi4>
    50dc:	07 fc       	sbrc	r0, 7
    50de:	03 d0       	rcall	.+6      	; 0x50e6 <__divmodsi4_neg2>
    50e0:	4e f4       	brtc	.+18     	; 0x50f4 <__divmodsi4_exit>
    50e2:	0c 94 7b 28 	jmp	0x50f6	; 0x50f6 <__negsi2>

000050e6 <__divmodsi4_neg2>:
    50e6:	50 95       	com	r21
    50e8:	40 95       	com	r20
    50ea:	30 95       	com	r19
    50ec:	21 95       	neg	r18
    50ee:	3f 4f       	sbci	r19, 0xFF	; 255
    50f0:	4f 4f       	sbci	r20, 0xFF	; 255
    50f2:	5f 4f       	sbci	r21, 0xFF	; 255

000050f4 <__divmodsi4_exit>:
    50f4:	08 95       	ret

000050f6 <__negsi2>:
    50f6:	90 95       	com	r25
    50f8:	80 95       	com	r24
    50fa:	70 95       	com	r23
    50fc:	61 95       	neg	r22
    50fe:	7f 4f       	sbci	r23, 0xFF	; 255
    5100:	8f 4f       	sbci	r24, 0xFF	; 255
    5102:	9f 4f       	sbci	r25, 0xFF	; 255
    5104:	08 95       	ret

00005106 <__umulhisi3>:
    5106:	a2 9f       	mul	r26, r18
    5108:	b0 01       	movw	r22, r0
    510a:	b3 9f       	mul	r27, r19
    510c:	c0 01       	movw	r24, r0
    510e:	a3 9f       	mul	r26, r19
    5110:	70 0d       	add	r23, r0
    5112:	81 1d       	adc	r24, r1
    5114:	11 24       	eor	r1, r1
    5116:	91 1d       	adc	r25, r1
    5118:	b2 9f       	mul	r27, r18
    511a:	70 0d       	add	r23, r0
    511c:	81 1d       	adc	r24, r1
    511e:	11 24       	eor	r1, r1
    5120:	91 1d       	adc	r25, r1
    5122:	08 95       	ret

00005124 <__muluhisi3>:
    5124:	0e 94 83 28 	call	0x5106	; 0x5106 <__umulhisi3>
    5128:	a5 9f       	mul	r26, r21
    512a:	90 0d       	add	r25, r0
    512c:	b4 9f       	mul	r27, r20
    512e:	90 0d       	add	r25, r0
    5130:	a4 9f       	mul	r26, r20
    5132:	80 0d       	add	r24, r0
    5134:	91 1d       	adc	r25, r1
    5136:	11 24       	eor	r1, r1
    5138:	08 95       	ret

0000513a <__prologue_saves__>:
    513a:	2f 92       	push	r2
    513c:	3f 92       	push	r3
    513e:	4f 92       	push	r4
    5140:	5f 92       	push	r5
    5142:	6f 92       	push	r6
    5144:	7f 92       	push	r7
    5146:	8f 92       	push	r8
    5148:	9f 92       	push	r9
    514a:	af 92       	push	r10
    514c:	bf 92       	push	r11
    514e:	cf 92       	push	r12
    5150:	df 92       	push	r13
    5152:	ef 92       	push	r14
    5154:	ff 92       	push	r15
    5156:	0f 93       	push	r16
    5158:	1f 93       	push	r17
    515a:	cf 93       	push	r28
    515c:	df 93       	push	r29
    515e:	cd b7       	in	r28, 0x3d	; 61
    5160:	de b7       	in	r29, 0x3e	; 62
    5162:	ca 1b       	sub	r28, r26
    5164:	db 0b       	sbc	r29, r27
    5166:	0f b6       	in	r0, 0x3f	; 63
    5168:	f8 94       	cli
    516a:	de bf       	out	0x3e, r29	; 62
    516c:	0f be       	out	0x3f, r0	; 63
    516e:	cd bf       	out	0x3d, r28	; 61
    5170:	09 94       	ijmp

00005172 <__epilogue_restores__>:
    5172:	2a 88       	ldd	r2, Y+18	; 0x12
    5174:	39 88       	ldd	r3, Y+17	; 0x11
    5176:	48 88       	ldd	r4, Y+16	; 0x10
    5178:	5f 84       	ldd	r5, Y+15	; 0x0f
    517a:	6e 84       	ldd	r6, Y+14	; 0x0e
    517c:	7d 84       	ldd	r7, Y+13	; 0x0d
    517e:	8c 84       	ldd	r8, Y+12	; 0x0c
    5180:	9b 84       	ldd	r9, Y+11	; 0x0b
    5182:	aa 84       	ldd	r10, Y+10	; 0x0a
    5184:	b9 84       	ldd	r11, Y+9	; 0x09
    5186:	c8 84       	ldd	r12, Y+8	; 0x08
    5188:	df 80       	ldd	r13, Y+7	; 0x07
    518a:	ee 80       	ldd	r14, Y+6	; 0x06
    518c:	fd 80       	ldd	r15, Y+5	; 0x05
    518e:	0c 81       	ldd	r16, Y+4	; 0x04
    5190:	1b 81       	ldd	r17, Y+3	; 0x03
    5192:	aa 81       	ldd	r26, Y+2	; 0x02
    5194:	b9 81       	ldd	r27, Y+1	; 0x01
    5196:	ce 0f       	add	r28, r30
    5198:	d1 1d       	adc	r29, r1
    519a:	0f b6       	in	r0, 0x3f	; 63
    519c:	f8 94       	cli
    519e:	de bf       	out	0x3e, r29	; 62
    51a0:	0f be       	out	0x3f, r0	; 63
    51a2:	cd bf       	out	0x3d, r28	; 61
    51a4:	ed 01       	movw	r28, r26
    51a6:	08 95       	ret

000051a8 <__udivmodhi4>:
    51a8:	aa 1b       	sub	r26, r26
    51aa:	bb 1b       	sub	r27, r27
    51ac:	51 e1       	ldi	r21, 0x11	; 17
    51ae:	07 c0       	rjmp	.+14     	; 0x51be <__udivmodhi4_ep>

000051b0 <__udivmodhi4_loop>:
    51b0:	aa 1f       	adc	r26, r26
    51b2:	bb 1f       	adc	r27, r27
    51b4:	a6 17       	cp	r26, r22
    51b6:	b7 07       	cpc	r27, r23
    51b8:	10 f0       	brcs	.+4      	; 0x51be <__udivmodhi4_ep>
    51ba:	a6 1b       	sub	r26, r22
    51bc:	b7 0b       	sbc	r27, r23

000051be <__udivmodhi4_ep>:
    51be:	88 1f       	adc	r24, r24
    51c0:	99 1f       	adc	r25, r25
    51c2:	5a 95       	dec	r21
    51c4:	a9 f7       	brne	.-22     	; 0x51b0 <__udivmodhi4_loop>
    51c6:	80 95       	com	r24
    51c8:	90 95       	com	r25
    51ca:	bc 01       	movw	r22, r24
    51cc:	cd 01       	movw	r24, r26
    51ce:	08 95       	ret

000051d0 <__ftoa_engine>:
    51d0:	28 30       	cpi	r18, 0x08	; 8
    51d2:	08 f0       	brcs	.+2      	; 0x51d6 <__ftoa_engine+0x6>
    51d4:	27 e0       	ldi	r18, 0x07	; 7
    51d6:	33 27       	eor	r19, r19
    51d8:	da 01       	movw	r26, r20
    51da:	99 0f       	add	r25, r25
    51dc:	31 1d       	adc	r19, r1
    51de:	87 fd       	sbrc	r24, 7
    51e0:	91 60       	ori	r25, 0x01	; 1
    51e2:	00 96       	adiw	r24, 0x00	; 0
    51e4:	61 05       	cpc	r22, r1
    51e6:	71 05       	cpc	r23, r1
    51e8:	39 f4       	brne	.+14     	; 0x51f8 <__ftoa_engine+0x28>
    51ea:	32 60       	ori	r19, 0x02	; 2
    51ec:	2e 5f       	subi	r18, 0xFE	; 254
    51ee:	3d 93       	st	X+, r19
    51f0:	30 e3       	ldi	r19, 0x30	; 48
    51f2:	2a 95       	dec	r18
    51f4:	e1 f7       	brne	.-8      	; 0x51ee <__ftoa_engine+0x1e>
    51f6:	08 95       	ret
    51f8:	9f 3f       	cpi	r25, 0xFF	; 255
    51fa:	30 f0       	brcs	.+12     	; 0x5208 <__ftoa_engine+0x38>
    51fc:	80 38       	cpi	r24, 0x80	; 128
    51fe:	71 05       	cpc	r23, r1
    5200:	61 05       	cpc	r22, r1
    5202:	09 f0       	breq	.+2      	; 0x5206 <__ftoa_engine+0x36>
    5204:	3c 5f       	subi	r19, 0xFC	; 252
    5206:	3c 5f       	subi	r19, 0xFC	; 252
    5208:	3d 93       	st	X+, r19
    520a:	91 30       	cpi	r25, 0x01	; 1
    520c:	08 f0       	brcs	.+2      	; 0x5210 <__ftoa_engine+0x40>
    520e:	80 68       	ori	r24, 0x80	; 128
    5210:	91 1d       	adc	r25, r1
    5212:	df 93       	push	r29
    5214:	cf 93       	push	r28
    5216:	1f 93       	push	r17
    5218:	0f 93       	push	r16
    521a:	ff 92       	push	r15
    521c:	ef 92       	push	r14
    521e:	19 2f       	mov	r17, r25
    5220:	98 7f       	andi	r25, 0xF8	; 248
    5222:	96 95       	lsr	r25
    5224:	e9 2f       	mov	r30, r25
    5226:	96 95       	lsr	r25
    5228:	96 95       	lsr	r25
    522a:	e9 0f       	add	r30, r25
    522c:	ff 27       	eor	r31, r31
    522e:	e2 5d       	subi	r30, 0xD2	; 210
    5230:	fc 4d       	sbci	r31, 0xDC	; 220
    5232:	99 27       	eor	r25, r25
    5234:	33 27       	eor	r19, r19
    5236:	ee 24       	eor	r14, r14
    5238:	ff 24       	eor	r15, r15
    523a:	a7 01       	movw	r20, r14
    523c:	e7 01       	movw	r28, r14
    523e:	05 90       	lpm	r0, Z+
    5240:	08 94       	sec
    5242:	07 94       	ror	r0
    5244:	28 f4       	brcc	.+10     	; 0x5250 <__ftoa_engine+0x80>
    5246:	36 0f       	add	r19, r22
    5248:	e7 1e       	adc	r14, r23
    524a:	f8 1e       	adc	r15, r24
    524c:	49 1f       	adc	r20, r25
    524e:	51 1d       	adc	r21, r1
    5250:	66 0f       	add	r22, r22
    5252:	77 1f       	adc	r23, r23
    5254:	88 1f       	adc	r24, r24
    5256:	99 1f       	adc	r25, r25
    5258:	06 94       	lsr	r0
    525a:	a1 f7       	brne	.-24     	; 0x5244 <__ftoa_engine+0x74>
    525c:	05 90       	lpm	r0, Z+
    525e:	07 94       	ror	r0
    5260:	28 f4       	brcc	.+10     	; 0x526c <__ftoa_engine+0x9c>
    5262:	e7 0e       	add	r14, r23
    5264:	f8 1e       	adc	r15, r24
    5266:	49 1f       	adc	r20, r25
    5268:	56 1f       	adc	r21, r22
    526a:	c1 1d       	adc	r28, r1
    526c:	77 0f       	add	r23, r23
    526e:	88 1f       	adc	r24, r24
    5270:	99 1f       	adc	r25, r25
    5272:	66 1f       	adc	r22, r22
    5274:	06 94       	lsr	r0
    5276:	a1 f7       	brne	.-24     	; 0x5260 <__ftoa_engine+0x90>
    5278:	05 90       	lpm	r0, Z+
    527a:	07 94       	ror	r0
    527c:	28 f4       	brcc	.+10     	; 0x5288 <__ftoa_engine+0xb8>
    527e:	f8 0e       	add	r15, r24
    5280:	49 1f       	adc	r20, r25
    5282:	56 1f       	adc	r21, r22
    5284:	c7 1f       	adc	r28, r23
    5286:	d1 1d       	adc	r29, r1
    5288:	88 0f       	add	r24, r24
    528a:	99 1f       	adc	r25, r25
    528c:	66 1f       	adc	r22, r22
    528e:	77 1f       	adc	r23, r23
    5290:	06 94       	lsr	r0
    5292:	a1 f7       	brne	.-24     	; 0x527c <__ftoa_engine+0xac>
    5294:	05 90       	lpm	r0, Z+
    5296:	07 94       	ror	r0
    5298:	20 f4       	brcc	.+8      	; 0x52a2 <__ftoa_engine+0xd2>
    529a:	49 0f       	add	r20, r25
    529c:	56 1f       	adc	r21, r22
    529e:	c7 1f       	adc	r28, r23
    52a0:	d8 1f       	adc	r29, r24
    52a2:	99 0f       	add	r25, r25
    52a4:	66 1f       	adc	r22, r22
    52a6:	77 1f       	adc	r23, r23
    52a8:	88 1f       	adc	r24, r24
    52aa:	06 94       	lsr	r0
    52ac:	a9 f7       	brne	.-22     	; 0x5298 <__ftoa_engine+0xc8>
    52ae:	84 91       	lpm	r24, Z
    52b0:	10 95       	com	r17
    52b2:	17 70       	andi	r17, 0x07	; 7
    52b4:	41 f0       	breq	.+16     	; 0x52c6 <__ftoa_engine+0xf6>
    52b6:	d6 95       	lsr	r29
    52b8:	c7 95       	ror	r28
    52ba:	57 95       	ror	r21
    52bc:	47 95       	ror	r20
    52be:	f7 94       	ror	r15
    52c0:	e7 94       	ror	r14
    52c2:	1a 95       	dec	r17
    52c4:	c1 f7       	brne	.-16     	; 0x52b6 <__ftoa_engine+0xe6>
    52c6:	e4 ed       	ldi	r30, 0xD4	; 212
    52c8:	f2 e2       	ldi	r31, 0x22	; 34
    52ca:	68 94       	set
    52cc:	15 90       	lpm	r1, Z+
    52ce:	15 91       	lpm	r17, Z+
    52d0:	35 91       	lpm	r19, Z+
    52d2:	65 91       	lpm	r22, Z+
    52d4:	95 91       	lpm	r25, Z+
    52d6:	05 90       	lpm	r0, Z+
    52d8:	7f e2       	ldi	r23, 0x2F	; 47
    52da:	73 95       	inc	r23
    52dc:	e1 18       	sub	r14, r1
    52de:	f1 0a       	sbc	r15, r17
    52e0:	43 0b       	sbc	r20, r19
    52e2:	56 0b       	sbc	r21, r22
    52e4:	c9 0b       	sbc	r28, r25
    52e6:	d0 09       	sbc	r29, r0
    52e8:	c0 f7       	brcc	.-16     	; 0x52da <__ftoa_engine+0x10a>
    52ea:	e1 0c       	add	r14, r1
    52ec:	f1 1e       	adc	r15, r17
    52ee:	43 1f       	adc	r20, r19
    52f0:	56 1f       	adc	r21, r22
    52f2:	c9 1f       	adc	r28, r25
    52f4:	d0 1d       	adc	r29, r0
    52f6:	7e f4       	brtc	.+30     	; 0x5316 <__ftoa_engine+0x146>
    52f8:	70 33       	cpi	r23, 0x30	; 48
    52fa:	11 f4       	brne	.+4      	; 0x5300 <__ftoa_engine+0x130>
    52fc:	8a 95       	dec	r24
    52fe:	e6 cf       	rjmp	.-52     	; 0x52cc <__ftoa_engine+0xfc>
    5300:	e8 94       	clt
    5302:	01 50       	subi	r16, 0x01	; 1
    5304:	30 f0       	brcs	.+12     	; 0x5312 <__ftoa_engine+0x142>
    5306:	08 0f       	add	r16, r24
    5308:	0a f4       	brpl	.+2      	; 0x530c <__ftoa_engine+0x13c>
    530a:	00 27       	eor	r16, r16
    530c:	02 17       	cp	r16, r18
    530e:	08 f4       	brcc	.+2      	; 0x5312 <__ftoa_engine+0x142>
    5310:	20 2f       	mov	r18, r16
    5312:	23 95       	inc	r18
    5314:	02 2f       	mov	r16, r18
    5316:	7a 33       	cpi	r23, 0x3A	; 58
    5318:	28 f0       	brcs	.+10     	; 0x5324 <__ftoa_engine+0x154>
    531a:	79 e3       	ldi	r23, 0x39	; 57
    531c:	7d 93       	st	X+, r23
    531e:	2a 95       	dec	r18
    5320:	e9 f7       	brne	.-6      	; 0x531c <__ftoa_engine+0x14c>
    5322:	10 c0       	rjmp	.+32     	; 0x5344 <__ftoa_engine+0x174>
    5324:	7d 93       	st	X+, r23
    5326:	2a 95       	dec	r18
    5328:	89 f6       	brne	.-94     	; 0x52cc <__ftoa_engine+0xfc>
    532a:	06 94       	lsr	r0
    532c:	97 95       	ror	r25
    532e:	67 95       	ror	r22
    5330:	37 95       	ror	r19
    5332:	17 95       	ror	r17
    5334:	17 94       	ror	r1
    5336:	e1 18       	sub	r14, r1
    5338:	f1 0a       	sbc	r15, r17
    533a:	43 0b       	sbc	r20, r19
    533c:	56 0b       	sbc	r21, r22
    533e:	c9 0b       	sbc	r28, r25
    5340:	d0 09       	sbc	r29, r0
    5342:	98 f0       	brcs	.+38     	; 0x536a <__ftoa_engine+0x19a>
    5344:	23 95       	inc	r18
    5346:	7e 91       	ld	r23, -X
    5348:	73 95       	inc	r23
    534a:	7a 33       	cpi	r23, 0x3A	; 58
    534c:	08 f0       	brcs	.+2      	; 0x5350 <__ftoa_engine+0x180>
    534e:	70 e3       	ldi	r23, 0x30	; 48
    5350:	7c 93       	st	X, r23
    5352:	20 13       	cpse	r18, r16
    5354:	b8 f7       	brcc	.-18     	; 0x5344 <__ftoa_engine+0x174>
    5356:	7e 91       	ld	r23, -X
    5358:	70 61       	ori	r23, 0x10	; 16
    535a:	7d 93       	st	X+, r23
    535c:	30 f0       	brcs	.+12     	; 0x536a <__ftoa_engine+0x19a>
    535e:	83 95       	inc	r24
    5360:	71 e3       	ldi	r23, 0x31	; 49
    5362:	7d 93       	st	X+, r23
    5364:	70 e3       	ldi	r23, 0x30	; 48
    5366:	2a 95       	dec	r18
    5368:	e1 f7       	brne	.-8      	; 0x5362 <__ftoa_engine+0x192>
    536a:	11 24       	eor	r1, r1
    536c:	ef 90       	pop	r14
    536e:	ff 90       	pop	r15
    5370:	0f 91       	pop	r16
    5372:	1f 91       	pop	r17
    5374:	cf 91       	pop	r28
    5376:	df 91       	pop	r29
    5378:	99 27       	eor	r25, r25
    537a:	87 fd       	sbrc	r24, 7
    537c:	90 95       	com	r25
    537e:	08 95       	ret

00005380 <strnlen_P>:
    5380:	fc 01       	movw	r30, r24
    5382:	05 90       	lpm	r0, Z+
    5384:	61 50       	subi	r22, 0x01	; 1
    5386:	70 40       	sbci	r23, 0x00	; 0
    5388:	01 10       	cpse	r0, r1
    538a:	d8 f7       	brcc	.-10     	; 0x5382 <strnlen_P+0x2>
    538c:	80 95       	com	r24
    538e:	90 95       	com	r25
    5390:	8e 0f       	add	r24, r30
    5392:	9f 1f       	adc	r25, r31
    5394:	08 95       	ret

00005396 <strnlen>:
    5396:	fc 01       	movw	r30, r24
    5398:	61 50       	subi	r22, 0x01	; 1
    539a:	70 40       	sbci	r23, 0x00	; 0
    539c:	01 90       	ld	r0, Z+
    539e:	01 10       	cpse	r0, r1
    53a0:	d8 f7       	brcc	.-10     	; 0x5398 <strnlen+0x2>
    53a2:	80 95       	com	r24
    53a4:	90 95       	com	r25
    53a6:	8e 0f       	add	r24, r30
    53a8:	9f 1f       	adc	r25, r31
    53aa:	08 95       	ret

000053ac <fputc>:
    53ac:	0f 93       	push	r16
    53ae:	1f 93       	push	r17
    53b0:	cf 93       	push	r28
    53b2:	df 93       	push	r29
    53b4:	18 2f       	mov	r17, r24
    53b6:	09 2f       	mov	r16, r25
    53b8:	eb 01       	movw	r28, r22
    53ba:	8b 81       	ldd	r24, Y+3	; 0x03
    53bc:	81 fd       	sbrc	r24, 1
    53be:	03 c0       	rjmp	.+6      	; 0x53c6 <fputc+0x1a>
    53c0:	8f ef       	ldi	r24, 0xFF	; 255
    53c2:	9f ef       	ldi	r25, 0xFF	; 255
    53c4:	20 c0       	rjmp	.+64     	; 0x5406 <fputc+0x5a>
    53c6:	82 ff       	sbrs	r24, 2
    53c8:	10 c0       	rjmp	.+32     	; 0x53ea <fputc+0x3e>
    53ca:	4e 81       	ldd	r20, Y+6	; 0x06
    53cc:	5f 81       	ldd	r21, Y+7	; 0x07
    53ce:	2c 81       	ldd	r18, Y+4	; 0x04
    53d0:	3d 81       	ldd	r19, Y+5	; 0x05
    53d2:	42 17       	cp	r20, r18
    53d4:	53 07       	cpc	r21, r19
    53d6:	7c f4       	brge	.+30     	; 0x53f6 <fputc+0x4a>
    53d8:	e8 81       	ld	r30, Y
    53da:	f9 81       	ldd	r31, Y+1	; 0x01
    53dc:	9f 01       	movw	r18, r30
    53de:	2f 5f       	subi	r18, 0xFF	; 255
    53e0:	3f 4f       	sbci	r19, 0xFF	; 255
    53e2:	39 83       	std	Y+1, r19	; 0x01
    53e4:	28 83       	st	Y, r18
    53e6:	10 83       	st	Z, r17
    53e8:	06 c0       	rjmp	.+12     	; 0x53f6 <fputc+0x4a>
    53ea:	e8 85       	ldd	r30, Y+8	; 0x08
    53ec:	f9 85       	ldd	r31, Y+9	; 0x09
    53ee:	81 2f       	mov	r24, r17
    53f0:	09 95       	icall
    53f2:	89 2b       	or	r24, r25
    53f4:	29 f7       	brne	.-54     	; 0x53c0 <fputc+0x14>
    53f6:	2e 81       	ldd	r18, Y+6	; 0x06
    53f8:	3f 81       	ldd	r19, Y+7	; 0x07
    53fa:	2f 5f       	subi	r18, 0xFF	; 255
    53fc:	3f 4f       	sbci	r19, 0xFF	; 255
    53fe:	3f 83       	std	Y+7, r19	; 0x07
    5400:	2e 83       	std	Y+6, r18	; 0x06
    5402:	81 2f       	mov	r24, r17
    5404:	90 2f       	mov	r25, r16
    5406:	df 91       	pop	r29
    5408:	cf 91       	pop	r28
    540a:	1f 91       	pop	r17
    540c:	0f 91       	pop	r16
    540e:	08 95       	ret

00005410 <__ultoa_invert>:
    5410:	fa 01       	movw	r30, r20
    5412:	aa 27       	eor	r26, r26
    5414:	28 30       	cpi	r18, 0x08	; 8
    5416:	51 f1       	breq	.+84     	; 0x546c <__ultoa_invert+0x5c>
    5418:	20 31       	cpi	r18, 0x10	; 16
    541a:	81 f1       	breq	.+96     	; 0x547c <__ultoa_invert+0x6c>
    541c:	e8 94       	clt
    541e:	6f 93       	push	r22
    5420:	6e 7f       	andi	r22, 0xFE	; 254
    5422:	6e 5f       	subi	r22, 0xFE	; 254
    5424:	7f 4f       	sbci	r23, 0xFF	; 255
    5426:	8f 4f       	sbci	r24, 0xFF	; 255
    5428:	9f 4f       	sbci	r25, 0xFF	; 255
    542a:	af 4f       	sbci	r26, 0xFF	; 255
    542c:	b1 e0       	ldi	r27, 0x01	; 1
    542e:	3e d0       	rcall	.+124    	; 0x54ac <__ultoa_invert+0x9c>
    5430:	b4 e0       	ldi	r27, 0x04	; 4
    5432:	3c d0       	rcall	.+120    	; 0x54ac <__ultoa_invert+0x9c>
    5434:	67 0f       	add	r22, r23
    5436:	78 1f       	adc	r23, r24
    5438:	89 1f       	adc	r24, r25
    543a:	9a 1f       	adc	r25, r26
    543c:	a1 1d       	adc	r26, r1
    543e:	68 0f       	add	r22, r24
    5440:	79 1f       	adc	r23, r25
    5442:	8a 1f       	adc	r24, r26
    5444:	91 1d       	adc	r25, r1
    5446:	a1 1d       	adc	r26, r1
    5448:	6a 0f       	add	r22, r26
    544a:	71 1d       	adc	r23, r1
    544c:	81 1d       	adc	r24, r1
    544e:	91 1d       	adc	r25, r1
    5450:	a1 1d       	adc	r26, r1
    5452:	20 d0       	rcall	.+64     	; 0x5494 <__ultoa_invert+0x84>
    5454:	09 f4       	brne	.+2      	; 0x5458 <__ultoa_invert+0x48>
    5456:	68 94       	set
    5458:	3f 91       	pop	r19
    545a:	2a e0       	ldi	r18, 0x0A	; 10
    545c:	26 9f       	mul	r18, r22
    545e:	11 24       	eor	r1, r1
    5460:	30 19       	sub	r19, r0
    5462:	30 5d       	subi	r19, 0xD0	; 208
    5464:	31 93       	st	Z+, r19
    5466:	de f6       	brtc	.-74     	; 0x541e <__ultoa_invert+0xe>
    5468:	cf 01       	movw	r24, r30
    546a:	08 95       	ret
    546c:	46 2f       	mov	r20, r22
    546e:	47 70       	andi	r20, 0x07	; 7
    5470:	40 5d       	subi	r20, 0xD0	; 208
    5472:	41 93       	st	Z+, r20
    5474:	b3 e0       	ldi	r27, 0x03	; 3
    5476:	0f d0       	rcall	.+30     	; 0x5496 <__ultoa_invert+0x86>
    5478:	c9 f7       	brne	.-14     	; 0x546c <__ultoa_invert+0x5c>
    547a:	f6 cf       	rjmp	.-20     	; 0x5468 <__ultoa_invert+0x58>
    547c:	46 2f       	mov	r20, r22
    547e:	4f 70       	andi	r20, 0x0F	; 15
    5480:	40 5d       	subi	r20, 0xD0	; 208
    5482:	4a 33       	cpi	r20, 0x3A	; 58
    5484:	18 f0       	brcs	.+6      	; 0x548c <__ultoa_invert+0x7c>
    5486:	49 5d       	subi	r20, 0xD9	; 217
    5488:	31 fd       	sbrc	r19, 1
    548a:	40 52       	subi	r20, 0x20	; 32
    548c:	41 93       	st	Z+, r20
    548e:	02 d0       	rcall	.+4      	; 0x5494 <__ultoa_invert+0x84>
    5490:	a9 f7       	brne	.-22     	; 0x547c <__ultoa_invert+0x6c>
    5492:	ea cf       	rjmp	.-44     	; 0x5468 <__ultoa_invert+0x58>
    5494:	b4 e0       	ldi	r27, 0x04	; 4
    5496:	a6 95       	lsr	r26
    5498:	97 95       	ror	r25
    549a:	87 95       	ror	r24
    549c:	77 95       	ror	r23
    549e:	67 95       	ror	r22
    54a0:	ba 95       	dec	r27
    54a2:	c9 f7       	brne	.-14     	; 0x5496 <__ultoa_invert+0x86>
    54a4:	00 97       	sbiw	r24, 0x00	; 0
    54a6:	61 05       	cpc	r22, r1
    54a8:	71 05       	cpc	r23, r1
    54aa:	08 95       	ret
    54ac:	9b 01       	movw	r18, r22
    54ae:	ac 01       	movw	r20, r24
    54b0:	0a 2e       	mov	r0, r26
    54b2:	06 94       	lsr	r0
    54b4:	57 95       	ror	r21
    54b6:	47 95       	ror	r20
    54b8:	37 95       	ror	r19
    54ba:	27 95       	ror	r18
    54bc:	ba 95       	dec	r27
    54be:	c9 f7       	brne	.-14     	; 0x54b2 <__ultoa_invert+0xa2>
    54c0:	62 0f       	add	r22, r18
    54c2:	73 1f       	adc	r23, r19
    54c4:	84 1f       	adc	r24, r20
    54c6:	95 1f       	adc	r25, r21
    54c8:	a0 1d       	adc	r26, r0
    54ca:	08 95       	ret

000054cc <_exit>:
    54cc:	f8 94       	cli

000054ce <__stop_program>:
    54ce:	ff cf       	rjmp	.-2      	; 0x54ce <__stop_program>
