
firmware.elf:     file format elf32-avr

Sections:
Idx Name          Size      VMA       LMA       File off  Algn
  0 .text         0000267c  00000000  00000000  000000b4  2**1
                  CONTENTS, ALLOC, LOAD, READONLY, CODE
  1 .data         00000324  00800060  0000267c  00002730  2**0
                  CONTENTS, ALLOC, LOAD, DATA
  2 .bss          0000003d  00800384  00800384  00002a54  2**0
                  ALLOC
  3 .eeprom       00000018  00810000  00810000  00002a54  2**0
                  CONTENTS, ALLOC, LOAD, DATA
  4 .comment      00000030  00000000  00000000  00002a6c  2**0
                  CONTENTS, READONLY
  5 .debug_aranges 000000b8  00000000  00000000  00002a9c  2**0
                  CONTENTS, READONLY, DEBUGGING
  6 .debug_info   000030b0  00000000  00000000  00002b54  2**0
                  CONTENTS, READONLY, DEBUGGING
  7 .debug_abbrev 00000336  00000000  00000000  00005c04  2**0
                  CONTENTS, READONLY, DEBUGGING
  8 .debug_line   00000924  00000000  00000000  00005f3a  2**0
                  CONTENTS, READONLY, DEBUGGING
  9 .debug_frame  000002cc  00000000  00000000  00006860  2**2
                  CONTENTS, READONLY, DEBUGGING
 10 .debug_str    000004ff  00000000  00000000  00006b2c  2**0
                  CONTENTS, READONLY, DEBUGGING
 11 .debug_loc    00002536  00000000  00000000  0000702b  2**0
                  CONTENTS, READONLY, DEBUGGING
 12 .debug_ranges 000000a8  00000000  00000000  00009561  2**0
                  CONTENTS, READONLY, DEBUGGING

Disassembly of section .text:

00000000 <__vectors>:
       0:	0c 94 2a 00 	jmp	0x54	; 0x54 <__ctors_end>
       4:	0c 94 d8 02 	jmp	0x5b0	; 0x5b0 <__vector_1>
       8:	0c 94 47 00 	jmp	0x8e	; 0x8e <__bad_interrupt>
       c:	0c 94 47 00 	jmp	0x8e	; 0x8e <__bad_interrupt>
      10:	0c 94 47 00 	jmp	0x8e	; 0x8e <__bad_interrupt>
      14:	0c 94 47 00 	jmp	0x8e	; 0x8e <__bad_interrupt>
      18:	0c 94 47 00 	jmp	0x8e	; 0x8e <__bad_interrupt>
      1c:	0c 94 fd 02 	jmp	0x5fa	; 0x5fa <__vector_7>
      20:	0c 94 47 00 	jmp	0x8e	; 0x8e <__bad_interrupt>
      24:	0c 94 47 00 	jmp	0x8e	; 0x8e <__bad_interrupt>
      28:	0c 94 47 00 	jmp	0x8e	; 0x8e <__bad_interrupt>
      2c:	0c 94 47 00 	jmp	0x8e	; 0x8e <__bad_interrupt>
      30:	0c 94 47 00 	jmp	0x8e	; 0x8e <__bad_interrupt>
      34:	0c 94 47 00 	jmp	0x8e	; 0x8e <__bad_interrupt>
      38:	0c 94 47 00 	jmp	0x8e	; 0x8e <__bad_interrupt>
      3c:	0c 94 47 00 	jmp	0x8e	; 0x8e <__bad_interrupt>
      40:	0c 94 47 00 	jmp	0x8e	; 0x8e <__bad_interrupt>
      44:	0c 94 47 00 	jmp	0x8e	; 0x8e <__bad_interrupt>
      48:	0c 94 47 00 	jmp	0x8e	; 0x8e <__bad_interrupt>
      4c:	0c 94 47 00 	jmp	0x8e	; 0x8e <__bad_interrupt>
      50:	0c 94 47 00 	jmp	0x8e	; 0x8e <__bad_interrupt>

00000054 <__ctors_end>:
      54:	11 24       	eor	r1, r1
      56:	1f be       	out	0x3f, r1	; 63
      58:	cf e5       	ldi	r28, 0x5F	; 95
      5a:	d8 e0       	ldi	r29, 0x08	; 8
      5c:	de bf       	out	0x3e, r29	; 62
      5e:	cd bf       	out	0x3d, r28	; 61

00000060 <__do_copy_data>:
      60:	13 e0       	ldi	r17, 0x03	; 3
      62:	a0 e6       	ldi	r26, 0x60	; 96
      64:	b0 e0       	ldi	r27, 0x00	; 0
      66:	ec e7       	ldi	r30, 0x7C	; 124
      68:	f6 e2       	ldi	r31, 0x26	; 38
      6a:	02 c0       	rjmp	.+4      	; 0x70 <__do_copy_data+0x10>
      6c:	05 90       	lpm	r0, Z+
      6e:	0d 92       	st	X+, r0
      70:	a4 38       	cpi	r26, 0x84	; 132
      72:	b1 07       	cpc	r27, r17
      74:	d9 f7       	brne	.-10     	; 0x6c <__do_copy_data+0xc>

00000076 <__do_clear_bss>:
      76:	23 e0       	ldi	r18, 0x03	; 3
      78:	a4 e8       	ldi	r26, 0x84	; 132
      7a:	b3 e0       	ldi	r27, 0x03	; 3
      7c:	01 c0       	rjmp	.+2      	; 0x80 <.do_clear_bss_start>

0000007e <.do_clear_bss_loop>:
      7e:	1d 92       	st	X+, r1

00000080 <.do_clear_bss_start>:
      80:	a1 3c       	cpi	r26, 0xC1	; 193
      82:	b2 07       	cpc	r27, r18
      84:	e1 f7       	brne	.-8      	; 0x7e <.do_clear_bss_loop>
      86:	0e 94 08 04 	call	0x810	; 0x810 <main>
      8a:	0c 94 3c 13 	jmp	0x2678	; 0x2678 <_exit>

0000008e <__bad_interrupt>:
      8e:	0c 94 00 00 	jmp	0	; 0x0 <__vectors>

00000092 <lcd_port>:
	else
	{
		stable_count_b = 0x00;
	}
	
	if (((temp_array[4] - 1) == temp_array[3]) || ((temp_array[4] - 2) == temp_array[3]))
      92:	80 ff       	sbrs	r24, 0
      94:	02 c0       	rjmp	.+4      	; 0x9a <lcd_port+0x8>
      96:	dc 9a       	sbi	0x1b, 4	; 27
      98:	01 c0       	rjmp	.+2      	; 0x9c <lcd_port+0xa>
      9a:	dc 98       	cbi	0x1b, 4	; 27
      9c:	81 ff       	sbrs	r24, 1
	{
		if (stable_count_f < 5)
      9e:	02 c0       	rjmp	.+4      	; 0xa4 <lcd_port+0x12>
      a0:	dd 9a       	sbi	0x1b, 5	; 27
      a2:	01 c0       	rjmp	.+2      	; 0xa6 <lcd_port+0x14>
      a4:	dd 98       	cbi	0x1b, 5	; 27
		{
			temp_array[4] = temp_array[3];
      a6:	82 ff       	sbrs	r24, 2
      a8:	02 c0       	rjmp	.+4      	; 0xae <lcd_port+0x1c>
      aa:	de 9a       	sbi	0x1b, 6	; 27
      ac:	01 c0       	rjmp	.+2      	; 0xb0 <lcd_port+0x1e>
			stable_count_f = stable_count_f + 1;
      ae:	de 98       	cbi	0x1b, 6	; 27
      b0:	83 ff       	sbrs	r24, 3
      b2:	02 c0       	rjmp	.+4      	; 0xb8 <lcd_port+0x26>
      b4:	df 9a       	sbi	0x1b, 7	; 27
		}
		else
		{
			stable_count_f = 0x00;
      b6:	08 95       	ret
      b8:	df 98       	cbi	0x1b, 7	; 27
      ba:	08 95       	ret

000000bc <lcd_cmd>:
		}
	}
	else
	{
		stable_count_f = 0x00;
      bc:	cf 93       	push	r28
      be:	c8 2f       	mov	r28, r24
      c0:	d9 98       	cbi	0x1b, 1	; 27
      c2:	db 98       	cbi	0x1b, 3	; 27
      c4:	82 95       	swap	r24
      c6:	8f 70       	andi	r24, 0x0F	; 15

uint16_t stable_temp(uint16_t temp_val)
{
	//lcd_gotoxy(0,0);
	//lcd_putsint(temp_val,3);
	int i=0, avg_temp = 0;
      c8:	0e 94 49 00 	call	0x92	; 0x92 <lcd_port>
	}
	else
	{
		stable_count_f = 0x00;
	}
	for (i=0;i<=4;i++)	avg_temp = avg_temp + temp_array[i];	//for average
      cc:	db 9a       	sbi	0x1b, 3	; 27
      ce:	87 ee       	ldi	r24, 0xE7	; 231
      d0:	93 e0       	ldi	r25, 0x03	; 3
      d2:	01 97       	sbiw	r24, 0x01	; 1
      d4:	f1 f7       	brne	.-4      	; 0xd2 <lcd_cmd+0x16>
      d6:	00 c0       	rjmp	.+0      	; 0xd8 <lcd_cmd+0x1c>
      d8:	00 00       	nop
	return round(avg_temp/5);
      da:	db 98       	cbi	0x1b, 3	; 27
      dc:	87 ee       	ldi	r24, 0xE7	; 231
      de:	93 e0       	ldi	r25, 0x03	; 3
      e0:	01 97       	sbiw	r24, 0x01	; 1
      e2:	f1 f7       	brne	.-4      	; 0xe0 <lcd_cmd+0x24>
      e4:	00 c0       	rjmp	.+0      	; 0xe6 <lcd_cmd+0x2a>
      e6:	00 00       	nop
      e8:	8c 2f       	mov	r24, r28
      ea:	8f 70       	andi	r24, 0x0F	; 15
      ec:	0e 94 49 00 	call	0x92	; 0x92 <lcd_port>
      f0:	db 9a       	sbi	0x1b, 3	; 27
      f2:	87 ee       	ldi	r24, 0xE7	; 231
      f4:	93 e0       	ldi	r25, 0x03	; 3
}
      f6:	01 97       	sbiw	r24, 0x01	; 1
      f8:	f1 f7       	brne	.-4      	; 0xf6 <lcd_cmd+0x3a>
	#else
		//round up by default
		__ticks_dc = (uint32_t)(ceil(fabs(__tmp)));
	#endif

	__builtin_avr_delay_cycles(__ticks_dc);
      fa:	00 c0       	rjmp	.+0      	; 0xfc <lcd_cmd+0x40>
      fc:	00 00       	nop
	EN_0;
	_delay_ms(1);
	lcd_port(cmd & 0x0F);
	EN_1;
	_delay_ms(1);
	EN_0;
      fe:	db 98       	cbi	0x1b, 3	; 27
     100:	87 ee       	ldi	r24, 0xE7	; 231
     102:	93 e0       	ldi	r25, 0x03	; 3
     104:	01 97       	sbiw	r24, 0x01	; 1
     106:	f1 f7       	brne	.-4      	; 0x104 <lcd_cmd+0x48>
     108:	00 c0       	rjmp	.+0      	; 0x10a <lcd_cmd+0x4e>
     10a:	00 00       	nop
	_delay_ms(1);
}
     10c:	cf 91       	pop	r28
     10e:	08 95       	ret

00000110 <lcd_clear>:

void lcd_clear()
{
	lcd_cmd(1);
     110:	81 e0       	ldi	r24, 0x01	; 1
     112:	0e 94 5e 00 	call	0xbc	; 0xbc <lcd_cmd>
     116:	08 95       	ret

00000118 <lcd_init>:
}

//Initialization of Display
void lcd_init()
{
	lcd_port(0x00);
     118:	80 e0       	ldi	r24, 0x00	; 0
     11a:	0e 94 49 00 	call	0x92	; 0x92 <lcd_port>
     11e:	8f e1       	ldi	r24, 0x1F	; 31
     120:	9e e4       	ldi	r25, 0x4E	; 78
     122:	01 97       	sbiw	r24, 0x01	; 1
     124:	f1 f7       	brne	.-4      	; 0x122 <lcd_init+0xa>
     126:	00 c0       	rjmp	.+0      	; 0x128 <lcd_init+0x10>
     128:	00 00       	nop
	_delay_ms(20);
	lcd_cmd(0x33);
     12a:	83 e3       	ldi	r24, 0x33	; 51
     12c:	0e 94 5e 00 	call	0xbc	; 0xbc <lcd_cmd>
     130:	87 e8       	ldi	r24, 0x87	; 135
     132:	93 e1       	ldi	r25, 0x13	; 19
     134:	01 97       	sbiw	r24, 0x01	; 1
     136:	f1 f7       	brne	.-4      	; 0x134 <lcd_init+0x1c>
     138:	00 c0       	rjmp	.+0      	; 0x13a <lcd_init+0x22>
     13a:	00 00       	nop
	_delay_ms(5);
	lcd_cmd(0x32); //see the datasheet flowchart on page 46.
     13c:	82 e3       	ldi	r24, 0x32	; 50
     13e:	0e 94 5e 00 	call	0xbc	; 0xbc <lcd_cmd>
     142:	87 e8       	ldi	r24, 0x87	; 135
     144:	93 e1       	ldi	r25, 0x13	; 19
     146:	01 97       	sbiw	r24, 0x01	; 1
     148:	f1 f7       	brne	.-4      	; 0x146 <lcd_init+0x2e>
     14a:	00 c0       	rjmp	.+0      	; 0x14c <lcd_init+0x34>
     14c:	00 00       	nop
	_delay_ms(5);
	lcd_cmd(0x28);
     14e:	88 e2       	ldi	r24, 0x28	; 40
     150:	0e 94 5e 00 	call	0xbc	; 0xbc <lcd_cmd>
     154:	87 e8       	ldi	r24, 0x87	; 135
     156:	93 e1       	ldi	r25, 0x13	; 19
     158:	01 97       	sbiw	r24, 0x01	; 1
     15a:	f1 f7       	brne	.-4      	; 0x158 <lcd_init+0x40>
     15c:	00 c0       	rjmp	.+0      	; 0x15e <lcd_init+0x46>
     15e:	00 00       	nop
	_delay_ms(5);
	lcd_cmd(0x28);
     160:	88 e2       	ldi	r24, 0x28	; 40
     162:	0e 94 5e 00 	call	0xbc	; 0xbc <lcd_cmd>
     166:	87 e8       	ldi	r24, 0x87	; 135
     168:	93 e1       	ldi	r25, 0x13	; 19
     16a:	01 97       	sbiw	r24, 0x01	; 1
     16c:	f1 f7       	brne	.-4      	; 0x16a <lcd_init+0x52>
     16e:	00 c0       	rjmp	.+0      	; 0x170 <lcd_init+0x58>
     170:	00 00       	nop
	_delay_ms(5);
	lcd_cmd(0x06);
     172:	86 e0       	ldi	r24, 0x06	; 6
     174:	0e 94 5e 00 	call	0xbc	; 0xbc <lcd_cmd>
     178:	87 e8       	ldi	r24, 0x87	; 135
     17a:	93 e1       	ldi	r25, 0x13	; 19
     17c:	01 97       	sbiw	r24, 0x01	; 1
     17e:	f1 f7       	brne	.-4      	; 0x17c <lcd_init+0x64>
     180:	00 c0       	rjmp	.+0      	; 0x182 <lcd_init+0x6a>
     182:	00 00       	nop
	_delay_ms(5);
	lcd_cmd(0x0C);
     184:	8c e0       	ldi	r24, 0x0C	; 12
     186:	0e 94 5e 00 	call	0xbc	; 0xbc <lcd_cmd>
     18a:	87 e8       	ldi	r24, 0x87	; 135
     18c:	93 e1       	ldi	r25, 0x13	; 19
     18e:	01 97       	sbiw	r24, 0x01	; 1
     190:	f1 f7       	brne	.-4      	; 0x18e <lcd_init+0x76>
     192:	00 c0       	rjmp	.+0      	; 0x194 <lcd_init+0x7c>
     194:	00 00       	nop
	_delay_ms(5);
	lcd_cmd(0x01);
     196:	81 e0       	ldi	r24, 0x01	; 1
     198:	0e 94 5e 00 	call	0xbc	; 0xbc <lcd_cmd>
     19c:	87 e8       	ldi	r24, 0x87	; 135
     19e:	93 e1       	ldi	r25, 0x13	; 19
     1a0:	01 97       	sbiw	r24, 0x01	; 1
     1a2:	f1 f7       	brne	.-4      	; 0x1a0 <lcd_init+0x88>
     1a4:	00 c0       	rjmp	.+0      	; 0x1a6 <lcd_init+0x8e>
     1a6:	00 00       	nop
     1a8:	08 95       	ret

000001aa <lcd_gotoxy>:
}

//Set a location at Display RAM
void lcd_gotoxy(char row, char col)
{
	if(row == 0)		lcd_cmd(0x80 + col);
     1aa:	81 11       	cpse	r24, r1
     1ac:	05 c0       	rjmp	.+10     	; 0x1b8 <lcd_gotoxy+0xe>
     1ae:	80 e8       	ldi	r24, 0x80	; 128
     1b0:	86 0f       	add	r24, r22
     1b2:	0e 94 5e 00 	call	0xbc	; 0xbc <lcd_cmd>
     1b6:	08 95       	ret
	else if(row == 1)	lcd_cmd(0xC0 + col);
     1b8:	81 30       	cpi	r24, 0x01	; 1
     1ba:	29 f4       	brne	.+10     	; 0x1c6 <lcd_gotoxy+0x1c>
     1bc:	80 ec       	ldi	r24, 0xC0	; 192
     1be:	86 0f       	add	r24, r22
     1c0:	0e 94 5e 00 	call	0xbc	; 0xbc <lcd_cmd>
     1c4:	08 95       	ret
	else if(row == 2)	lcd_cmd(0x94 + col);
     1c6:	82 30       	cpi	r24, 0x02	; 2
     1c8:	29 f4       	brne	.+10     	; 0x1d4 <lcd_gotoxy+0x2a>
     1ca:	84 e9       	ldi	r24, 0x94	; 148
     1cc:	86 0f       	add	r24, r22
     1ce:	0e 94 5e 00 	call	0xbc	; 0xbc <lcd_cmd>
     1d2:	08 95       	ret
	else if(row == 3)	lcd_cmd(0xD4 + col);
     1d4:	83 30       	cpi	r24, 0x03	; 3
     1d6:	21 f4       	brne	.+8      	; 0x1e0 <lcd_gotoxy+0x36>
     1d8:	84 ed       	ldi	r24, 0xD4	; 212
     1da:	86 0f       	add	r24, r22
     1dc:	0e 94 5e 00 	call	0xbc	; 0xbc <lcd_cmd>
     1e0:	08 95       	ret

000001e2 <lcd_putchar>:
}

//Write a Character/Data to the Display
void lcd_putchar(char ch)
{
     1e2:	cf 93       	push	r28
     1e4:	c8 2f       	mov	r28, r24
	RS_1;
     1e6:	d9 9a       	sbi	0x1b, 1	; 27
	EN_0;
     1e8:	db 98       	cbi	0x1b, 3	; 27
	lcd_port(ch >> 4);
     1ea:	82 95       	swap	r24
     1ec:	8f 70       	andi	r24, 0x0F	; 15
     1ee:	0e 94 49 00 	call	0x92	; 0x92 <lcd_port>
	EN_1;
     1f2:	db 9a       	sbi	0x1b, 3	; 27
     1f4:	87 ee       	ldi	r24, 0xE7	; 231
     1f6:	93 e0       	ldi	r25, 0x03	; 3
     1f8:	01 97       	sbiw	r24, 0x01	; 1
     1fa:	f1 f7       	brne	.-4      	; 0x1f8 <lcd_putchar+0x16>
     1fc:	00 c0       	rjmp	.+0      	; 0x1fe <lcd_putchar+0x1c>
     1fe:	00 00       	nop
	_delay_ms(1);
	EN_0;
     200:	db 98       	cbi	0x1b, 3	; 27
     202:	87 ee       	ldi	r24, 0xE7	; 231
     204:	93 e0       	ldi	r25, 0x03	; 3
     206:	01 97       	sbiw	r24, 0x01	; 1
     208:	f1 f7       	brne	.-4      	; 0x206 <lcd_putchar+0x24>
     20a:	00 c0       	rjmp	.+0      	; 0x20c <lcd_putchar+0x2a>
     20c:	00 00       	nop
	_delay_ms(1);
	lcd_port(ch & 0x0F);
     20e:	8c 2f       	mov	r24, r28
     210:	8f 70       	andi	r24, 0x0F	; 15
     212:	0e 94 49 00 	call	0x92	; 0x92 <lcd_port>
	EN_1;
     216:	db 9a       	sbi	0x1b, 3	; 27
     218:	87 ee       	ldi	r24, 0xE7	; 231
     21a:	93 e0       	ldi	r25, 0x03	; 3
     21c:	01 97       	sbiw	r24, 0x01	; 1
     21e:	f1 f7       	brne	.-4      	; 0x21c <lcd_putchar+0x3a>
     220:	00 c0       	rjmp	.+0      	; 0x222 <lcd_putchar+0x40>
     222:	00 00       	nop
	_delay_ms(1);
	EN_0;
     224:	db 98       	cbi	0x1b, 3	; 27
     226:	87 ee       	ldi	r24, 0xE7	; 231
     228:	93 e0       	ldi	r25, 0x03	; 3
     22a:	01 97       	sbiw	r24, 0x01	; 1
     22c:	f1 f7       	brne	.-4      	; 0x22a <lcd_putchar+0x48>
     22e:	00 c0       	rjmp	.+0      	; 0x230 <lcd_putchar+0x4e>
     230:	00 00       	nop
	_delay_ms(1);
}
     232:	cf 91       	pop	r28
     234:	08 95       	ret

00000236 <lcd_puts>:
	lcd_putchar(a[i]);
}

// write the string located in SRAM Memory
void lcd_puts(char *str)
{
     236:	cf 93       	push	r28
     238:	df 93       	push	r29
	char k;
	while((k=*str++)!=0)
     23a:	ec 01       	movw	r28, r24
     23c:	21 96       	adiw	r28, 0x01	; 1
     23e:	fc 01       	movw	r30, r24
     240:	80 81       	ld	r24, Z
     242:	88 23       	and	r24, r24
     244:	29 f0       	breq	.+10     	; 0x250 <lcd_puts+0x1a>
	lcd_putchar(k);
     246:	0e 94 f1 00 	call	0x1e2	; 0x1e2 <lcd_putchar>

// write the string located in SRAM Memory
void lcd_puts(char *str)
{
	char k;
	while((k=*str++)!=0)
     24a:	89 91       	ld	r24, Y+
     24c:	81 11       	cpse	r24, r1
     24e:	fb cf       	rjmp	.-10     	; 0x246 <lcd_puts+0x10>
	lcd_putchar(k);
}
     250:	df 91       	pop	r29
     252:	cf 91       	pop	r28
     254:	08 95       	ret

00000256 <lcd_putsint_z>:

//Function to write a long integer type value to the LCD Display
void lcd_putsint_z(int32_t val_m, signed int field_length)
{
     256:	4f 92       	push	r4
     258:	5f 92       	push	r5
     25a:	6f 92       	push	r6
     25c:	7f 92       	push	r7
     25e:	8f 92       	push	r8
     260:	9f 92       	push	r9
     262:	af 92       	push	r10
     264:	bf 92       	push	r11
     266:	ef 92       	push	r14
     268:	ff 92       	push	r15
     26a:	0f 93       	push	r16
     26c:	1f 93       	push	r17
     26e:	cf 93       	push	r28
     270:	df 93       	push	r29
     272:	cd b7       	in	r28, 0x3d	; 61
     274:	de b7       	in	r29, 0x3e	; 62
     276:	2a 97       	sbiw	r28, 0x0a	; 10
     278:	0f b6       	in	r0, 0x3f	; 63
     27a:	f8 94       	cli
     27c:	de bf       	out	0x3e, r29	; 62
     27e:	0f be       	out	0x3f, r0	; 63
     280:	cd bf       	out	0x3d, r28	; 61
     282:	4b 01       	movw	r8, r22
     284:	5c 01       	movw	r10, r24
     286:	7a 01       	movw	r14, r20
	int32_t val = fabs(val_m);
     288:	0e 94 42 11 	call	0x2284	; 0x2284 <__floatsisf>
     28c:	9f 77       	andi	r25, 0x7F	; 127
     28e:	0e 94 0f 11 	call	0x221e	; 0x221e <__fixsfsi>
	char str[10]={0};
     292:	fe 01       	movw	r30, r28
     294:	31 96       	adiw	r30, 0x01	; 1
     296:	2a e0       	ldi	r18, 0x0A	; 10
     298:	df 01       	movw	r26, r30
     29a:	1d 92       	st	X+, r1
     29c:	2a 95       	dec	r18
     29e:	e9 f7       	brne	.-6      	; 0x29a <lcd_putsint_z+0x44>
	int i=9,j=0;
	while(val)
     2a0:	61 15       	cp	r22, r1
     2a2:	71 05       	cpc	r23, r1
     2a4:	81 05       	cpc	r24, r1
     2a6:	91 05       	cpc	r25, r1
     2a8:	d1 f0       	breq	.+52     	; 0x2de <lcd_putsint_z+0x88>
     2aa:	8e 01       	movw	r16, r28
     2ac:	05 5f       	subi	r16, 0xF5	; 245
     2ae:	1f 4f       	sbci	r17, 0xFF	; 255
	{
		str[i]=val%10;
     2b0:	0f 2e       	mov	r0, r31
     2b2:	fa e0       	ldi	r31, 0x0A	; 10
     2b4:	4f 2e       	mov	r4, r31
     2b6:	51 2c       	mov	r5, r1
     2b8:	61 2c       	mov	r6, r1
     2ba:	71 2c       	mov	r7, r1
     2bc:	f0 2d       	mov	r31, r0
     2be:	a3 01       	movw	r20, r6
     2c0:	92 01       	movw	r18, r4
     2c2:	0e 94 c0 12 	call	0x2580	; 0x2580 <__divmodsi4>
     2c6:	f8 01       	movw	r30, r16
     2c8:	62 93       	st	-Z, r22
     2ca:	8f 01       	movw	r16, r30
		val=val/10;
     2cc:	62 2f       	mov	r22, r18
     2ce:	73 2f       	mov	r23, r19
     2d0:	84 2f       	mov	r24, r20
     2d2:	95 2f       	mov	r25, r21
void lcd_putsint_z(int32_t val_m, signed int field_length)
{
	int32_t val = fabs(val_m);
	char str[10]={0};
	int i=9,j=0;
	while(val)
     2d4:	61 15       	cp	r22, r1
     2d6:	71 05       	cpc	r23, r1
     2d8:	81 05       	cpc	r24, r1
     2da:	91 05       	cpc	r25, r1
     2dc:	81 f7       	brne	.-32     	; 0x2be <lcd_putsint_z+0x68>
	{
		str[i]=val%10;
		val=val/10;
		i--;
	}
	if(field_length==-1)
     2de:	ff ef       	ldi	r31, 0xFF	; 255
     2e0:	ef 16       	cp	r14, r31
     2e2:	ff 06       	cpc	r15, r31
     2e4:	69 f4       	brne	.+26     	; 0x300 <lcd_putsint_z+0xaa>
	while(str[j]==0) j++;
     2e6:	89 81       	ldd	r24, Y+1	; 0x01
     2e8:	81 11       	cpse	r24, r1
     2ea:	0f c0       	rjmp	.+30     	; 0x30a <lcd_putsint_z+0xb4>
     2ec:	fe 01       	movw	r30, r28
     2ee:	32 96       	adiw	r30, 0x02	; 2
     2f0:	00 e0       	ldi	r16, 0x00	; 0
     2f2:	10 e0       	ldi	r17, 0x00	; 0
     2f4:	0f 5f       	subi	r16, 0xFF	; 255
     2f6:	1f 4f       	sbci	r17, 0xFF	; 255
     2f8:	81 91       	ld	r24, Z+
     2fa:	88 23       	and	r24, r24
     2fc:	d9 f3       	breq	.-10     	; 0x2f4 <lcd_putsint_z+0x9e>
     2fe:	07 c0       	rjmp	.+14     	; 0x30e <lcd_putsint_z+0xb8>
	else
	j=10-field_length;
     300:	0a e0       	ldi	r16, 0x0A	; 10
     302:	10 e0       	ldi	r17, 0x00	; 0
     304:	0e 19       	sub	r16, r14
     306:	1f 09       	sbc	r17, r15
     308:	02 c0       	rjmp	.+4      	; 0x30e <lcd_putsint_z+0xb8>
		str[i]=val%10;
		val=val/10;
		i--;
	}
	if(field_length==-1)
	while(str[j]==0) j++;
     30a:	00 e0       	ldi	r16, 0x00	; 0
     30c:	10 e0       	ldi	r17, 0x00	; 0
	else
	j=10-field_length;
	if(val_m<0) lcd_putchar('-');
     30e:	bb 20       	and	r11, r11
     310:	1c f4       	brge	.+6      	; 0x318 <lcd_putsint_z+0xc2>
     312:	8d e2       	ldi	r24, 0x2D	; 45
     314:	0e 94 f1 00 	call	0x1e2	; 0x1e2 <lcd_putchar>
	for(i=j;i<10;i++)
     318:	0a 30       	cpi	r16, 0x0A	; 10
     31a:	11 05       	cpc	r17, r1
     31c:	9c f4       	brge	.+38     	; 0x344 <lcd_putsint_z+0xee>
     31e:	81 e0       	ldi	r24, 0x01	; 1
     320:	90 e0       	ldi	r25, 0x00	; 0
     322:	8c 0f       	add	r24, r28
     324:	9d 1f       	adc	r25, r29
     326:	08 0f       	add	r16, r24
     328:	19 1f       	adc	r17, r25
     32a:	7e 01       	movw	r14, r28
     32c:	9b e0       	ldi	r25, 0x0B	; 11
     32e:	e9 0e       	add	r14, r25
     330:	f1 1c       	adc	r15, r1
	lcd_putchar(48+str[i]);
     332:	d8 01       	movw	r26, r16
     334:	8d 91       	ld	r24, X+
     336:	8d 01       	movw	r16, r26
     338:	80 5d       	subi	r24, 0xD0	; 208
     33a:	0e 94 f1 00 	call	0x1e2	; 0x1e2 <lcd_putchar>
	if(field_length==-1)
	while(str[j]==0) j++;
	else
	j=10-field_length;
	if(val_m<0) lcd_putchar('-');
	for(i=j;i<10;i++)
     33e:	0e 15       	cp	r16, r14
     340:	1f 05       	cpc	r17, r15
     342:	b9 f7       	brne	.-18     	; 0x332 <lcd_putsint_z+0xdc>
	lcd_putchar(48+str[i]);
}
     344:	2a 96       	adiw	r28, 0x0a	; 10
     346:	0f b6       	in	r0, 0x3f	; 63
     348:	f8 94       	cli
     34a:	de bf       	out	0x3e, r29	; 62
     34c:	0f be       	out	0x3f, r0	; 63
     34e:	cd bf       	out	0x3d, r28	; 61
     350:	df 91       	pop	r29
     352:	cf 91       	pop	r28
     354:	1f 91       	pop	r17
     356:	0f 91       	pop	r16
     358:	ff 90       	pop	r15
     35a:	ef 90       	pop	r14
     35c:	bf 90       	pop	r11
     35e:	af 90       	pop	r10
     360:	9f 90       	pop	r9
     362:	8f 90       	pop	r8
     364:	7f 90       	pop	r7
     366:	6f 90       	pop	r6
     368:	5f 90       	pop	r5
     36a:	4f 90       	pop	r4
     36c:	08 95       	ret

0000036e <lcd_putsint>:

void lcd_putsint(int32_t val, int8_t length)
{
     36e:	8f 92       	push	r8
     370:	9f 92       	push	r9
     372:	af 92       	push	r10
     374:	bf 92       	push	r11
     376:	df 92       	push	r13
     378:	ef 92       	push	r14
     37a:	ff 92       	push	r15
     37c:	0f 93       	push	r16
     37e:	1f 93       	push	r17
     380:	cf 93       	push	r28
     382:	df 93       	push	r29
     384:	cd b7       	in	r28, 0x3d	; 61
     386:	de b7       	in	r29, 0x3e	; 62
     388:	2a 97       	sbiw	r28, 0x0a	; 10
     38a:	0f b6       	in	r0, 0x3f	; 63
     38c:	f8 94       	cli
     38e:	de bf       	out	0x3e, r29	; 62
     390:	0f be       	out	0x3f, r0	; 63
     392:	cd bf       	out	0x3d, r28	; 61
     394:	4b 01       	movw	r8, r22
     396:	5c 01       	movw	r10, r24
     398:	d4 2e       	mov	r13, r20
	char str[10];
	int i = 0;
	if(val<0) lcd_putchar('-');
     39a:	99 23       	and	r25, r25
     39c:	1c f4       	brge	.+6      	; 0x3a4 <lcd_putsint+0x36>
     39e:	8d e2       	ldi	r24, 0x2D	; 45
     3a0:	0e 94 f1 00 	call	0x1e2	; 0x1e2 <lcd_putchar>
	val = fabs(val);
     3a4:	c5 01       	movw	r24, r10
     3a6:	b4 01       	movw	r22, r8
     3a8:	0e 94 42 11 	call	0x2284	; 0x2284 <__floatsisf>
     3ac:	9f 77       	andi	r25, 0x7F	; 127
     3ae:	0e 94 0f 11 	call	0x221e	; 0x221e <__fixsfsi>
	for (i=0;val>0;val=val/10)
     3b2:	16 16       	cp	r1, r22
     3b4:	17 06       	cpc	r1, r23
     3b6:	18 06       	cpc	r1, r24
     3b8:	19 06       	cpc	r1, r25
     3ba:	0c f5       	brge	.+66     	; 0x3fe <lcd_putsint+0x90>
     3bc:	9e 01       	movw	r18, r28
     3be:	2f 5f       	subi	r18, 0xFF	; 255
     3c0:	3f 4f       	sbci	r19, 0xFF	; 255
     3c2:	79 01       	movw	r14, r18
     3c4:	00 e0       	ldi	r16, 0x00	; 0
     3c6:	10 e0       	ldi	r17, 0x00	; 0
	str[i++] = 48+(val % 10);
     3c8:	0f 2e       	mov	r0, r31
     3ca:	fa e0       	ldi	r31, 0x0A	; 10
     3cc:	8f 2e       	mov	r8, r31
     3ce:	91 2c       	mov	r9, r1
     3d0:	a1 2c       	mov	r10, r1
     3d2:	b1 2c       	mov	r11, r1
     3d4:	f0 2d       	mov	r31, r0
     3d6:	0f 5f       	subi	r16, 0xFF	; 255
     3d8:	1f 4f       	sbci	r17, 0xFF	; 255
     3da:	a5 01       	movw	r20, r10
     3dc:	94 01       	movw	r18, r8
     3de:	0e 94 c0 12 	call	0x2580	; 0x2580 <__divmodsi4>
     3e2:	60 5d       	subi	r22, 0xD0	; 208
     3e4:	f7 01       	movw	r30, r14
     3e6:	61 93       	st	Z+, r22
     3e8:	7f 01       	movw	r14, r30
{
	char str[10];
	int i = 0;
	if(val<0) lcd_putchar('-');
	val = fabs(val);
	for (i=0;val>0;val=val/10)
     3ea:	62 2f       	mov	r22, r18
     3ec:	73 2f       	mov	r23, r19
     3ee:	84 2f       	mov	r24, r20
     3f0:	95 2f       	mov	r25, r21
     3f2:	16 16       	cp	r1, r22
     3f4:	17 06       	cpc	r1, r23
     3f6:	18 06       	cpc	r1, r24
     3f8:	19 06       	cpc	r1, r25
     3fa:	6c f3       	brlt	.-38     	; 0x3d6 <lcd_putsint+0x68>
     3fc:	02 c0       	rjmp	.+4      	; 0x402 <lcd_putsint+0x94>
     3fe:	00 e0       	ldi	r16, 0x00	; 0
     400:	10 e0       	ldi	r17, 0x00	; 0
	str[i++] = 48+(val % 10);
	str[i] = '\0';
     402:	9e 01       	movw	r18, r28
     404:	2f 5f       	subi	r18, 0xFF	; 255
     406:	3f 4f       	sbci	r19, 0xFF	; 255
     408:	79 01       	movw	r14, r18
     40a:	f9 01       	movw	r30, r18
     40c:	e0 0f       	add	r30, r16
     40e:	f1 1f       	adc	r31, r17
     410:	10 82       	st	Z, r1
	strrev(str);
     412:	c9 01       	movw	r24, r18
     414:	0e 94 f9 12 	call	0x25f2	; 0x25f2 <strrev>
	lcd_puts(str);
     418:	c7 01       	movw	r24, r14
     41a:	0e 94 1b 01 	call	0x236	; 0x236 <lcd_puts>
	if ((length = length - strlen(str)) >= 0)
     41e:	f7 01       	movw	r30, r14
     420:	01 90       	ld	r0, Z+
     422:	00 20       	and	r0, r0
     424:	e9 f7       	brne	.-6      	; 0x420 <lcd_putsint+0xb2>
     426:	31 97       	sbiw	r30, 0x01	; 1
     428:	ee 19       	sub	r30, r14
     42a:	ff 09       	sbc	r31, r15
     42c:	de 1a       	sub	r13, r30
     42e:	92 f0       	brmi	.+36     	; 0x454 <lcd_putsint+0xe6>
	for (i=0;length>i;i++)
     430:	ed 2c       	mov	r14, r13
     432:	ff 24       	eor	r15, r15
     434:	e7 fc       	sbrc	r14, 7
     436:	f0 94       	com	r15
     438:	1e 14       	cp	r1, r14
     43a:	1f 04       	cpc	r1, r15
     43c:	7c f4       	brge	.+30     	; 0x45c <lcd_putsint+0xee>
     43e:	00 e0       	ldi	r16, 0x00	; 0
     440:	10 e0       	ldi	r17, 0x00	; 0
	lcd_putchar(' ');
     442:	80 e2       	ldi	r24, 0x20	; 32
     444:	0e 94 f1 00 	call	0x1e2	; 0x1e2 <lcd_putchar>
	str[i++] = 48+(val % 10);
	str[i] = '\0';
	strrev(str);
	lcd_puts(str);
	if ((length = length - strlen(str)) >= 0)
	for (i=0;length>i;i++)
     448:	0f 5f       	subi	r16, 0xFF	; 255
     44a:	1f 4f       	sbci	r17, 0xFF	; 255
     44c:	0e 15       	cp	r16, r14
     44e:	1f 05       	cpc	r17, r15
     450:	c4 f3       	brlt	.-16     	; 0x442 <lcd_putsint+0xd4>
     452:	04 c0       	rjmp	.+8      	; 0x45c <lcd_putsint+0xee>
	lcd_putchar(' ');
	else
	lcd_puts("E");
     454:	8e e9       	ldi	r24, 0x9E	; 158
     456:	91 e0       	ldi	r25, 0x01	; 1
     458:	0e 94 1b 01 	call	0x236	; 0x236 <lcd_puts>
}
     45c:	2a 96       	adiw	r28, 0x0a	; 10
     45e:	0f b6       	in	r0, 0x3f	; 63
     460:	f8 94       	cli
     462:	de bf       	out	0x3e, r29	; 62
     464:	0f be       	out	0x3f, r0	; 63
     466:	cd bf       	out	0x3d, r28	; 61
     468:	df 91       	pop	r29
     46a:	cf 91       	pop	r28
     46c:	1f 91       	pop	r17
     46e:	0f 91       	pop	r16
     470:	ff 90       	pop	r15
     472:	ef 90       	pop	r14
     474:	df 90       	pop	r13
     476:	bf 90       	pop	r11
     478:	af 90       	pop	r10
     47a:	9f 90       	pop	r9
     47c:	8f 90       	pop	r8
     47e:	08 95       	ret

00000480 <Read_ADC>:
{
	ADCSRA=0x80 | AD_PRSCL;
}

unsigned int Read_ADC(unsigned char adc_input, unsigned char ADC_VREF)
{
     480:	9a e0       	ldi	r25, 0x0A	; 10
	char i;
	uint16_t temp=0;
     482:	20 e0       	ldi	r18, 0x00	; 0
     484:	30 e0       	ldi	r19, 0x00	; 0
	for (i=0;i<10;i++)
	{
		ADMUX=adc_input | ADC_VREF; //MUX setup page 215
     486:	86 2b       	or	r24, r22
     488:	87 b9       	out	0x07, r24	; 7
	#else
		//round up by default
		__ticks_dc = (uint32_t)(ceil(fabs(__tmp)));
	#endif

	__builtin_avr_delay_cycles(__ticks_dc);
     48a:	4d e0       	ldi	r20, 0x0D	; 13
     48c:	4a 95       	dec	r20
     48e:	f1 f7       	brne	.-4      	; 0x48c <Read_ADC+0xc>
     490:	00 00       	nop
		_delay_us(10);
		ADCSRA|=0x40;
     492:	36 9a       	sbi	0x06, 6	; 6
		while ((ADCSRA & 0x10)==0);
     494:	34 9b       	sbis	0x06, 4	; 6
     496:	fe cf       	rjmp	.-4      	; 0x494 <Read_ADC+0x14>
		ADCSRA|=(1<<4);
     498:	34 9a       	sbi	0x06, 4	; 6
		temp = temp + ADCW;
     49a:	44 b1       	in	r20, 0x04	; 4
     49c:	55 b1       	in	r21, 0x05	; 5
     49e:	24 0f       	add	r18, r20
     4a0:	35 1f       	adc	r19, r21
     4a2:	91 50       	subi	r25, 0x01	; 1

unsigned int Read_ADC(unsigned char adc_input, unsigned char ADC_VREF)
{
	char i;
	uint16_t temp=0;
	for (i=0;i<10;i++)
     4a4:	89 f7       	brne	.-30     	; 0x488 <Read_ADC+0x8>
		ADCSRA|=0x40;
		while ((ADCSRA & 0x10)==0);
		ADCSRA|=(1<<4);
		temp = temp + ADCW;
	}
	return (temp/i);	
     4a6:	ad ec       	ldi	r26, 0xCD	; 205
     4a8:	bc ec       	ldi	r27, 0xCC	; 204
     4aa:	0e 94 df 12 	call	0x25be	; 0x25be <__umulhisi3>
}
     4ae:	96 95       	lsr	r25
     4b0:	87 95       	ror	r24
     4b2:	96 95       	lsr	r25
     4b4:	87 95       	ror	r24
     4b6:	96 95       	lsr	r25
     4b8:	87 95       	ror	r24
     4ba:	08 95       	ret

000004bc <keypad_init>:
	#define KEYPAD_DDR DDRC //User configurable
	#define KEYPAD_PIN PINC //User configurable
	
	void keypad_init(void)
	{
		KEYPAD_PORT = 0xFF;
     4bc:	8f ef       	ldi	r24, 0xFF	; 255
     4be:	85 bb       	out	0x15, r24	; 21
		KEYPAD_DDR = 0xF0;
     4c0:	80 ef       	ldi	r24, 0xF0	; 240
     4c2:	84 bb       	out	0x14, r24	; 20
     4c4:	08 95       	ret

000004c6 <scan_kpd_4x4>:
	}

	uint16_t scan_kpd_4x4(void)
	{
		KEYPAD_PORT = 0xEF;    //start first column
     4c6:	8f ee       	ldi	r24, 0xEF	; 239
     4c8:	85 bb       	out	0x15, r24	; 21
	#else
		//round up by default
		__ticks_dc = (uint32_t)(ceil(fabs(__tmp)));
	#endif

	__builtin_avr_delay_cycles(__ticks_dc);
     4ca:	87 ee       	ldi	r24, 0xE7	; 231
     4cc:	93 e0       	ldi	r25, 0x03	; 3
     4ce:	01 97       	sbiw	r24, 0x01	; 1
     4d0:	f1 f7       	brne	.-4      	; 0x4ce <scan_kpd_4x4+0x8>
     4d2:	00 c0       	rjmp	.+0      	; 0x4d4 <scan_kpd_4x4+0xe>
     4d4:	00 00       	nop
		_delay_ms(1);
		if (!(KEYPAD_PIN & 0x01)) return 1;
     4d6:	98 9b       	sbis	0x13, 0	; 19
     4d8:	3b c0       	rjmp	.+118    	; 0x550 <scan_kpd_4x4+0x8a>
		else if (!(KEYPAD_PIN & 0x02)) return 4;
     4da:	99 9b       	sbis	0x13, 1	; 19
     4dc:	3c c0       	rjmp	.+120    	; 0x556 <scan_kpd_4x4+0x90>
		else if (!(KEYPAD_PIN & 0x04)) return 7;
     4de:	9a 9b       	sbis	0x13, 2	; 19
     4e0:	3d c0       	rjmp	.+122    	; 0x55c <scan_kpd_4x4+0x96>
		else if (!(KEYPAD_PIN & 0x08)) return 11;
     4e2:	9b 9b       	sbis	0x13, 3	; 19
     4e4:	3e c0       	rjmp	.+124    	; 0x562 <scan_kpd_4x4+0x9c>
		else
		{
			KEYPAD_PORT = 0xDF;    //start second column
     4e6:	8f ed       	ldi	r24, 0xDF	; 223
     4e8:	85 bb       	out	0x15, r24	; 21
     4ea:	87 ee       	ldi	r24, 0xE7	; 231
     4ec:	93 e0       	ldi	r25, 0x03	; 3
     4ee:	01 97       	sbiw	r24, 0x01	; 1
     4f0:	f1 f7       	brne	.-4      	; 0x4ee <scan_kpd_4x4+0x28>
     4f2:	00 c0       	rjmp	.+0      	; 0x4f4 <scan_kpd_4x4+0x2e>
     4f4:	00 00       	nop
			_delay_ms(1);
			if (!(KEYPAD_PIN & 0x01)) return 2;
     4f6:	98 9b       	sbis	0x13, 0	; 19
     4f8:	37 c0       	rjmp	.+110    	; 0x568 <scan_kpd_4x4+0xa2>
			else if (!(KEYPAD_PIN & 0x02)) return 5;
     4fa:	99 9b       	sbis	0x13, 1	; 19
     4fc:	38 c0       	rjmp	.+112    	; 0x56e <scan_kpd_4x4+0xa8>
			else if (!(KEYPAD_PIN & 0x04)) return 8;
     4fe:	9a 9b       	sbis	0x13, 2	; 19
     500:	39 c0       	rjmp	.+114    	; 0x574 <scan_kpd_4x4+0xae>
			else if (!(KEYPAD_PIN & 0x08)) return 10;
     502:	9b 9b       	sbis	0x13, 3	; 19
     504:	3a c0       	rjmp	.+116    	; 0x57a <scan_kpd_4x4+0xb4>
			else 
			{
				KEYPAD_PORT = 0xBF;   //start third column
     506:	8f eb       	ldi	r24, 0xBF	; 191
     508:	85 bb       	out	0x15, r24	; 21
     50a:	87 ee       	ldi	r24, 0xE7	; 231
     50c:	93 e0       	ldi	r25, 0x03	; 3
     50e:	01 97       	sbiw	r24, 0x01	; 1
     510:	f1 f7       	brne	.-4      	; 0x50e <scan_kpd_4x4+0x48>
     512:	00 c0       	rjmp	.+0      	; 0x514 <scan_kpd_4x4+0x4e>
     514:	00 00       	nop
				_delay_ms(1);
				if (!(KEYPAD_PIN & 0x01)) return 3;
     516:	98 9b       	sbis	0x13, 0	; 19
     518:	33 c0       	rjmp	.+102    	; 0x580 <scan_kpd_4x4+0xba>
				else if (!(KEYPAD_PIN & 0x02)) return 6;
     51a:	99 9b       	sbis	0x13, 1	; 19
     51c:	34 c0       	rjmp	.+104    	; 0x586 <scan_kpd_4x4+0xc0>
				else if (!(KEYPAD_PIN & 0x04)) return 9;
     51e:	9a 9b       	sbis	0x13, 2	; 19
     520:	35 c0       	rjmp	.+106    	; 0x58c <scan_kpd_4x4+0xc6>
				else if (!(KEYPAD_PIN & 0x08)) return 12;
     522:	9b 9b       	sbis	0x13, 3	; 19
     524:	36 c0       	rjmp	.+108    	; 0x592 <scan_kpd_4x4+0xcc>
				else
				{
					KEYPAD_PORT = 0x7F;   //start fourth column
     526:	8f e7       	ldi	r24, 0x7F	; 127
     528:	85 bb       	out	0x15, r24	; 21
     52a:	87 ee       	ldi	r24, 0xE7	; 231
     52c:	93 e0       	ldi	r25, 0x03	; 3
     52e:	01 97       	sbiw	r24, 0x01	; 1
     530:	f1 f7       	brne	.-4      	; 0x52e <scan_kpd_4x4+0x68>
     532:	00 c0       	rjmp	.+0      	; 0x534 <scan_kpd_4x4+0x6e>
     534:	00 00       	nop
					_delay_ms(1);
					if (!(KEYPAD_PIN & 0x01)) return 13;
     536:	98 9b       	sbis	0x13, 0	; 19
     538:	2f c0       	rjmp	.+94     	; 0x598 <scan_kpd_4x4+0xd2>
					else if (!(KEYPAD_PIN & 0x02)) return 14;
     53a:	99 9b       	sbis	0x13, 1	; 19
     53c:	30 c0       	rjmp	.+96     	; 0x59e <scan_kpd_4x4+0xd8>
					else if (!(KEYPAD_PIN & 0x04)) return 15;
     53e:	9a 9b       	sbis	0x13, 2	; 19
     540:	31 c0       	rjmp	.+98     	; 0x5a4 <scan_kpd_4x4+0xde>
					else if (!(KEYPAD_PIN & 0x08)) return 16;
     542:	9b 9b       	sbis	0x13, 3	; 19
     544:	32 c0       	rjmp	.+100    	; 0x5aa <scan_kpd_4x4+0xe4>
					else
					{
						KEYPAD_PORT = 0xFF;
     546:	8f ef       	ldi	r24, 0xFF	; 255
     548:	85 bb       	out	0x15, r24	; 21
						return 0;
     54a:	80 e0       	ldi	r24, 0x00	; 0
     54c:	90 e0       	ldi	r25, 0x00	; 0
     54e:	08 95       	ret

	uint16_t scan_kpd_4x4(void)
	{
		KEYPAD_PORT = 0xEF;    //start first column
		_delay_ms(1);
		if (!(KEYPAD_PIN & 0x01)) return 1;
     550:	81 e0       	ldi	r24, 0x01	; 1
     552:	90 e0       	ldi	r25, 0x00	; 0
     554:	08 95       	ret
		else if (!(KEYPAD_PIN & 0x02)) return 4;
     556:	84 e0       	ldi	r24, 0x04	; 4
     558:	90 e0       	ldi	r25, 0x00	; 0
     55a:	08 95       	ret
		else if (!(KEYPAD_PIN & 0x04)) return 7;
     55c:	87 e0       	ldi	r24, 0x07	; 7
     55e:	90 e0       	ldi	r25, 0x00	; 0
     560:	08 95       	ret
		else if (!(KEYPAD_PIN & 0x08)) return 11;
     562:	8b e0       	ldi	r24, 0x0B	; 11
     564:	90 e0       	ldi	r25, 0x00	; 0
     566:	08 95       	ret
		else
		{
			KEYPAD_PORT = 0xDF;    //start second column
			_delay_ms(1);
			if (!(KEYPAD_PIN & 0x01)) return 2;
     568:	82 e0       	ldi	r24, 0x02	; 2
     56a:	90 e0       	ldi	r25, 0x00	; 0
     56c:	08 95       	ret
			else if (!(KEYPAD_PIN & 0x02)) return 5;
     56e:	85 e0       	ldi	r24, 0x05	; 5
     570:	90 e0       	ldi	r25, 0x00	; 0
     572:	08 95       	ret
			else if (!(KEYPAD_PIN & 0x04)) return 8;
     574:	88 e0       	ldi	r24, 0x08	; 8
     576:	90 e0       	ldi	r25, 0x00	; 0
     578:	08 95       	ret
			else if (!(KEYPAD_PIN & 0x08)) return 10;
     57a:	8a e0       	ldi	r24, 0x0A	; 10
     57c:	90 e0       	ldi	r25, 0x00	; 0
     57e:	08 95       	ret
			else 
			{
				KEYPAD_PORT = 0xBF;   //start third column
				_delay_ms(1);
				if (!(KEYPAD_PIN & 0x01)) return 3;
     580:	83 e0       	ldi	r24, 0x03	; 3
     582:	90 e0       	ldi	r25, 0x00	; 0
     584:	08 95       	ret
				else if (!(KEYPAD_PIN & 0x02)) return 6;
     586:	86 e0       	ldi	r24, 0x06	; 6
     588:	90 e0       	ldi	r25, 0x00	; 0
     58a:	08 95       	ret
				else if (!(KEYPAD_PIN & 0x04)) return 9;
     58c:	89 e0       	ldi	r24, 0x09	; 9
     58e:	90 e0       	ldi	r25, 0x00	; 0
     590:	08 95       	ret
				else if (!(KEYPAD_PIN & 0x08)) return 12;
     592:	8c e0       	ldi	r24, 0x0C	; 12
     594:	90 e0       	ldi	r25, 0x00	; 0
     596:	08 95       	ret
				else
				{
					KEYPAD_PORT = 0x7F;   //start fourth column
					_delay_ms(1);
					if (!(KEYPAD_PIN & 0x01)) return 13;
     598:	8d e0       	ldi	r24, 0x0D	; 13
     59a:	90 e0       	ldi	r25, 0x00	; 0
     59c:	08 95       	ret
					else if (!(KEYPAD_PIN & 0x02)) return 14;
     59e:	8e e0       	ldi	r24, 0x0E	; 14
     5a0:	90 e0       	ldi	r25, 0x00	; 0
     5a2:	08 95       	ret
					else if (!(KEYPAD_PIN & 0x04)) return 15;
     5a4:	8f e0       	ldi	r24, 0x0F	; 15
     5a6:	90 e0       	ldi	r25, 0x00	; 0
     5a8:	08 95       	ret
					else if (!(KEYPAD_PIN & 0x08)) return 16;
     5aa:	80 e1       	ldi	r24, 0x10	; 16
     5ac:	90 e0       	ldi	r25, 0x00	; 0
						return 0;
					}
				}
			}
		}
	}
     5ae:	08 95       	ret

000005b0 <__vector_1>:
float start_temp=0.0, end_temp=0.0, ratio_start=0.0, ratio_end=0.0; //
float temp_buffer=0.0, Global_temperature=0.0, final_temp=0.0, temp_calc_nominator=0.0, temp_calc_denominator=0.0;
float EEMEM start_temp_hold=30.0, end_temp_hold=80.0, ratio_start_hold=100.0, ratio_end_hold=100.0;

ISR(INT0_vect)
{
     5b0:	1f 92       	push	r1
     5b2:	0f 92       	push	r0
     5b4:	0f b6       	in	r0, 0x3f	; 63
     5b6:	0f 92       	push	r0
     5b8:	11 24       	eor	r1, r1
     5ba:	8f 93       	push	r24
     5bc:	9f 93       	push	r25
     5be:	af 93       	push	r26
     5c0:	bf 93       	push	r27
	i_water = i_water + 1;
     5c2:	80 91 b1 03 	lds	r24, 0x03B1
     5c6:	90 91 b2 03 	lds	r25, 0x03B2
     5ca:	a0 91 b3 03 	lds	r26, 0x03B3
     5ce:	b0 91 b4 03 	lds	r27, 0x03B4
     5d2:	01 96       	adiw	r24, 0x01	; 1
     5d4:	a1 1d       	adc	r26, r1
     5d6:	b1 1d       	adc	r27, r1
     5d8:	80 93 b1 03 	sts	0x03B1, r24
     5dc:	90 93 b2 03 	sts	0x03B2, r25
     5e0:	a0 93 b3 03 	sts	0x03B3, r26
     5e4:	b0 93 b4 03 	sts	0x03B4, r27
}
     5e8:	bf 91       	pop	r27
     5ea:	af 91       	pop	r26
     5ec:	9f 91       	pop	r25
     5ee:	8f 91       	pop	r24
     5f0:	0f 90       	pop	r0
     5f2:	0f be       	out	0x3f, r0	; 63
     5f4:	0f 90       	pop	r0
     5f6:	1f 90       	pop	r1
     5f8:	18 95       	reti

000005fa <__vector_7>:
	return round(avg_temp/5);
}


ISR(TIMER1_COMPA_vect)
{
     5fa:	1f 92       	push	r1
     5fc:	0f 92       	push	r0
     5fe:	0f b6       	in	r0, 0x3f	; 63
     600:	0f 92       	push	r0
     602:	11 24       	eor	r1, r1
     604:	4f 92       	push	r4
     606:	5f 92       	push	r5
     608:	6f 92       	push	r6
     60a:	7f 92       	push	r7
     60c:	8f 92       	push	r8
     60e:	9f 92       	push	r9
     610:	af 92       	push	r10
     612:	bf 92       	push	r11
     614:	cf 92       	push	r12
     616:	df 92       	push	r13
     618:	ef 92       	push	r14
     61a:	ff 92       	push	r15
     61c:	2f 93       	push	r18
     61e:	3f 93       	push	r19
     620:	4f 93       	push	r20
     622:	5f 93       	push	r21
     624:	6f 93       	push	r22
     626:	7f 93       	push	r23
     628:	8f 93       	push	r24
     62a:	9f 93       	push	r25
     62c:	af 93       	push	r26
     62e:	bf 93       	push	r27
     630:	ef 93       	push	r30
     632:	ff 93       	push	r31
     634:	cf 93       	push	r28
     636:	df 93       	push	r29
     638:	00 d0       	rcall	.+0      	; 0x63a <__vector_7+0x40>
     63a:	00 d0       	rcall	.+0      	; 0x63c <__vector_7+0x42>
     63c:	cd b7       	in	r28, 0x3d	; 61
     63e:	de b7       	in	r29, 0x3e	; 62
	wdt_reset();
     640:	a8 95       	wdr
	div4 = div4 + 1;
     642:	80 91 a8 03 	lds	r24, 0x03A8
     646:	8f 5f       	subi	r24, 0xFF	; 255
     648:	80 93 a8 03 	sts	0x03A8, r24
	temp_buffer = temp_buffer + Read_ADC(0,0x00);
     64c:	60 e0       	ldi	r22, 0x00	; 0
     64e:	80 e0       	ldi	r24, 0x00	; 0
     650:	0e 94 40 02 	call	0x480	; 0x480 <Read_ADC>
     654:	bc 01       	movw	r22, r24
     656:	80 e0       	ldi	r24, 0x00	; 0
     658:	90 e0       	ldi	r25, 0x00	; 0
     65a:	0e 94 40 11 	call	0x2280	; 0x2280 <__floatunsisf>
     65e:	20 91 94 03 	lds	r18, 0x0394
     662:	30 91 95 03 	lds	r19, 0x0395
     666:	40 91 96 03 	lds	r20, 0x0396
     66a:	50 91 97 03 	lds	r21, 0x0397
     66e:	0e 94 3f 10 	call	0x207e	; 0x207e <__addsf3>
     672:	60 93 94 03 	sts	0x0394, r22
     676:	70 93 95 03 	sts	0x0395, r23
     67a:	80 93 96 03 	sts	0x0396, r24
     67e:	90 93 97 03 	sts	0x0397, r25
	//lcd_gotoxy(0,0);
	//lcd_putsint(Read_ADC(0,0x00),4); //only for test
	if (div4>=4)
     682:	20 91 a8 03 	lds	r18, 0x03A8
     686:	24 30       	cpi	r18, 0x04	; 4
     688:	08 f4       	brcc	.+2      	; 0x68c <__vector_7+0x92>
     68a:	9f c0       	rjmp	.+318    	; 0x7ca <__vector_7+0x1d0>
	{
		i_time = i_time + 1;
     68c:	c0 90 b9 03 	lds	r12, 0x03B9
     690:	d0 90 ba 03 	lds	r13, 0x03BA
     694:	e0 90 bb 03 	lds	r14, 0x03BB
     698:	f0 90 bc 03 	lds	r15, 0x03BC
     69c:	2f ef       	ldi	r18, 0xFF	; 255
     69e:	c2 1a       	sub	r12, r18
     6a0:	d2 0a       	sbc	r13, r18
     6a2:	e2 0a       	sbc	r14, r18
     6a4:	f2 0a       	sbc	r15, r18
     6a6:	c0 92 b9 03 	sts	0x03B9, r12
     6aa:	d0 92 ba 03 	sts	0x03BA, r13
     6ae:	e0 92 bb 03 	sts	0x03BB, r14
     6b2:	f0 92 bc 03 	sts	0x03BC, r15
		Global_temperature = round(temp_buffer / 4.0);
     6b6:	20 e0       	ldi	r18, 0x00	; 0
     6b8:	30 e0       	ldi	r19, 0x00	; 0
     6ba:	40 e8       	ldi	r20, 0x80	; 128
     6bc:	5e e3       	ldi	r21, 0x3E	; 62
     6be:	0e 94 f2 11 	call	0x23e4	; 0x23e4 <__mulsf3>
     6c2:	0e 94 55 12 	call	0x24aa	; 0x24aa <round>
     6c6:	6b 01       	movw	r12, r22
     6c8:	7c 01       	movw	r14, r24
     6ca:	60 93 90 03 	sts	0x0390, r22
     6ce:	70 93 91 03 	sts	0x0391, r23
     6d2:	80 93 92 03 	sts	0x0392, r24
     6d6:	90 93 93 03 	sts	0x0393, r25
		//Global_temperature = stable_temp(Global_temperature);
		temp_calc_nominator = (ratio_end - ratio_start) * (Global_temperature - start_temp);
     6da:	80 91 9c 03 	lds	r24, 0x039C
     6de:	90 91 9d 03 	lds	r25, 0x039D
     6e2:	a0 91 9e 03 	lds	r26, 0x039E
     6e6:	b0 91 9f 03 	lds	r27, 0x039F
     6ea:	89 83       	std	Y+1, r24	; 0x01
     6ec:	9a 83       	std	Y+2, r25	; 0x02
     6ee:	ab 83       	std	Y+3, r26	; 0x03
     6f0:	bc 83       	std	Y+4, r27	; 0x04
     6f2:	40 90 a4 03 	lds	r4, 0x03A4
     6f6:	50 90 a5 03 	lds	r5, 0x03A5
     6fa:	60 90 a6 03 	lds	r6, 0x03A6
     6fe:	70 90 a7 03 	lds	r7, 0x03A7
     702:	9c 01       	movw	r18, r24
     704:	ad 01       	movw	r20, r26
     706:	60 91 98 03 	lds	r22, 0x0398
     70a:	70 91 99 03 	lds	r23, 0x0399
     70e:	80 91 9a 03 	lds	r24, 0x039A
     712:	90 91 9b 03 	lds	r25, 0x039B
     716:	0e 94 3e 10 	call	0x207c	; 0x207c <__subsf3>
     71a:	4b 01       	movw	r8, r22
     71c:	5c 01       	movw	r10, r24
     71e:	a3 01       	movw	r20, r6
     720:	92 01       	movw	r18, r4
     722:	c7 01       	movw	r24, r14
     724:	b6 01       	movw	r22, r12
     726:	0e 94 3e 10 	call	0x207c	; 0x207c <__subsf3>
     72a:	9b 01       	movw	r18, r22
     72c:	ac 01       	movw	r20, r24
     72e:	c5 01       	movw	r24, r10
     730:	b4 01       	movw	r22, r8
     732:	0e 94 f2 11 	call	0x23e4	; 0x23e4 <__mulsf3>
     736:	4b 01       	movw	r8, r22
     738:	5c 01       	movw	r10, r24
     73a:	60 93 88 03 	sts	0x0388, r22
     73e:	70 93 89 03 	sts	0x0389, r23
     742:	80 93 8a 03 	sts	0x038A, r24
     746:	90 93 8b 03 	sts	0x038B, r25
		temp_calc_denominator = (end_temp - start_temp);
     74a:	a3 01       	movw	r20, r6
     74c:	92 01       	movw	r18, r4
     74e:	60 91 a0 03 	lds	r22, 0x03A0
     752:	70 91 a1 03 	lds	r23, 0x03A1
     756:	80 91 a2 03 	lds	r24, 0x03A2
     75a:	90 91 a3 03 	lds	r25, 0x03A3
     75e:	0e 94 3e 10 	call	0x207c	; 0x207c <__subsf3>
     762:	9b 01       	movw	r18, r22
     764:	ac 01       	movw	r20, r24
     766:	60 93 84 03 	sts	0x0384, r22
     76a:	70 93 85 03 	sts	0x0385, r23
     76e:	80 93 86 03 	sts	0x0386, r24
     772:	90 93 87 03 	sts	0x0387, r25
		final_temp = Global_temperature * (((temp_calc_nominator/temp_calc_denominator) + ratio_start) / 100.0);
     776:	c5 01       	movw	r24, r10
     778:	b4 01       	movw	r22, r8
     77a:	0e 94 a7 10 	call	0x214e	; 0x214e <__divsf3>
     77e:	9b 01       	movw	r18, r22
     780:	ac 01       	movw	r20, r24
     782:	69 81       	ldd	r22, Y+1	; 0x01
     784:	7a 81       	ldd	r23, Y+2	; 0x02
     786:	8b 81       	ldd	r24, Y+3	; 0x03
     788:	9c 81       	ldd	r25, Y+4	; 0x04
     78a:	0e 94 3f 10 	call	0x207e	; 0x207e <__addsf3>
     78e:	20 e0       	ldi	r18, 0x00	; 0
     790:	30 e0       	ldi	r19, 0x00	; 0
     792:	48 ec       	ldi	r20, 0xC8	; 200
     794:	52 e4       	ldi	r21, 0x42	; 66
     796:	0e 94 a7 10 	call	0x214e	; 0x214e <__divsf3>
     79a:	9b 01       	movw	r18, r22
     79c:	ac 01       	movw	r20, r24
     79e:	c7 01       	movw	r24, r14
     7a0:	b6 01       	movw	r22, r12
     7a2:	0e 94 f2 11 	call	0x23e4	; 0x23e4 <__mulsf3>
     7a6:	60 93 8c 03 	sts	0x038C, r22
     7aa:	70 93 8d 03 	sts	0x038D, r23
     7ae:	80 93 8e 03 	sts	0x038E, r24
     7b2:	90 93 8f 03 	sts	0x038F, r25
		//final_temp = Global_temperature;//only for test perpose
		temp_buffer = 0.0;
     7b6:	10 92 94 03 	sts	0x0394, r1
     7ba:	10 92 95 03 	sts	0x0395, r1
     7be:	10 92 96 03 	sts	0x0396, r1
     7c2:	10 92 97 03 	sts	0x0397, r1
		div4 = 0x00;
     7c6:	10 92 a8 03 	sts	0x03A8, r1
	}
}
     7ca:	0f 90       	pop	r0
     7cc:	0f 90       	pop	r0
     7ce:	0f 90       	pop	r0
     7d0:	0f 90       	pop	r0
     7d2:	df 91       	pop	r29
     7d4:	cf 91       	pop	r28
     7d6:	ff 91       	pop	r31
     7d8:	ef 91       	pop	r30
     7da:	bf 91       	pop	r27
     7dc:	af 91       	pop	r26
     7de:	9f 91       	pop	r25
     7e0:	8f 91       	pop	r24
     7e2:	7f 91       	pop	r23
     7e4:	6f 91       	pop	r22
     7e6:	5f 91       	pop	r21
     7e8:	4f 91       	pop	r20
     7ea:	3f 91       	pop	r19
     7ec:	2f 91       	pop	r18
     7ee:	ff 90       	pop	r15
     7f0:	ef 90       	pop	r14
     7f2:	df 90       	pop	r13
     7f4:	cf 90       	pop	r12
     7f6:	bf 90       	pop	r11
     7f8:	af 90       	pop	r10
     7fa:	9f 90       	pop	r9
     7fc:	8f 90       	pop	r8
     7fe:	7f 90       	pop	r7
     800:	6f 90       	pop	r6
     802:	5f 90       	pop	r5
     804:	4f 90       	pop	r4
     806:	0f 90       	pop	r0
     808:	0f be       	out	0x3f, r0	; 63
     80a:	0f 90       	pop	r0
     80c:	1f 90       	pop	r1
     80e:	18 95       	reti

00000810 <main>:

int main(void)
{
     810:	cf 93       	push	r28
     812:	df 93       	push	r29
     814:	cd b7       	in	r28, 0x3d	; 61
     816:	de b7       	in	r29, 0x3e	; 62
     818:	a2 97       	sbiw	r28, 0x22	; 34
     81a:	0f b6       	in	r0, 0x3f	; 63
     81c:	f8 94       	cli
     81e:	de bf       	out	0x3e, r29	; 62
     820:	0f be       	out	0x3f, r0	; 63
     822:	cd bf       	out	0x3d, r28	; 61
	uint32_t kp_val=0, water=0, temp=0, time=0;
	uint32_t water_read=0, temp_read=0, time_read=0;
	uint8_t input_f=0, mxpos=6, kp_input=0, y_pos=0;
	
	DDRB |= (1<<PB0)|(1<<PB1)|(1<<PB2);
     824:	87 b3       	in	r24, 0x17	; 23
     826:	87 60       	ori	r24, 0x07	; 7
     828:	87 bb       	out	0x17, r24	; 23
	DDRC = 0xFF;
     82a:	8f ef       	ldi	r24, 0xFF	; 255
     82c:	84 bb       	out	0x14, r24	; 20
	DDRA = 0xFE;
     82e:	8e ef       	ldi	r24, 0xFE	; 254
     830:	8a bb       	out	0x1a, r24	; 26
#include <avr/io.h>
#include <util/delay.h>

void adc_init(unsigned char AD_PRSCL)
{
	ADCSRA=0x80 | AD_PRSCL;
     832:	85 e8       	ldi	r24, 0x85	; 133
     834:	86 b9       	out	0x06, r24	; 6
	
	adc_init(5);
	lcd_init();
     836:	0e 94 8c 00 	call	0x118	; 0x118 <lcd_init>
	keypad_init();
     83a:	0e 94 5e 02 	call	0x4bc	; 0x4bc <keypad_init>
	
	TCCR1A=0x00;
     83e:	1f bc       	out	0x2f, r1	; 47
	TCCR1B=0x0C;		//Timer counter 1 initialization with CTC and interrupt mode with Compare match OCR1A
     840:	8c e0       	ldi	r24, 0x0C	; 12
     842:	8e bd       	out	0x2e, r24	; 46
	OCR1AH=0x0F;  //3d09
     844:	8f e0       	ldi	r24, 0x0F	; 15
     846:	8b bd       	out	0x2b, r24	; 43
	OCR1AL=0x42;
     848:	82 e4       	ldi	r24, 0x42	; 66
     84a:	8a bd       	out	0x2a, r24	; 42
	
	GICR |= (1<<INT0);				// Enable INT2
     84c:	8b b7       	in	r24, 0x3b	; 59
     84e:	80 64       	ori	r24, 0x40	; 64
     850:	8b bf       	out	0x3b, r24	; 59
	MCUCSR |= 0x00;					// Trigger INT2 settings
     852:	84 b7       	in	r24, 0x34	; 52
     854:	84 bf       	out	0x34, r24	; 52
	MCUCR |= (1<<ISC01)|(1<<ISC00);	//trigger int0 on rising edge
     856:	85 b7       	in	r24, 0x35	; 53
     858:	83 60       	ori	r24, 0x03	; 3
     85a:	85 bf       	out	0x35, r24	; 53
	GIFR = (1<<INTF0);				//Interrupt flag 2 is cleared by writing a logical one into INTF2
     85c:	80 e4       	ldi	r24, 0x40	; 64
     85e:	8a bf       	out	0x3a, r24	; 58
	TIMSK=0x10;						//Timer/Counter1, Output Compare A Match Interrupt Enable
     860:	80 e1       	ldi	r24, 0x10	; 16
     862:	89 bf       	out	0x39, r24	; 57
	sei();							//Global Interrupt enable
     864:	78 94       	sei
	
	wdt_enable(WDTO_500MS);
     866:	2d e0       	ldi	r18, 0x0D	; 13
     868:	88 e1       	ldi	r24, 0x18	; 24
     86a:	90 e0       	ldi	r25, 0x00	; 0
     86c:	0f b6       	in	r0, 0x3f	; 63
     86e:	f8 94       	cli
     870:	a8 95       	wdr
     872:	81 bd       	out	0x21, r24	; 33
     874:	0f be       	out	0x3f, r0	; 63
     876:	21 bd       	out	0x21, r18	; 33

int main(void)
{
	uint32_t kp_val=0, water=0, temp=0, time=0;
	uint32_t water_read=0, temp_read=0, time_read=0;
	uint8_t input_f=0, mxpos=6, kp_input=0, y_pos=0;
     878:	31 2c       	mov	r3, r1
     87a:	0f 2e       	mov	r0, r31
     87c:	f6 e0       	ldi	r31, 0x06	; 6
     87e:	6f 2e       	mov	r6, r31
     880:	f0 2d       	mov	r31, r0
}

int main(void)
{
	uint32_t kp_val=0, water=0, temp=0, time=0;
	uint32_t water_read=0, temp_read=0, time_read=0;
     882:	19 8a       	std	Y+17, r1	; 0x11
     884:	1a 8a       	std	Y+18, r1	; 0x12
     886:	1b 8a       	std	Y+19, r1	; 0x13
     888:	1c 8a       	std	Y+20, r1	; 0x14
	}
}

int main(void)
{
	uint32_t kp_val=0, water=0, temp=0, time=0;
     88a:	19 86       	std	Y+9, r1	; 0x09
     88c:	1a 86       	std	Y+10, r1	; 0x0a
     88e:	1b 86       	std	Y+11, r1	; 0x0b
     890:	1c 86       	std	Y+12, r1	; 0x0c
     892:	81 2c       	mov	r8, r1
     894:	91 2c       	mov	r9, r1
     896:	54 01       	movw	r10, r8
     898:	c1 2c       	mov	r12, r1
     89a:	d1 2c       	mov	r13, r1
     89c:	76 01       	movw	r14, r12
			mxpos = 6;
			lcd_gotoxy(2,6);
			lcd_puts("    ");
			lcd_gotoxy(2,6);
			lcd_cmd(0x0D);
			kp_val = 0;
     89e:	1d 86       	std	Y+13, r1	; 0x0d
     8a0:	1e 86       	std	Y+14, r1	; 0x0e
     8a2:	1f 86       	std	Y+15, r1	; 0x0f
     8a4:	18 8a       	std	Y+16, r1	; 0x10
     8a6:	71 2c       	mov	r7, r1
     8a8:	00 e0       	ldi	r16, 0x00	; 0
     8aa:	21 2c       	mov	r2, r1
     8ac:	89 82       	std	Y+1, r8	; 0x01
     8ae:	9a 82       	std	Y+2, r9	; 0x02
     8b0:	ab 82       	std	Y+3, r10	; 0x03
     8b2:	bc 82       	std	Y+4, r11	; 0x04
     8b4:	6d 8a       	std	Y+21, r6	; 0x15
     8b6:	3e 8a       	std	Y+22, r3	; 0x16
     8b8:	b7 2c       	mov	r11, r7
     8ba:	12 c0       	rjmp	.+36     	; 0x8e0 <__stack+0x81>
     8bc:	ad 8a       	std	Y+21, r10	; 0x15
     8be:	1e 8b       	std	Y+22, r17	; 0x16
	lcd_puts("#> MANUAL INPUT");
	lcd_gotoxy(3,0);
	lcd_puts("*> BACK");
	
	water = 0;
	temp = 0;
     8c0:	19 86       	std	Y+9, r1	; 0x09
     8c2:	1a 86       	std	Y+10, r1	; 0x0a
     8c4:	1b 86       	std	Y+11, r1	; 0x0b
     8c6:	1c 86       	std	Y+12, r1	; 0x0c
	lcd_gotoxy(2,0);
	lcd_puts("#> MANUAL INPUT");
	lcd_gotoxy(3,0);
	lcd_puts("*> BACK");
	
	water = 0;
     8c8:	19 82       	std	Y+1, r1	; 0x01
     8ca:	1a 82       	std	Y+2, r1	; 0x02
     8cc:	1b 82       	std	Y+3, r1	; 0x03
     8ce:	1c 82       	std	Y+4, r1	; 0x04
     8d0:	07 c0       	rjmp	.+14     	; 0x8e0 <__stack+0x81>
     8d2:	b1 2e       	mov	r11, r17
     8d4:	05 c0       	rjmp	.+10     	; 0x8e0 <__stack+0x81>
     8d6:	49 82       	std	Y+1, r4	; 0x01
     8d8:	5a 82       	std	Y+2, r5	; 0x02
     8da:	6b 82       	std	Y+3, r6	; 0x03
     8dc:	7c 82       	std	Y+4, r7	; 0x04
     8de:	1e 8b       	std	Y+22, r17	; 0x16
**************************************************************************************************
***************************************************************************************************************
*/
start_pgm:
	// keep off all relay at the start point 
	PORTB &= ~((1<<PB0)|(1<<PB1)|(1<<PB2));	
     8e0:	88 b3       	in	r24, 0x18	; 24
     8e2:	88 7f       	andi	r24, 0xF8	; 248
     8e4:	88 bb       	out	0x18, r24	; 24
	
	//updating the variable from eeprom
	passkey = eeprom_read_dword(&passkey_hold);
     8e6:	84 e1       	ldi	r24, 0x14	; 20
     8e8:	90 e0       	ldi	r25, 0x00	; 0
     8ea:	0e 94 09 13 	call	0x2612	; 0x2612 <__eerd_dword_m32>
     8ee:	60 93 bd 03 	sts	0x03BD, r22
     8f2:	70 93 be 03 	sts	0x03BE, r23
     8f6:	80 93 bf 03 	sts	0x03BF, r24
     8fa:	90 93 c0 03 	sts	0x03C0, r25
	start_temp = eeprom_read_float(&start_temp_hold);
     8fe:	8c e0       	ldi	r24, 0x0C	; 12
     900:	90 e0       	ldi	r25, 0x00	; 0
     902:	0e 94 09 13 	call	0x2612	; 0x2612 <__eerd_dword_m32>
     906:	60 93 a4 03 	sts	0x03A4, r22
     90a:	70 93 a5 03 	sts	0x03A5, r23
     90e:	80 93 a6 03 	sts	0x03A6, r24
     912:	90 93 a7 03 	sts	0x03A7, r25
	end_temp = eeprom_read_float(&end_temp_hold);
     916:	88 e0       	ldi	r24, 0x08	; 8
     918:	90 e0       	ldi	r25, 0x00	; 0
     91a:	0e 94 09 13 	call	0x2612	; 0x2612 <__eerd_dword_m32>
     91e:	60 93 a0 03 	sts	0x03A0, r22
     922:	70 93 a1 03 	sts	0x03A1, r23
     926:	80 93 a2 03 	sts	0x03A2, r24
     92a:	90 93 a3 03 	sts	0x03A3, r25
	ratio_start = eeprom_read_float(&ratio_start_hold);
     92e:	84 e0       	ldi	r24, 0x04	; 4
     930:	90 e0       	ldi	r25, 0x00	; 0
     932:	0e 94 09 13 	call	0x2612	; 0x2612 <__eerd_dword_m32>
     936:	60 93 9c 03 	sts	0x039C, r22
     93a:	70 93 9d 03 	sts	0x039D, r23
     93e:	80 93 9e 03 	sts	0x039E, r24
     942:	90 93 9f 03 	sts	0x039F, r25
	ratio_end = eeprom_read_float(&ratio_end_hold);
     946:	80 e0       	ldi	r24, 0x00	; 0
     948:	90 e0       	ldi	r25, 0x00	; 0
     94a:	0e 94 09 13 	call	0x2612	; 0x2612 <__eerd_dword_m32>
     94e:	60 93 98 03 	sts	0x0398, r22
     952:	70 93 99 03 	sts	0x0399, r23
     956:	80 93 9a 03 	sts	0x039A, r24
     95a:	90 93 9b 03 	sts	0x039B, r25
	water_flow_divider = eeprom_read_dword(&water_flow_divider_hold);
     95e:	80 e1       	ldi	r24, 0x10	; 16
     960:	90 e0       	ldi	r25, 0x00	; 0
     962:	0e 94 09 13 	call	0x2612	; 0x2612 <__eerd_dword_m32>
     966:	60 93 a9 03 	sts	0x03A9, r22
     96a:	70 93 aa 03 	sts	0x03AA, r23
     96e:	80 93 ab 03 	sts	0x03AB, r24
     972:	90 93 ac 03 	sts	0x03AC, r25

	//Welcome message and startup
	lcd_clear();
     976:	0e 94 88 00 	call	0x110	; 0x110 <lcd_clear>
	lcd_gotoxy(0,15);
     97a:	6f e0       	ldi	r22, 0x0F	; 15
     97c:	80 e0       	ldi	r24, 0x00	; 0
     97e:	0e 94 d5 00 	call	0x1aa	; 0x1aa <lcd_gotoxy>
	lcd_puts("ASTEX");
     982:	80 e6       	ldi	r24, 0x60	; 96
     984:	90 e0       	ldi	r25, 0x00	; 0
     986:	0e 94 1b 01 	call	0x236	; 0x236 <lcd_puts>
	lcd_gotoxy(1,0);
     98a:	60 e0       	ldi	r22, 0x00	; 0
     98c:	81 e0       	ldi	r24, 0x01	; 1
     98e:	0e 94 d5 00 	call	0x1aa	; 0x1aa <lcd_gotoxy>
	lcd_puts("TEMPERATURE:    C");
     992:	86 e6       	ldi	r24, 0x66	; 102
     994:	90 e0       	ldi	r25, 0x00	; 0
     996:	0e 94 1b 01 	call	0x236	; 0x236 <lcd_puts>
	lcd_gotoxy(2,0);
     99a:	60 e0       	ldi	r22, 0x00	; 0
     99c:	82 e0       	ldi	r24, 0x02	; 2
     99e:	0e 94 d5 00 	call	0x1aa	; 0x1aa <lcd_gotoxy>
	lcd_puts("*> SETTINGS");
     9a2:	89 e7       	ldi	r24, 0x79	; 121
     9a4:	90 e0       	ldi	r25, 0x00	; 0
     9a6:	0e 94 1b 01 	call	0x236	; 0x236 <lcd_puts>
	lcd_gotoxy(3,0);
     9aa:	60 e0       	ldi	r22, 0x00	; 0
     9ac:	83 e0       	ldi	r24, 0x03	; 3
     9ae:	0e 94 d5 00 	call	0x1aa	; 0x1aa <lcd_gotoxy>
	lcd_puts("#> START TASK");
     9b2:	85 e8       	ldi	r24, 0x85	; 133
     9b4:	90 e0       	ldi	r25, 0x00	; 0
     9b6:	0e 94 1b 01 	call	0x236	; 0x236 <lcd_puts>
     9ba:	ad 88       	ldd	r10, Y+21	; 0x15
     9bc:	1e 89       	ldd	r17, Y+22	; 0x16
	
	while(scan_kpd_4x4());
     9be:	0e 94 63 02 	call	0x4c6	; 0x4c6 <scan_kpd_4x4>
     9c2:	89 2b       	or	r24, r25
     9c4:	e1 f7       	brne	.-8      	; 0x9be <__stack+0x15f>
     9c6:	ad 8a       	std	Y+21, r10	; 0x15
     9c8:	1e 8b       	std	Y+22, r17	; 0x16
     9ca:	5f e7       	ldi	r21, 0x7F	; 127
     9cc:	88 e3       	ldi	r24, 0x38	; 56
     9ce:	91 e0       	ldi	r25, 0x01	; 1
     9d0:	51 50       	subi	r21, 0x01	; 1
     9d2:	80 40       	sbci	r24, 0x00	; 0
     9d4:	90 40       	sbci	r25, 0x00	; 0
     9d6:	e1 f7       	brne	.-8      	; 0x9d0 <__stack+0x171>
     9d8:	00 c0       	rjmp	.+0      	; 0x9da <__stack+0x17b>
     9da:	00 00       	nop
     9dc:	ad 88       	ldd	r10, Y+21	; 0x15
     9de:	1e 89       	ldd	r17, Y+22	; 0x16
	_delay_ms(100);
    while(1)
    {
		if (compare_time != i_time)
     9e0:	40 91 b5 03 	lds	r20, 0x03B5
     9e4:	50 91 b6 03 	lds	r21, 0x03B6
     9e8:	60 91 b7 03 	lds	r22, 0x03B7
     9ec:	70 91 b8 03 	lds	r23, 0x03B8
     9f0:	80 91 b9 03 	lds	r24, 0x03B9
     9f4:	90 91 ba 03 	lds	r25, 0x03BA
     9f8:	a0 91 bb 03 	lds	r26, 0x03BB
     9fc:	b0 91 bc 03 	lds	r27, 0x03BC
     a00:	48 17       	cp	r20, r24
     a02:	59 07       	cpc	r21, r25
     a04:	6a 07       	cpc	r22, r26
     a06:	7b 07       	cpc	r23, r27
     a08:	d1 f1       	breq	.+116    	; 0xa7e <__stack+0x21f>
		{
			lcd_gotoxy(1,12);
     a0a:	6c e0       	ldi	r22, 0x0C	; 12
     a0c:	81 e0       	ldi	r24, 0x01	; 1
     a0e:	0e 94 d5 00 	call	0x1aa	; 0x1aa <lcd_gotoxy>
			if (Global_temperature == 2000)
     a12:	20 e0       	ldi	r18, 0x00	; 0
     a14:	30 e0       	ldi	r19, 0x00	; 0
     a16:	4a ef       	ldi	r20, 0xFA	; 250
     a18:	54 e4       	ldi	r21, 0x44	; 68
     a1a:	60 91 90 03 	lds	r22, 0x0390
     a1e:	70 91 91 03 	lds	r23, 0x0391
     a22:	80 91 92 03 	lds	r24, 0x0392
     a26:	90 91 93 03 	lds	r25, 0x0393
     a2a:	0e 94 a3 10 	call	0x2146	; 0x2146 <__cmpsf2>
     a2e:	81 11       	cpse	r24, r1
     a30:	05 c0       	rjmp	.+10     	; 0xa3c <__stack+0x1dd>
			{
				lcd_puts("TCNC!!");
     a32:	83 e9       	ldi	r24, 0x93	; 147
     a34:	90 e0       	ldi	r25, 0x00	; 0
     a36:	0e 94 1b 01 	call	0x236	; 0x236 <lcd_puts>
     a3a:	11 c0       	rjmp	.+34     	; 0xa5e <__stack+0x1ff>
			}
			else
			{
				
				lcd_putsint(final_temp,4);
     a3c:	60 91 8c 03 	lds	r22, 0x038C
     a40:	70 91 8d 03 	lds	r23, 0x038D
     a44:	80 91 8e 03 	lds	r24, 0x038E
     a48:	90 91 8f 03 	lds	r25, 0x038F
     a4c:	0e 94 0f 11 	call	0x221e	; 0x221e <__fixsfsi>
     a50:	44 e0       	ldi	r20, 0x04	; 4
     a52:	0e 94 b7 01 	call	0x36e	; 0x36e <lcd_putsint>
				lcd_puts("C");
     a56:	8a e9       	ldi	r24, 0x9A	; 154
     a58:	92 e0       	ldi	r25, 0x02	; 2
     a5a:	0e 94 1b 01 	call	0x236	; 0x236 <lcd_puts>
			}
			compare_time = i_time;
     a5e:	80 91 b9 03 	lds	r24, 0x03B9
     a62:	90 91 ba 03 	lds	r25, 0x03BA
     a66:	a0 91 bb 03 	lds	r26, 0x03BB
     a6a:	b0 91 bc 03 	lds	r27, 0x03BC
     a6e:	80 93 b5 03 	sts	0x03B5, r24
     a72:	90 93 b6 03 	sts	0x03B6, r25
     a76:	a0 93 b7 03 	sts	0x03B7, r26
     a7a:	b0 93 b8 03 	sts	0x03B8, r27
		}
		if ((kp_input = scan_kpd_4x4()))  //scan for keypad data
     a7e:	0e 94 63 02 	call	0x4c6	; 0x4c6 <scan_kpd_4x4>
     a82:	88 23       	and	r24, r24
     a84:	09 f4       	brne	.+2      	; 0xa88 <__stack+0x229>
     a86:	ac cf       	rjmp	.-168    	; 0x9e0 <__stack+0x181>
		{
			if (kp_input == 12)
     a88:	8c 30       	cpi	r24, 0x0C	; 12
     a8a:	49 f0       	breq	.+18     	; 0xa9e <__stack+0x23f>
			{
				break;
			}
			else if (kp_input == 11)
     a8c:	8b 30       	cpi	r24, 0x0B	; 11
     a8e:	09 f0       	breq	.+2      	; 0xa92 <__stack+0x233>
     a90:	a7 cf       	rjmp	.-178    	; 0x9e0 <__stack+0x181>
     a92:	b0 c0       	rjmp	.+352    	; 0xbf4 <__stack+0x395>
     a94:	ad 88       	ldd	r10, Y+21	; 0x15
     a96:	1e 89       	ldd	r17, Y+22	; 0x16
     a98:	02 c0       	rjmp	.+4      	; 0xa9e <__stack+0x23f>
     a9a:	ad 88       	ldd	r10, Y+21	; 0x15
     a9c:	1e 89       	ldd	r17, Y+22	; 0x16
				goto manual_operation;
			}
		}
    }
optin_select:
	lcd_clear();
     a9e:	0e 94 88 00 	call	0x110	; 0x110 <lcd_clear>
	lcd_gotoxy(0,15);
     aa2:	6f e0       	ldi	r22, 0x0F	; 15
     aa4:	80 e0       	ldi	r24, 0x00	; 0
     aa6:	0e 94 d5 00 	call	0x1aa	; 0x1aa <lcd_gotoxy>
	lcd_puts("ASTEX");
     aaa:	80 e6       	ldi	r24, 0x60	; 96
     aac:	90 e0       	ldi	r25, 0x00	; 0
     aae:	0e 94 1b 01 	call	0x236	; 0x236 <lcd_puts>
	lcd_gotoxy(1,0);
     ab2:	60 e0       	ldi	r22, 0x00	; 0
     ab4:	81 e0       	ldi	r24, 0x01	; 1
     ab6:	0e 94 d5 00 	call	0x1aa	; 0x1aa <lcd_gotoxy>
	lcd_puts("C> CHOOSE INPUT");
     aba:	8a e9       	ldi	r24, 0x9A	; 154
     abc:	90 e0       	ldi	r25, 0x00	; 0
     abe:	0e 94 1b 01 	call	0x236	; 0x236 <lcd_puts>
	lcd_gotoxy(2,0);
     ac2:	60 e0       	ldi	r22, 0x00	; 0
     ac4:	82 e0       	ldi	r24, 0x02	; 2
     ac6:	0e 94 d5 00 	call	0x1aa	; 0x1aa <lcd_gotoxy>
	lcd_puts("#> MANUAL INPUT");
     aca:	8a ea       	ldi	r24, 0xAA	; 170
     acc:	90 e0       	ldi	r25, 0x00	; 0
     ace:	0e 94 1b 01 	call	0x236	; 0x236 <lcd_puts>
	lcd_gotoxy(3,0);
     ad2:	60 e0       	ldi	r22, 0x00	; 0
     ad4:	83 e0       	ldi	r24, 0x03	; 3
     ad6:	0e 94 d5 00 	call	0x1aa	; 0x1aa <lcd_gotoxy>
	lcd_puts("*> BACK");
     ada:	8a eb       	ldi	r24, 0xBA	; 186
     adc:	90 e0       	ldi	r25, 0x00	; 0
     ade:	0e 94 1b 01 	call	0x236	; 0x236 <lcd_puts>
	
	water = 0;
	temp = 0;
	time = 0;
	
	while(scan_kpd_4x4());
     ae2:	0e 94 63 02 	call	0x4c6	; 0x4c6 <scan_kpd_4x4>
     ae6:	89 2b       	or	r24, r25
     ae8:	e1 f7       	brne	.-8      	; 0xae2 <__stack+0x283>
     aea:	af e7       	ldi	r26, 0x7F	; 127
     aec:	b8 e3       	ldi	r27, 0x38	; 56
     aee:	e1 e0       	ldi	r30, 0x01	; 1
     af0:	a1 50       	subi	r26, 0x01	; 1
     af2:	b0 40       	sbci	r27, 0x00	; 0
     af4:	e0 40       	sbci	r30, 0x00	; 0
     af6:	e1 f7       	brne	.-8      	; 0xaf0 <__stack+0x291>
     af8:	00 c0       	rjmp	.+0      	; 0xafa <__stack+0x29b>
     afa:	00 00       	nop
	_delay_ms(100);
	while(1)
	{
		if ((kp_input = scan_kpd_4x4()))  //scan for keypad data
     afc:	0e 94 63 02 	call	0x4c6	; 0x4c6 <scan_kpd_4x4>
     b00:	88 23       	and	r24, r24
     b02:	e1 f3       	breq	.-8      	; 0xafc <__stack+0x29d>
		{
			if (kp_input == 11)
     b04:	8b 30       	cpi	r24, 0x0B	; 11
     b06:	09 f4       	brne	.+2      	; 0xb0a <__stack+0x2ab>
     b08:	d9 ce       	rjmp	.-590    	; 0x8bc <__stack+0x5d>
			{
				goto start_pgm;
			}
			else if (kp_input == 15)
     b0a:	8f 30       	cpi	r24, 0x0F	; 15
     b0c:	81 f1       	breq	.+96     	; 0xb6e <__stack+0x30f>
			{
				goto selection;
			}
			else if (kp_input == 12)
     b0e:	8c 30       	cpi	r24, 0x0C	; 12
     b10:	a9 f7       	brne	.-22     	; 0xafc <__stack+0x29d>
     b12:	ad 8a       	std	Y+21, r10	; 0x15
     b14:	1e 8b       	std	Y+22, r17	; 0x16
	}
	
//for manual input show the button
pre_manual_operation:
	input_f = 1;
	lcd_clear();
     b16:	0e 94 88 00 	call	0x110	; 0x110 <lcd_clear>
	lcd_gotoxy(0,0);
     b1a:	60 e0       	ldi	r22, 0x00	; 0
     b1c:	80 e0       	ldi	r24, 0x00	; 0
     b1e:	0e 94 d5 00 	call	0x1aa	; 0x1aa <lcd_gotoxy>
	lcd_puts("WATER:    Liter");
     b22:	8e e0       	ldi	r24, 0x0E	; 14
     b24:	91 e0       	ldi	r25, 0x01	; 1
     b26:	0e 94 1b 01 	call	0x236	; 0x236 <lcd_puts>
	lcd_gotoxy(1,0);
     b2a:	60 e0       	ldi	r22, 0x00	; 0
     b2c:	81 e0       	ldi	r24, 0x01	; 1
     b2e:	0e 94 d5 00 	call	0x1aa	; 0x1aa <lcd_gotoxy>
	lcd_puts("TEMP.:    C");
     b32:	8e e1       	ldi	r24, 0x1E	; 30
     b34:	91 e0       	ldi	r25, 0x01	; 1
     b36:	0e 94 1b 01 	call	0x236	; 0x236 <lcd_puts>
	lcd_gotoxy(2,0);
     b3a:	60 e0       	ldi	r22, 0x00	; 0
     b3c:	82 e0       	ldi	r24, 0x02	; 2
     b3e:	0e 94 d5 00 	call	0x1aa	; 0x1aa <lcd_gotoxy>
	lcd_puts("TIME :    minute");
     b42:	8b e2       	ldi	r24, 0x2B	; 43
     b44:	91 e0       	ldi	r25, 0x01	; 1
     b46:	0e 94 1b 01 	call	0x236	; 0x236 <lcd_puts>
	lcd_gotoxy(3,0);
     b4a:	60 e0       	ldi	r22, 0x00	; 0
     b4c:	83 e0       	ldi	r24, 0x03	; 3
     b4e:	0e 94 d5 00 	call	0x1aa	; 0x1aa <lcd_gotoxy>
	lcd_puts("*>BACK D>DEL. #>NEXT");
     b52:	8c e3       	ldi	r24, 0x3C	; 60
     b54:	91 e0       	ldi	r25, 0x01	; 1
     b56:	0e 94 1b 01 	call	0x236	; 0x236 <lcd_puts>
		}
	}
	
//for manual input show the button
pre_manual_operation:
	input_f = 1;
     b5a:	11 e0       	ldi	r17, 0x01	; 1
	lcd_puts("#> MANUAL INPUT");
	lcd_gotoxy(3,0);
	lcd_puts("*> BACK");
	
	water = 0;
	temp = 0;
     b5c:	19 86       	std	Y+9, r1	; 0x09
     b5e:	1a 86       	std	Y+10, r1	; 0x0a
     b60:	1b 86       	std	Y+11, r1	; 0x0b
     b62:	1c 86       	std	Y+12, r1	; 0x0c
	lcd_gotoxy(2,0);
	lcd_puts("#> MANUAL INPUT");
	lcd_gotoxy(3,0);
	lcd_puts("*> BACK");
	
	water = 0;
     b64:	19 82       	std	Y+1, r1	; 0x01
     b66:	1a 82       	std	Y+2, r1	; 0x02
     b68:	1b 82       	std	Y+3, r1	; 0x03
     b6a:	1c 82       	std	Y+4, r1	; 0x04
     b6c:	46 c0       	rjmp	.+140    	; 0xbfa <__stack+0x39b>
			}
		}
	}
	
selection:
	lcd_clear();
     b6e:	0e 94 88 00 	call	0x110	; 0x110 <lcd_clear>
	lcd_gotoxy(0,0);
     b72:	60 e0       	ldi	r22, 0x00	; 0
     b74:	80 e0       	ldi	r24, 0x00	; 0
     b76:	0e 94 d5 00 	call	0x1aa	; 0x1aa <lcd_gotoxy>
	lcd_puts("A:70Lit._25C_2min");
     b7a:	82 ec       	ldi	r24, 0xC2	; 194
     b7c:	90 e0       	ldi	r25, 0x00	; 0
     b7e:	0e 94 1b 01 	call	0x236	; 0x236 <lcd_puts>
	lcd_gotoxy(1,0);
     b82:	60 e0       	ldi	r22, 0x00	; 0
     b84:	81 e0       	ldi	r24, 0x01	; 1
     b86:	0e 94 d5 00 	call	0x1aa	; 0x1aa <lcd_gotoxy>
	lcd_puts("B:70Lit._50C_2min");
     b8a:	85 ed       	ldi	r24, 0xD5	; 213
     b8c:	90 e0       	ldi	r25, 0x00	; 0
     b8e:	0e 94 1b 01 	call	0x236	; 0x236 <lcd_puts>
	lcd_gotoxy(2,0);
     b92:	60 e0       	ldi	r22, 0x00	; 0
     b94:	82 e0       	ldi	r24, 0x02	; 2
     b96:	0e 94 d5 00 	call	0x1aa	; 0x1aa <lcd_gotoxy>
	lcd_puts("C:50Lit._50C_2min");
     b9a:	88 ee       	ldi	r24, 0xE8	; 232
     b9c:	90 e0       	ldi	r25, 0x00	; 0
     b9e:	0e 94 1b 01 	call	0x236	; 0x236 <lcd_puts>
	lcd_gotoxy(3,0);
     ba2:	60 e0       	ldi	r22, 0x00	; 0
     ba4:	83 e0       	ldi	r24, 0x03	; 3
     ba6:	0e 94 d5 00 	call	0x1aa	; 0x1aa <lcd_gotoxy>
	lcd_puts("D:60Lit._50C_2min");
     baa:	8b ef       	ldi	r24, 0xFB	; 251
     bac:	90 e0       	ldi	r25, 0x00	; 0
     bae:	0e 94 1b 01 	call	0x236	; 0x236 <lcd_puts>
	
	while(scan_kpd_4x4());
     bb2:	0e 94 63 02 	call	0x4c6	; 0x4c6 <scan_kpd_4x4>
     bb6:	89 2b       	or	r24, r25
     bb8:	e1 f7       	brne	.-8      	; 0xbb2 <__stack+0x353>
     bba:	ff e7       	ldi	r31, 0x7F	; 127
     bbc:	28 e3       	ldi	r18, 0x38	; 56
     bbe:	31 e0       	ldi	r19, 0x01	; 1
     bc0:	f1 50       	subi	r31, 0x01	; 1
     bc2:	20 40       	sbci	r18, 0x00	; 0
     bc4:	30 40       	sbci	r19, 0x00	; 0
     bc6:	e1 f7       	brne	.-8      	; 0xbc0 <__stack+0x361>
     bc8:	00 c0       	rjmp	.+0      	; 0xbca <__stack+0x36b>
     bca:	00 00       	nop
	_delay_ms(100);
	while(1)
	{
		if ((kp_input = scan_kpd_4x4()))  //scan for keypad data
     bcc:	0e 94 63 02 	call	0x4c6	; 0x4c6 <scan_kpd_4x4>
     bd0:	88 23       	and	r24, r24
     bd2:	e1 f3       	breq	.-8      	; 0xbcc <__stack+0x36d>
		{
			if (kp_input == 13)
     bd4:	8d 30       	cpi	r24, 0x0D	; 13
     bd6:	09 f4       	brne	.+2      	; 0xbda <__stack+0x37b>
     bd8:	45 c5       	rjmp	.+2698   	; 0x1664 <__stack+0xe05>
				water = 70;
				temp = 25;
				time = 2;
				goto confirmation;
			}
			else if (kp_input == 14)
     bda:	8e 30       	cpi	r24, 0x0E	; 14
     bdc:	09 f4       	brne	.+2      	; 0xbe0 <__stack+0x381>
     bde:	57 c5       	rjmp	.+2734   	; 0x168e <__stack+0xe2f>
				water = 70;
				temp = 50;
				time = 2;
				goto confirmation;
			}
			else if (kp_input == 15)
     be0:	8f 30       	cpi	r24, 0x0F	; 15
     be2:	09 f4       	brne	.+2      	; 0xbe6 <__stack+0x387>
     be4:	6c c5       	rjmp	.+2776   	; 0x16be <__stack+0xe5f>
				water = 50;
				temp = 50;
				time = 2;
				goto confirmation;
			}
			else if (kp_input == 16)
     be6:	80 31       	cpi	r24, 0x10	; 16
     be8:	09 f4       	brne	.+2      	; 0xbec <__stack+0x38d>
     bea:	81 c5       	rjmp	.+2818   	; 0x16ee <__stack+0xe8f>
				water = 60;
				temp = 50;
				time = 2;
				goto confirmation;
			}
			else if (kp_input == 11 || kp_input == 12)
     bec:	8b 50       	subi	r24, 0x0B	; 11
     bee:	82 30       	cpi	r24, 0x02	; 2
     bf0:	68 f7       	brcc	.-38     	; 0xbcc <__stack+0x36d>
     bf2:	55 cf       	rjmp	.-342    	; 0xa9e <__stack+0x23f>
     bf4:	ad 8a       	std	Y+21, r10	; 0x15
     bf6:	1e 8b       	std	Y+22, r17	; 0x16
			{
				break;
			}
			else if (kp_input == 11)
			{
				input_f = 13;
     bf8:	1d e0       	ldi	r17, 0x0D	; 13
			lcd_gotoxy(2,6);
			lcd_puts("    ");
			lcd_gotoxy(2,6);
			lcd_cmd(0x0D);
			kp_val = 0;
			input_f = 14;
     bfa:	0f 2e       	mov	r0, r31
     bfc:	fe e0       	ldi	r31, 0x0E	; 14
     bfe:	9f 2e       	mov	r9, r31
     c00:	f0 2d       	mov	r31, r0
			y_pos = 2;
			mxpos = 6;
			lcd_gotoxy(2,6);
			lcd_cmd(0x0D);
			kp_val = 0;
			input_f = 10;
     c02:	0f 2e       	mov	r0, r31
     c04:	fa e0       	ldi	r31, 0x0A	; 10
     c06:	8f 2e       	mov	r8, r31
     c08:	f0 2d       	mov	r31, r0
			lcd_puts("*>BACK D>DEL. #>SAVE");
			y_pos = 2;
			mxpos = 6;
			lcd_cmd(0x0D);
			kp_val = 0;
			input_f = 8;
     c0a:	68 94       	set
     c0c:	aa 24       	eor	r10, r10
     c0e:	a3 f8       	bld	r10, 3
     c10:	49 80       	ldd	r4, Y+1	; 0x01
     c12:	5a 80       	ldd	r5, Y+2	; 0x02
     c14:	6b 80       	ldd	r6, Y+3	; 0x03
     c16:	7c 80       	ldd	r7, Y+4	; 0x04
     c18:	09 c0       	rjmp	.+18     	; 0xc2c <__stack+0x3cd>
						lcd_cmd(0x0C);
						goto optin_select;
					}
					else if (input_f == 4)
					{
						input_f = 1;
     c1a:	11 e0       	ldi	r17, 0x01	; 1
     c1c:	07 c0       	rjmp	.+14     	; 0xc2c <__stack+0x3cd>
						goto manual_operation;
					}
					else if (input_f == 6)
					{
						input_f = 3;
     c1e:	13 e0       	ldi	r17, 0x03	; 3
     c20:	05 c0       	rjmp	.+10     	; 0xc2c <__stack+0x3cd>
     c22:	1e 8b       	std	Y+22, r17	; 0x16
			{
				break;
			}
			else if (kp_input == 14)  // option b for change password
			{
				input_f = 15;
     c24:	1f e0       	ldi	r17, 0x0F	; 15
     c26:	02 c0       	rjmp	.+4      	; 0xc2c <__stack+0x3cd>
     c28:	1e 8b       	std	Y+22, r17	; 0x16
			{
				break;
			}
			else if (kp_input == 14)  // b for bypass
			{
				input_f = 7;
     c2a:	17 e0       	ldi	r17, 0x07	; 7
	lcd_puts("TIME :    minute");
	lcd_gotoxy(3,0);
	lcd_puts("*>BACK D>DEL. #>NEXT");
	
manual_operation:
	while(scan_kpd_4x4());  // to eliminate the unwanted button press
     c2c:	0e 94 63 02 	call	0x4c6	; 0x4c6 <scan_kpd_4x4>
     c30:	89 2b       	or	r24, r25
     c32:	e1 f7       	brne	.-8      	; 0xc2c <__stack+0x3cd>
     c34:	2f e7       	ldi	r18, 0x7F	; 127
     c36:	38 e3       	ldi	r19, 0x38	; 56
     c38:	41 e0       	ldi	r20, 0x01	; 1
     c3a:	21 50       	subi	r18, 0x01	; 1
     c3c:	30 40       	sbci	r19, 0x00	; 0
     c3e:	40 40       	sbci	r20, 0x00	; 0
     c40:	e1 f7       	brne	.-8      	; 0xc3a <__stack+0x3db>
     c42:	00 c0       	rjmp	.+0      	; 0xc44 <__stack+0x3e5>
     c44:	00 00       	nop
	_delay_ms(100);
	while(1)
	{
		if (input_f == 1)
     c46:	11 30       	cpi	r17, 0x01	; 1
     c48:	c1 f4       	brne	.+48     	; 0xc7a <__stack+0x41b>
		{
			y_pos = 0;
			mxpos = 6;
			lcd_gotoxy(0,6);
     c4a:	66 e0       	ldi	r22, 0x06	; 6
     c4c:	80 e0       	ldi	r24, 0x00	; 0
     c4e:	0e 94 d5 00 	call	0x1aa	; 0x1aa <lcd_gotoxy>
			lcd_puts("    ");
     c52:	8f e7       	ldi	r24, 0x7F	; 127
     c54:	93 e0       	ldi	r25, 0x03	; 3
     c56:	0e 94 1b 01 	call	0x236	; 0x236 <lcd_puts>
			lcd_gotoxy(0,6);
     c5a:	66 e0       	ldi	r22, 0x06	; 6
     c5c:	80 e0       	ldi	r24, 0x00	; 0
     c5e:	0e 94 d5 00 	call	0x1aa	; 0x1aa <lcd_gotoxy>
			lcd_cmd(0x0D);
     c62:	8d e0       	ldi	r24, 0x0D	; 13
     c64:	0e 94 5e 00 	call	0xbc	; 0xbc <lcd_cmd>
	_delay_ms(100);
	while(1)
	{
		if (input_f == 1)
		{
			y_pos = 0;
     c68:	1e 8a       	std	Y+22, r1	; 0x16
			mxpos = 6;
     c6a:	96 e0       	ldi	r25, 0x06	; 6
     c6c:	9d 8b       	std	Y+21, r25	; 0x15
			lcd_gotoxy(0,6);
			lcd_puts("    ");
			lcd_gotoxy(0,6);
			lcd_cmd(0x0D);
			kp_val = 0;
			input_f = 2;
     c6e:	12 e0       	ldi	r17, 0x02	; 2
			mxpos = 6;
			lcd_gotoxy(0,6);
			lcd_puts("    ");
			lcd_gotoxy(0,6);
			lcd_cmd(0x0D);
			kp_val = 0;
     c70:	cb 2c       	mov	r12, r11
     c72:	d3 2c       	mov	r13, r3
     c74:	e0 2e       	mov	r14, r16
     c76:	f2 2c       	mov	r15, r2
     c78:	ee c1       	rjmp	.+988    	; 0x1056 <__stack+0x7f7>
			input_f = 2;
		}
		else if (input_f == 3)
     c7a:	13 30       	cpi	r17, 0x03	; 3
     c7c:	c9 f4       	brne	.+50     	; 0xcb0 <__stack+0x451>
		{
			y_pos = 1;
			mxpos = 6;
			lcd_gotoxy(1,6);
     c7e:	66 e0       	ldi	r22, 0x06	; 6
     c80:	81 e0       	ldi	r24, 0x01	; 1
     c82:	0e 94 d5 00 	call	0x1aa	; 0x1aa <lcd_gotoxy>
			lcd_puts("    ");
     c86:	8f e7       	ldi	r24, 0x7F	; 127
     c88:	93 e0       	ldi	r25, 0x03	; 3
     c8a:	0e 94 1b 01 	call	0x236	; 0x236 <lcd_puts>
			lcd_gotoxy(1,6);
     c8e:	66 e0       	ldi	r22, 0x06	; 6
     c90:	81 e0       	ldi	r24, 0x01	; 1
     c92:	0e 94 d5 00 	call	0x1aa	; 0x1aa <lcd_gotoxy>
			lcd_cmd(0x0D);
     c96:	8d e0       	ldi	r24, 0x0D	; 13
     c98:	0e 94 5e 00 	call	0xbc	; 0xbc <lcd_cmd>
			kp_val = 0;
			input_f = 2;
		}
		else if (input_f == 3)
		{
			y_pos = 1;
     c9c:	a1 e0       	ldi	r26, 0x01	; 1
     c9e:	ae 8b       	std	Y+22, r26	; 0x16
			mxpos = 6;
     ca0:	b6 e0       	ldi	r27, 0x06	; 6
     ca2:	bd 8b       	std	Y+21, r27	; 0x15
			lcd_gotoxy(1,6);
			lcd_puts("    ");
			lcd_gotoxy(1,6);
			lcd_cmd(0x0D);
			kp_val = 0;
			input_f = 4;
     ca4:	14 e0       	ldi	r17, 0x04	; 4
			mxpos = 6;
			lcd_gotoxy(1,6);
			lcd_puts("    ");
			lcd_gotoxy(1,6);
			lcd_cmd(0x0D);
			kp_val = 0;
     ca6:	cb 2c       	mov	r12, r11
     ca8:	d3 2c       	mov	r13, r3
     caa:	e0 2e       	mov	r14, r16
     cac:	f2 2c       	mov	r15, r2
     cae:	d3 c1       	rjmp	.+934    	; 0x1056 <__stack+0x7f7>
			input_f = 4;
		}
		else if (input_f == 5)
     cb0:	15 30       	cpi	r17, 0x05	; 5
     cb2:	c9 f4       	brne	.+50     	; 0xce6 <__stack+0x487>
		{
			y_pos = 2;
			mxpos = 6;
			lcd_gotoxy(2,6);
     cb4:	66 e0       	ldi	r22, 0x06	; 6
     cb6:	82 e0       	ldi	r24, 0x02	; 2
     cb8:	0e 94 d5 00 	call	0x1aa	; 0x1aa <lcd_gotoxy>
			lcd_puts("    ");
     cbc:	8f e7       	ldi	r24, 0x7F	; 127
     cbe:	93 e0       	ldi	r25, 0x03	; 3
     cc0:	0e 94 1b 01 	call	0x236	; 0x236 <lcd_puts>
			lcd_gotoxy(2,6);
     cc4:	66 e0       	ldi	r22, 0x06	; 6
     cc6:	82 e0       	ldi	r24, 0x02	; 2
     cc8:	0e 94 d5 00 	call	0x1aa	; 0x1aa <lcd_gotoxy>
			lcd_cmd(0x0D);
     ccc:	8d e0       	ldi	r24, 0x0D	; 13
     cce:	0e 94 5e 00 	call	0xbc	; 0xbc <lcd_cmd>
			kp_val = 0;
			input_f = 4;
		}
		else if (input_f == 5)
		{
			y_pos = 2;
     cd2:	e2 e0       	ldi	r30, 0x02	; 2
     cd4:	ee 8b       	std	Y+22, r30	; 0x16
			mxpos = 6;
     cd6:	f6 e0       	ldi	r31, 0x06	; 6
     cd8:	fd 8b       	std	Y+21, r31	; 0x15
			lcd_gotoxy(2,6);
			lcd_puts("    ");
			lcd_gotoxy(2,6);
			lcd_cmd(0x0D);
			kp_val = 0;
			input_f = 6;
     cda:	16 e0       	ldi	r17, 0x06	; 6
			mxpos = 6;
			lcd_gotoxy(2,6);
			lcd_puts("    ");
			lcd_gotoxy(2,6);
			lcd_cmd(0x0D);
			kp_val = 0;
     cdc:	cb 2c       	mov	r12, r11
     cde:	d3 2c       	mov	r13, r3
     ce0:	e0 2e       	mov	r14, r16
     ce2:	f2 2c       	mov	r15, r2
     ce4:	b8 c1       	rjmp	.+880    	; 0x1056 <__stack+0x7f7>
			input_f = 6;
		}
		else if (input_f == 7)  //this section is to update the calibration of start temperature value
     ce6:	17 30       	cpi	r17, 0x07	; 7
     ce8:	79 f5       	brne	.+94     	; 0xd48 <__stack+0x4e9>
		{
			lcd_clear();
     cea:	0e 94 88 00 	call	0x110	; 0x110 <lcd_clear>
			lcd_gotoxy(0,0);
     cee:	60 e0       	ldi	r22, 0x00	; 0
     cf0:	80 e0       	ldi	r24, 0x00	; 0
     cf2:	0e 94 d5 00 	call	0x1aa	; 0x1aa <lcd_gotoxy>
			lcd_puts("__Temp. Calibration_");
     cf6:	81 e5       	ldi	r24, 0x51	; 81
     cf8:	91 e0       	ldi	r25, 0x01	; 1
     cfa:	0e 94 1b 01 	call	0x236	; 0x236 <lcd_puts>
			lcd_gotoxy(1,0);
     cfe:	60 e0       	ldi	r22, 0x00	; 0
     d00:	81 e0       	ldi	r24, 0x01	; 1
     d02:	0e 94 d5 00 	call	0x1aa	; 0x1aa <lcd_gotoxy>
			lcd_puts("Converted value:");
     d06:	86 e6       	ldi	r24, 0x66	; 102
     d08:	91 e0       	ldi	r25, 0x01	; 1
     d0a:	0e 94 1b 01 	call	0x236	; 0x236 <lcd_puts>
			lcd_gotoxy(2,0);
     d0e:	60 e0       	ldi	r22, 0x00	; 0
     d10:	82 e0       	ldi	r24, 0x02	; 2
     d12:	0e 94 d5 00 	call	0x1aa	; 0x1aa <lcd_gotoxy>
			lcd_puts("ERVL :    C/STRT.P");
     d16:	87 e7       	ldi	r24, 0x77	; 119
     d18:	91 e0       	ldi	r25, 0x01	; 1
     d1a:	0e 94 1b 01 	call	0x236	; 0x236 <lcd_puts>
			lcd_gotoxy(3,0);
     d1e:	60 e0       	ldi	r22, 0x00	; 0
     d20:	83 e0       	ldi	r24, 0x03	; 3
     d22:	0e 94 d5 00 	call	0x1aa	; 0x1aa <lcd_gotoxy>
			lcd_puts("*>BACK D>DEL. #>SAVE");
     d26:	8b e8       	ldi	r24, 0x8B	; 139
     d28:	91 e0       	ldi	r25, 0x01	; 1
     d2a:	0e 94 1b 01 	call	0x236	; 0x236 <lcd_puts>
			y_pos = 2;
			mxpos = 6;
			lcd_cmd(0x0D);
     d2e:	8d e0       	ldi	r24, 0x0D	; 13
     d30:	0e 94 5e 00 	call	0xbc	; 0xbc <lcd_cmd>
			lcd_puts("Converted value:");
			lcd_gotoxy(2,0);
			lcd_puts("ERVL :    C/STRT.P");
			lcd_gotoxy(3,0);
			lcd_puts("*>BACK D>DEL. #>SAVE");
			y_pos = 2;
     d34:	22 e0       	ldi	r18, 0x02	; 2
     d36:	2e 8b       	std	Y+22, r18	; 0x16
			mxpos = 6;
     d38:	36 e0       	ldi	r19, 0x06	; 6
     d3a:	3d 8b       	std	Y+21, r19	; 0x15
			lcd_cmd(0x0D);
			kp_val = 0;
			input_f = 8;
     d3c:	1a 2d       	mov	r17, r10
			lcd_gotoxy(3,0);
			lcd_puts("*>BACK D>DEL. #>SAVE");
			y_pos = 2;
			mxpos = 6;
			lcd_cmd(0x0D);
			kp_val = 0;
     d3e:	cb 2c       	mov	r12, r11
     d40:	d3 2c       	mov	r13, r3
     d42:	e0 2e       	mov	r14, r16
     d44:	f2 2c       	mov	r15, r2
     d46:	87 c1       	rjmp	.+782    	; 0x1056 <__stack+0x7f7>
			input_f = 8;
		}
		else if (input_f == 8)  // to show the current temperature
     d48:	18 30       	cpi	r17, 0x08	; 8
     d4a:	09 f0       	breq	.+2      	; 0xd4e <__stack+0x4ef>
     d4c:	49 c0       	rjmp	.+146    	; 0xde0 <__stack+0x581>
		{
			if (compare_time != i_time)
     d4e:	40 91 b5 03 	lds	r20, 0x03B5
     d52:	50 91 b6 03 	lds	r21, 0x03B6
     d56:	60 91 b7 03 	lds	r22, 0x03B7
     d5a:	70 91 b8 03 	lds	r23, 0x03B8
     d5e:	80 91 b9 03 	lds	r24, 0x03B9
     d62:	90 91 ba 03 	lds	r25, 0x03BA
     d66:	a0 91 bb 03 	lds	r26, 0x03BB
     d6a:	b0 91 bc 03 	lds	r27, 0x03BC
     d6e:	48 17       	cp	r20, r24
     d70:	59 07       	cpc	r21, r25
     d72:	6a 07       	cpc	r22, r26
     d74:	7b 07       	cpc	r23, r27
     d76:	09 f4       	brne	.+2      	; 0xd7a <__stack+0x51b>
     d78:	6e c1       	rjmp	.+732    	; 0x1056 <__stack+0x7f7>
			{
				lcd_cmd(0x0C);
     d7a:	8c e0       	ldi	r24, 0x0C	; 12
     d7c:	0e 94 5e 00 	call	0xbc	; 0xbc <lcd_cmd>
				lcd_gotoxy(1,16);
     d80:	60 e1       	ldi	r22, 0x10	; 16
     d82:	81 e0       	ldi	r24, 0x01	; 1
     d84:	0e 94 d5 00 	call	0x1aa	; 0x1aa <lcd_gotoxy>
				lcd_putsint(Global_temperature,4);
     d88:	60 91 90 03 	lds	r22, 0x0390
     d8c:	70 91 91 03 	lds	r23, 0x0391
     d90:	80 91 92 03 	lds	r24, 0x0392
     d94:	90 91 93 03 	lds	r25, 0x0393
     d98:	0e 94 0f 11 	call	0x221e	; 0x221e <__fixsfsi>
     d9c:	44 e0       	ldi	r20, 0x04	; 4
     d9e:	0e 94 b7 01 	call	0x36e	; 0x36e <lcd_putsint>
				compare_time = i_time;
     da2:	80 91 b9 03 	lds	r24, 0x03B9
     da6:	90 91 ba 03 	lds	r25, 0x03BA
     daa:	a0 91 bb 03 	lds	r26, 0x03BB
     dae:	b0 91 bc 03 	lds	r27, 0x03BC
     db2:	80 93 b5 03 	sts	0x03B5, r24
     db6:	90 93 b6 03 	sts	0x03B6, r25
     dba:	a0 93 b7 03 	sts	0x03B7, r26
     dbe:	b0 93 b8 03 	sts	0x03B8, r27
				lcd_gotoxy(y_pos,mxpos);
     dc2:	6d 89       	ldd	r22, Y+21	; 0x15
     dc4:	8e 89       	ldd	r24, Y+22	; 0x16
     dc6:	0e 94 d5 00 	call	0x1aa	; 0x1aa <lcd_gotoxy>
				if (mxpos == 10)
     dca:	4d 89       	ldd	r20, Y+21	; 0x15
     dcc:	4a 30       	cpi	r20, 0x0A	; 10
     dce:	21 f4       	brne	.+8      	; 0xdd8 <__stack+0x579>
				{
					lcd_cmd(0x0C);
     dd0:	8c e0       	ldi	r24, 0x0C	; 12
     dd2:	0e 94 5e 00 	call	0xbc	; 0xbc <lcd_cmd>
     dd6:	3f c1       	rjmp	.+638    	; 0x1056 <__stack+0x7f7>
				}
				else
				{
					lcd_cmd(0x0D);
     dd8:	8d e0       	ldi	r24, 0x0D	; 13
     dda:	0e 94 5e 00 	call	0xbc	; 0xbc <lcd_cmd>
     dde:	3b c1       	rjmp	.+630    	; 0x1056 <__stack+0x7f7>
				}
			}
		}
		else if (input_f == 9)  //this section is to update the calibration of water
     de0:	19 30       	cpi	r17, 0x09	; 9
     de2:	09 f0       	breq	.+2      	; 0xde6 <__stack+0x587>
     de4:	42 c0       	rjmp	.+132    	; 0xe6a <__stack+0x60b>
		{
			lcd_clear();
     de6:	0e 94 88 00 	call	0x110	; 0x110 <lcd_clear>
			lcd_gotoxy(0,0);
     dea:	60 e0       	ldi	r22, 0x00	; 0
     dec:	80 e0       	ldi	r24, 0x00	; 0
     dee:	0e 94 d5 00 	call	0x1aa	; 0x1aa <lcd_gotoxy>
			lcd_puts("__Water Calibration_");
     df2:	80 ea       	ldi	r24, 0xA0	; 160
     df4:	91 e0       	ldi	r25, 0x01	; 1
     df6:	0e 94 1b 01 	call	0x236	; 0x236 <lcd_puts>
			lcd_gotoxy(1,0);
     dfa:	60 e0       	ldi	r22, 0x00	; 0
     dfc:	81 e0       	ldi	r24, 0x01	; 1
     dfe:	0e 94 d5 00 	call	0x1aa	; 0x1aa <lcd_gotoxy>
			lcd_puts("Pulse Counted:");
     e02:	85 eb       	ldi	r24, 0xB5	; 181
     e04:	91 e0       	ldi	r25, 0x01	; 1
     e06:	0e 94 1b 01 	call	0x236	; 0x236 <lcd_puts>
			lcd_gotoxy(1,14);
     e0a:	69 2d       	mov	r22, r9
     e0c:	81 e0       	ldi	r24, 0x01	; 1
     e0e:	0e 94 d5 00 	call	0x1aa	; 0x1aa <lcd_gotoxy>
			lcd_putsint(i_water_hold,6);
     e12:	60 91 ad 03 	lds	r22, 0x03AD
     e16:	70 91 ae 03 	lds	r23, 0x03AE
     e1a:	80 91 af 03 	lds	r24, 0x03AF
     e1e:	90 91 b0 03 	lds	r25, 0x03B0
     e22:	46 e0       	ldi	r20, 0x06	; 6
     e24:	0e 94 b7 01 	call	0x36e	; 0x36e <lcd_putsint>
			lcd_gotoxy(2,0);
     e28:	60 e0       	ldi	r22, 0x00	; 0
     e2a:	82 e0       	ldi	r24, 0x02	; 2
     e2c:	0e 94 d5 00 	call	0x1aa	; 0x1aa <lcd_gotoxy>
			lcd_puts("ERVL :    Liter");
     e30:	84 ec       	ldi	r24, 0xC4	; 196
     e32:	91 e0       	ldi	r25, 0x01	; 1
     e34:	0e 94 1b 01 	call	0x236	; 0x236 <lcd_puts>
			lcd_gotoxy(3,0);
     e38:	60 e0       	ldi	r22, 0x00	; 0
     e3a:	83 e0       	ldi	r24, 0x03	; 3
     e3c:	0e 94 d5 00 	call	0x1aa	; 0x1aa <lcd_gotoxy>
			lcd_puts("*>BACK D>DEL. #>SAVE");
     e40:	8b e8       	ldi	r24, 0x8B	; 139
     e42:	91 e0       	ldi	r25, 0x01	; 1
     e44:	0e 94 1b 01 	call	0x236	; 0x236 <lcd_puts>
			y_pos = 2;
			mxpos = 6;
			lcd_gotoxy(2,6);
     e48:	66 e0       	ldi	r22, 0x06	; 6
     e4a:	82 e0       	ldi	r24, 0x02	; 2
     e4c:	0e 94 d5 00 	call	0x1aa	; 0x1aa <lcd_gotoxy>
			lcd_cmd(0x0D);
     e50:	8d e0       	ldi	r24, 0x0D	; 13
     e52:	0e 94 5e 00 	call	0xbc	; 0xbc <lcd_cmd>
			lcd_putsint(i_water_hold,6);
			lcd_gotoxy(2,0);
			lcd_puts("ERVL :    Liter");
			lcd_gotoxy(3,0);
			lcd_puts("*>BACK D>DEL. #>SAVE");
			y_pos = 2;
     e56:	52 e0       	ldi	r21, 0x02	; 2
     e58:	5e 8b       	std	Y+22, r21	; 0x16
			mxpos = 6;
     e5a:	86 e0       	ldi	r24, 0x06	; 6
     e5c:	8d 8b       	std	Y+21, r24	; 0x15
			lcd_gotoxy(2,6);
			lcd_cmd(0x0D);
			kp_val = 0;
			input_f = 10;
     e5e:	18 2d       	mov	r17, r8
			lcd_puts("*>BACK D>DEL. #>SAVE");
			y_pos = 2;
			mxpos = 6;
			lcd_gotoxy(2,6);
			lcd_cmd(0x0D);
			kp_val = 0;
     e60:	cb 2c       	mov	r12, r11
     e62:	d3 2c       	mov	r13, r3
     e64:	e0 2e       	mov	r14, r16
     e66:	f2 2c       	mov	r15, r2
     e68:	f6 c0       	rjmp	.+492    	; 0x1056 <__stack+0x7f7>
			input_f = 10;
		}
		else if (input_f == 11)  //this section is to update the calibration of end temperature value
     e6a:	1b 30       	cpi	r17, 0x0B	; 11
     e6c:	79 f5       	brne	.+94     	; 0xecc <__stack+0x66d>
		{
			lcd_clear();
     e6e:	0e 94 88 00 	call	0x110	; 0x110 <lcd_clear>
			lcd_gotoxy(0,0);
     e72:	60 e0       	ldi	r22, 0x00	; 0
     e74:	80 e0       	ldi	r24, 0x00	; 0
     e76:	0e 94 d5 00 	call	0x1aa	; 0x1aa <lcd_gotoxy>
			lcd_puts("__Temp. Calibration_");
     e7a:	81 e5       	ldi	r24, 0x51	; 81
     e7c:	91 e0       	ldi	r25, 0x01	; 1
     e7e:	0e 94 1b 01 	call	0x236	; 0x236 <lcd_puts>
			lcd_gotoxy(1,0);
     e82:	60 e0       	ldi	r22, 0x00	; 0
     e84:	81 e0       	ldi	r24, 0x01	; 1
     e86:	0e 94 d5 00 	call	0x1aa	; 0x1aa <lcd_gotoxy>
			lcd_puts("Converted value:");
     e8a:	86 e6       	ldi	r24, 0x66	; 102
     e8c:	91 e0       	ldi	r25, 0x01	; 1
     e8e:	0e 94 1b 01 	call	0x236	; 0x236 <lcd_puts>
			lcd_gotoxy(2,0);
     e92:	60 e0       	ldi	r22, 0x00	; 0
     e94:	82 e0       	ldi	r24, 0x02	; 2
     e96:	0e 94 d5 00 	call	0x1aa	; 0x1aa <lcd_gotoxy>
			lcd_puts("ERVL :    C/END.P");
     e9a:	84 ed       	ldi	r24, 0xD4	; 212
     e9c:	91 e0       	ldi	r25, 0x01	; 1
     e9e:	0e 94 1b 01 	call	0x236	; 0x236 <lcd_puts>
			lcd_gotoxy(3,0);
     ea2:	60 e0       	ldi	r22, 0x00	; 0
     ea4:	83 e0       	ldi	r24, 0x03	; 3
     ea6:	0e 94 d5 00 	call	0x1aa	; 0x1aa <lcd_gotoxy>
			lcd_puts("*>BACK D>DEL. #>SAVE");
     eaa:	8b e8       	ldi	r24, 0x8B	; 139
     eac:	91 e0       	ldi	r25, 0x01	; 1
     eae:	0e 94 1b 01 	call	0x236	; 0x236 <lcd_puts>
			y_pos = 2;
			mxpos = 6;
			lcd_cmd(0x0D);
     eb2:	8d e0       	ldi	r24, 0x0D	; 13
     eb4:	0e 94 5e 00 	call	0xbc	; 0xbc <lcd_cmd>
			lcd_puts("Converted value:");
			lcd_gotoxy(2,0);
			lcd_puts("ERVL :    C/END.P");
			lcd_gotoxy(3,0);
			lcd_puts("*>BACK D>DEL. #>SAVE");
			y_pos = 2;
     eb8:	92 e0       	ldi	r25, 0x02	; 2
     eba:	9e 8b       	std	Y+22, r25	; 0x16
			mxpos = 6;
     ebc:	a6 e0       	ldi	r26, 0x06	; 6
     ebe:	ad 8b       	std	Y+21, r26	; 0x15
			lcd_cmd(0x0D);
			kp_val = 0;
			input_f = 12;
     ec0:	1c e0       	ldi	r17, 0x0C	; 12
			lcd_gotoxy(3,0);
			lcd_puts("*>BACK D>DEL. #>SAVE");
			y_pos = 2;
			mxpos = 6;
			lcd_cmd(0x0D);
			kp_val = 0;
     ec2:	cb 2c       	mov	r12, r11
     ec4:	d3 2c       	mov	r13, r3
     ec6:	e0 2e       	mov	r14, r16
     ec8:	f2 2c       	mov	r15, r2
     eca:	c5 c0       	rjmp	.+394    	; 0x1056 <__stack+0x7f7>
			input_f = 12;
		}
		else if (input_f == 12) // to show the current temperature
     ecc:	1c 30       	cpi	r17, 0x0C	; 12
     ece:	09 f0       	breq	.+2      	; 0xed2 <__stack+0x673>
     ed0:	49 c0       	rjmp	.+146    	; 0xf64 <__stack+0x705>
		{
			if (compare_time != i_time)
     ed2:	40 91 b5 03 	lds	r20, 0x03B5
     ed6:	50 91 b6 03 	lds	r21, 0x03B6
     eda:	60 91 b7 03 	lds	r22, 0x03B7
     ede:	70 91 b8 03 	lds	r23, 0x03B8
     ee2:	80 91 b9 03 	lds	r24, 0x03B9
     ee6:	90 91 ba 03 	lds	r25, 0x03BA
     eea:	a0 91 bb 03 	lds	r26, 0x03BB
     eee:	b0 91 bc 03 	lds	r27, 0x03BC
     ef2:	48 17       	cp	r20, r24
     ef4:	59 07       	cpc	r21, r25
     ef6:	6a 07       	cpc	r22, r26
     ef8:	7b 07       	cpc	r23, r27
     efa:	09 f4       	brne	.+2      	; 0xefe <__stack+0x69f>
     efc:	ac c0       	rjmp	.+344    	; 0x1056 <__stack+0x7f7>
			{
				lcd_cmd(0x0C);
     efe:	8c e0       	ldi	r24, 0x0C	; 12
     f00:	0e 94 5e 00 	call	0xbc	; 0xbc <lcd_cmd>
				lcd_gotoxy(1,16);
     f04:	60 e1       	ldi	r22, 0x10	; 16
     f06:	81 e0       	ldi	r24, 0x01	; 1
     f08:	0e 94 d5 00 	call	0x1aa	; 0x1aa <lcd_gotoxy>
				lcd_putsint(Global_temperature,4);
     f0c:	60 91 90 03 	lds	r22, 0x0390
     f10:	70 91 91 03 	lds	r23, 0x0391
     f14:	80 91 92 03 	lds	r24, 0x0392
     f18:	90 91 93 03 	lds	r25, 0x0393
     f1c:	0e 94 0f 11 	call	0x221e	; 0x221e <__fixsfsi>
     f20:	44 e0       	ldi	r20, 0x04	; 4
     f22:	0e 94 b7 01 	call	0x36e	; 0x36e <lcd_putsint>
				compare_time = i_time;
     f26:	80 91 b9 03 	lds	r24, 0x03B9
     f2a:	90 91 ba 03 	lds	r25, 0x03BA
     f2e:	a0 91 bb 03 	lds	r26, 0x03BB
     f32:	b0 91 bc 03 	lds	r27, 0x03BC
     f36:	80 93 b5 03 	sts	0x03B5, r24
     f3a:	90 93 b6 03 	sts	0x03B6, r25
     f3e:	a0 93 b7 03 	sts	0x03B7, r26
     f42:	b0 93 b8 03 	sts	0x03B8, r27
				lcd_gotoxy(y_pos,mxpos);
     f46:	6d 89       	ldd	r22, Y+21	; 0x15
     f48:	8e 89       	ldd	r24, Y+22	; 0x16
     f4a:	0e 94 d5 00 	call	0x1aa	; 0x1aa <lcd_gotoxy>
				if (mxpos == 10)
     f4e:	bd 89       	ldd	r27, Y+21	; 0x15
     f50:	ba 30       	cpi	r27, 0x0A	; 10
     f52:	21 f4       	brne	.+8      	; 0xf5c <__stack+0x6fd>
				{
					lcd_cmd(0x0C);
     f54:	8c e0       	ldi	r24, 0x0C	; 12
     f56:	0e 94 5e 00 	call	0xbc	; 0xbc <lcd_cmd>
     f5a:	7d c0       	rjmp	.+250    	; 0x1056 <__stack+0x7f7>
				}
				else
				{
					lcd_cmd(0x0D);
     f5c:	8d e0       	ldi	r24, 0x0D	; 13
     f5e:	0e 94 5e 00 	call	0xbc	; 0xbc <lcd_cmd>
     f62:	79 c0       	rjmp	.+242    	; 0x1056 <__stack+0x7f7>
				}
			}
		}
		else if (input_f == 13)  // password confirmation section
     f64:	1d 30       	cpi	r17, 0x0D	; 13
     f66:	d9 f5       	brne	.+118    	; 0xfde <__stack+0x77f>
		{
			lcd_clear();
     f68:	0e 94 88 00 	call	0x110	; 0x110 <lcd_clear>
			lcd_gotoxy(0,15);
     f6c:	6f e0       	ldi	r22, 0x0F	; 15
     f6e:	80 e0       	ldi	r24, 0x00	; 0
     f70:	0e 94 d5 00 	call	0x1aa	; 0x1aa <lcd_gotoxy>
			lcd_puts("ASTEX");
     f74:	80 e6       	ldi	r24, 0x60	; 96
     f76:	90 e0       	ldi	r25, 0x00	; 0
     f78:	0e 94 1b 01 	call	0x236	; 0x236 <lcd_puts>
			lcd_gotoxy(1,0);
     f7c:	60 e0       	ldi	r22, 0x00	; 0
     f7e:	81 e0       	ldi	r24, 0x01	; 1
     f80:	0e 94 d5 00 	call	0x1aa	; 0x1aa <lcd_gotoxy>
			lcd_puts("Please give the pass");
     f84:	87 ee       	ldi	r24, 0xE7	; 231
     f86:	91 e0       	ldi	r25, 0x01	; 1
     f88:	0e 94 1b 01 	call	0x236	; 0x236 <lcd_puts>
			lcd_gotoxy(2,0);
     f8c:	60 e0       	ldi	r22, 0x00	; 0
     f8e:	82 e0       	ldi	r24, 0x02	; 2
     f90:	0e 94 d5 00 	call	0x1aa	; 0x1aa <lcd_gotoxy>
			lcd_puts("key  :");
     f94:	8c ef       	ldi	r24, 0xFC	; 252
     f96:	91 e0       	ldi	r25, 0x01	; 1
     f98:	0e 94 1b 01 	call	0x236	; 0x236 <lcd_puts>
			lcd_gotoxy(3,0);
     f9c:	60 e0       	ldi	r22, 0x00	; 0
     f9e:	83 e0       	ldi	r24, 0x03	; 3
     fa0:	0e 94 d5 00 	call	0x1aa	; 0x1aa <lcd_gotoxy>
			lcd_puts("*>BACK  D>DEL.  #>OK");
     fa4:	83 e0       	ldi	r24, 0x03	; 3
     fa6:	92 e0       	ldi	r25, 0x02	; 2
     fa8:	0e 94 1b 01 	call	0x236	; 0x236 <lcd_puts>
			
			y_pos = 2;
			mxpos = 6;
			lcd_gotoxy(2,6);
     fac:	66 e0       	ldi	r22, 0x06	; 6
     fae:	82 e0       	ldi	r24, 0x02	; 2
     fb0:	0e 94 d5 00 	call	0x1aa	; 0x1aa <lcd_gotoxy>
			lcd_puts("    ");
     fb4:	8f e7       	ldi	r24, 0x7F	; 127
     fb6:	93 e0       	ldi	r25, 0x03	; 3
     fb8:	0e 94 1b 01 	call	0x236	; 0x236 <lcd_puts>
			lcd_gotoxy(2,6);
     fbc:	66 e0       	ldi	r22, 0x06	; 6
     fbe:	82 e0       	ldi	r24, 0x02	; 2
     fc0:	0e 94 d5 00 	call	0x1aa	; 0x1aa <lcd_gotoxy>
			lcd_cmd(0x0D);
     fc4:	8d e0       	ldi	r24, 0x0D	; 13
     fc6:	0e 94 5e 00 	call	0xbc	; 0xbc <lcd_cmd>
			lcd_gotoxy(2,0);
			lcd_puts("key  :");
			lcd_gotoxy(3,0);
			lcd_puts("*>BACK  D>DEL.  #>OK");
			
			y_pos = 2;
     fca:	e2 e0       	ldi	r30, 0x02	; 2
     fcc:	ee 8b       	std	Y+22, r30	; 0x16
			mxpos = 6;
     fce:	f6 e0       	ldi	r31, 0x06	; 6
     fd0:	fd 8b       	std	Y+21, r31	; 0x15
			lcd_gotoxy(2,6);
			lcd_puts("    ");
			lcd_gotoxy(2,6);
			lcd_cmd(0x0D);
			kp_val = 0;
			input_f = 14;
     fd2:	19 2d       	mov	r17, r9
			mxpos = 6;
			lcd_gotoxy(2,6);
			lcd_puts("    ");
			lcd_gotoxy(2,6);
			lcd_cmd(0x0D);
			kp_val = 0;
     fd4:	cb 2c       	mov	r12, r11
     fd6:	d3 2c       	mov	r13, r3
     fd8:	e0 2e       	mov	r14, r16
     fda:	f2 2c       	mov	r15, r2
     fdc:	3c c0       	rjmp	.+120    	; 0x1056 <__stack+0x7f7>
			input_f = 14;
		}
		else if (input_f == 15)  // change password section
     fde:	1f 30       	cpi	r17, 0x0F	; 15
     fe0:	d1 f5       	brne	.+116    	; 0x1056 <__stack+0x7f7>
		{
			lcd_clear();
     fe2:	0e 94 88 00 	call	0x110	; 0x110 <lcd_clear>
			lcd_gotoxy(0,15);
     fe6:	6f e0       	ldi	r22, 0x0F	; 15
     fe8:	80 e0       	ldi	r24, 0x00	; 0
     fea:	0e 94 d5 00 	call	0x1aa	; 0x1aa <lcd_gotoxy>
			lcd_puts("ASTEX");
     fee:	80 e6       	ldi	r24, 0x60	; 96
     ff0:	90 e0       	ldi	r25, 0x00	; 0
     ff2:	0e 94 1b 01 	call	0x236	; 0x236 <lcd_puts>
			lcd_gotoxy(1,0);
     ff6:	60 e0       	ldi	r22, 0x00	; 0
     ff8:	81 e0       	ldi	r24, 0x01	; 1
     ffa:	0e 94 d5 00 	call	0x1aa	; 0x1aa <lcd_gotoxy>
			lcd_puts("Enter the new pass- ");
     ffe:	88 e1       	ldi	r24, 0x18	; 24
    1000:	92 e0       	ldi	r25, 0x02	; 2
    1002:	0e 94 1b 01 	call	0x236	; 0x236 <lcd_puts>
			lcd_gotoxy(2,0);
    1006:	60 e0       	ldi	r22, 0x00	; 0
    1008:	82 e0       	ldi	r24, 0x02	; 2
    100a:	0e 94 d5 00 	call	0x1aa	; 0x1aa <lcd_gotoxy>
			lcd_puts("key  :");
    100e:	8c ef       	ldi	r24, 0xFC	; 252
    1010:	91 e0       	ldi	r25, 0x01	; 1
    1012:	0e 94 1b 01 	call	0x236	; 0x236 <lcd_puts>
			lcd_gotoxy(3,0);
    1016:	60 e0       	ldi	r22, 0x00	; 0
    1018:	83 e0       	ldi	r24, 0x03	; 3
    101a:	0e 94 d5 00 	call	0x1aa	; 0x1aa <lcd_gotoxy>
			lcd_puts("*>BACK  D>DEL.  #>OK");
    101e:	83 e0       	ldi	r24, 0x03	; 3
    1020:	92 e0       	ldi	r25, 0x02	; 2
    1022:	0e 94 1b 01 	call	0x236	; 0x236 <lcd_puts>
			
			y_pos = 2;
			mxpos = 6;
			lcd_gotoxy(2,6);
    1026:	66 e0       	ldi	r22, 0x06	; 6
    1028:	82 e0       	ldi	r24, 0x02	; 2
    102a:	0e 94 d5 00 	call	0x1aa	; 0x1aa <lcd_gotoxy>
			lcd_puts("    ");
    102e:	8f e7       	ldi	r24, 0x7F	; 127
    1030:	93 e0       	ldi	r25, 0x03	; 3
    1032:	0e 94 1b 01 	call	0x236	; 0x236 <lcd_puts>
			lcd_gotoxy(2,6);
    1036:	66 e0       	ldi	r22, 0x06	; 6
    1038:	82 e0       	ldi	r24, 0x02	; 2
    103a:	0e 94 d5 00 	call	0x1aa	; 0x1aa <lcd_gotoxy>
			lcd_cmd(0x0D);
    103e:	8d e0       	ldi	r24, 0x0D	; 13
    1040:	0e 94 5e 00 	call	0xbc	; 0xbc <lcd_cmd>
			lcd_gotoxy(2,0);
			lcd_puts("key  :");
			lcd_gotoxy(3,0);
			lcd_puts("*>BACK  D>DEL.  #>OK");
			
			y_pos = 2;
    1044:	22 e0       	ldi	r18, 0x02	; 2
    1046:	2e 8b       	std	Y+22, r18	; 0x16
			mxpos = 6;
    1048:	36 e0       	ldi	r19, 0x06	; 6
    104a:	3d 8b       	std	Y+21, r19	; 0x15
			lcd_gotoxy(2,6);
			lcd_puts("    ");
			lcd_gotoxy(2,6);
			lcd_cmd(0x0D);
			kp_val = 0;
			input_f = 16;
    104c:	10 e1       	ldi	r17, 0x10	; 16
			mxpos = 6;
			lcd_gotoxy(2,6);
			lcd_puts("    ");
			lcd_gotoxy(2,6);
			lcd_cmd(0x0D);
			kp_val = 0;
    104e:	cb 2c       	mov	r12, r11
    1050:	d3 2c       	mov	r13, r3
    1052:	e0 2e       	mov	r14, r16
    1054:	f2 2c       	mov	r15, r2
			input_f = 16;
		}
		////////////////////////////////////////////////////////////////////////////////////////////////////////
		if ((kp_input = scan_kpd_4x4()))
    1056:	0e 94 63 02 	call	0x4c6	; 0x4c6 <scan_kpd_4x4>
    105a:	88 23       	and	r24, r24
    105c:	09 f4       	brne	.+2      	; 0x1060 <__stack+0x801>
    105e:	f3 cd       	rjmp	.-1050   	; 0xc46 <__stack+0x3e7>
		{
			if (kp_input == 11)
    1060:	8b 30       	cpi	r24, 0x0B	; 11
    1062:	c1 f4       	brne	.+48     	; 0x1094 <__stack+0x835>
    1064:	1d 83       	std	Y+5, r17	; 0x05
			{
				lcd_cmd(0x0C);
    1066:	8c e0       	ldi	r24, 0x0C	; 12
    1068:	0e 94 5e 00 	call	0xbc	; 0xbc <lcd_cmd>
				if (input_f == 8 || input_f == 10 || input_f == 12 || input_f == 16) 
    106c:	81 2f       	mov	r24, r17
    106e:	8d 7f       	andi	r24, 0xFD	; 253
    1070:	88 30       	cpi	r24, 0x08	; 8
    1072:	09 f4       	brne	.+2      	; 0x1076 <__stack+0x817>
    1074:	85 c6       	rjmp	.+3338   	; 0x1d80 <__stack+0x1521>
    1076:	1d 81       	ldd	r17, Y+5	; 0x05
    1078:	1c 30       	cpi	r17, 0x0C	; 12
    107a:	09 f4       	brne	.+2      	; 0x107e <__stack+0x81f>
    107c:	83 c6       	rjmp	.+3334   	; 0x1d84 <__stack+0x1525>
    107e:	10 31       	cpi	r17, 0x10	; 16
    1080:	09 f4       	brne	.+2      	; 0x1084 <__stack+0x825>
    1082:	82 c6       	rjmp	.+3332   	; 0x1d88 <__stack+0x1529>
    1084:	49 82       	std	Y+1, r4	; 0x01
    1086:	5a 82       	std	Y+2, r5	; 0x02
    1088:	6b 82       	std	Y+3, r6	; 0x03
    108a:	7c 82       	std	Y+4, r7	; 0x04
				{
					input_f = 0;
					goto settings_calibration;
				}
				else if (input_f == 14)
    108c:	1e 30       	cpi	r17, 0x0E	; 14
    108e:	09 f0       	breq	.+2      	; 0x1092 <__stack+0x833>
    1090:	01 cd       	rjmp	.-1534   	; 0xa94 <__stack+0x235>
    1092:	26 cc       	rjmp	.-1972   	; 0x8e0 <__stack+0x81>
				{
					input_f = 0;
					goto optin_select;
				}
			}
			else if (kp_input == 16) // D
    1094:	80 31       	cpi	r24, 0x10	; 16
    1096:	09 f0       	breq	.+2      	; 0x109a <__stack+0x83b>
    1098:	4f c0       	rjmp	.+158    	; 0x1138 <__stack+0x8d9>
			{
				if (mxpos>6)
    109a:	ad 89       	ldd	r26, Y+21	; 0x15
    109c:	a7 30       	cpi	r26, 0x07	; 7
    109e:	d8 f0       	brcs	.+54     	; 0x10d6 <__stack+0x877>
				{
					mxpos= mxpos - 1;
    10a0:	a1 50       	subi	r26, 0x01	; 1
    10a2:	ad 8b       	std	Y+21, r26	; 0x15
					lcd_gotoxy(y_pos,mxpos);
    10a4:	6a 2f       	mov	r22, r26
    10a6:	8e 89       	ldd	r24, Y+22	; 0x16
    10a8:	0e 94 d5 00 	call	0x1aa	; 0x1aa <lcd_gotoxy>
					lcd_putchar(' ');
    10ac:	80 e2       	ldi	r24, 0x20	; 32
    10ae:	0e 94 f1 00 	call	0x1e2	; 0x1e2 <lcd_putchar>
					lcd_gotoxy(y_pos,mxpos);
    10b2:	6d 89       	ldd	r22, Y+21	; 0x15
    10b4:	8e 89       	ldd	r24, Y+22	; 0x16
    10b6:	0e 94 d5 00 	call	0x1aa	; 0x1aa <lcd_gotoxy>
					lcd_cmd(0x0D);
    10ba:	8d e0       	ldi	r24, 0x0D	; 13
    10bc:	0e 94 5e 00 	call	0xbc	; 0xbc <lcd_cmd>
					kp_val = (kp_val / 10);
    10c0:	c7 01       	movw	r24, r14
    10c2:	b6 01       	movw	r22, r12
    10c4:	2a e0       	ldi	r18, 0x0A	; 10
    10c6:	30 e0       	ldi	r19, 0x00	; 0
    10c8:	40 e0       	ldi	r20, 0x00	; 0
    10ca:	50 e0       	ldi	r21, 0x00	; 0
    10cc:	0e 94 9e 12 	call	0x253c	; 0x253c <__udivmodsi4>
    10d0:	69 01       	movw	r12, r18
    10d2:	7a 01       	movw	r14, r20
    10d4:	bc c7       	rjmp	.+3960   	; 0x204e <__stack+0x17ef>
				}
				else
				{
					if (input_f == 2)
    10d6:	12 30       	cpi	r17, 0x02	; 2
    10d8:	31 f4       	brne	.+12     	; 0x10e6 <__stack+0x887>
					{
						input_f = 0;
						lcd_cmd(0x0C);
    10da:	8c e0       	ldi	r24, 0x0C	; 12
    10dc:	0e 94 5e 00 	call	0xbc	; 0xbc <lcd_cmd>
    10e0:	ad 88       	ldd	r10, Y+21	; 0x15
    10e2:	1e 89       	ldd	r17, Y+22	; 0x16
						goto optin_select;
    10e4:	dc cc       	rjmp	.-1608   	; 0xa9e <__stack+0x23f>
					}
					else if (input_f == 4)
    10e6:	14 30       	cpi	r17, 0x04	; 4
    10e8:	09 f4       	brne	.+2      	; 0x10ec <__stack+0x88d>
    10ea:	97 cd       	rjmp	.-1234   	; 0xc1a <__stack+0x3bb>
					{
						input_f = 1;
						goto manual_operation;
					}
					else if (input_f == 6)
    10ec:	16 30       	cpi	r17, 0x06	; 6
    10ee:	09 f4       	brne	.+2      	; 0x10f2 <__stack+0x893>
    10f0:	96 cd       	rjmp	.-1236   	; 0xc1e <__stack+0x3bf>
					{
						input_f = 3;
						goto manual_operation;
					}
					else if (input_f == 8)
    10f2:	18 30       	cpi	r17, 0x08	; 8
    10f4:	29 f4       	brne	.+10     	; 0x1100 <__stack+0x8a1>
					{
						input_f = 0;
						lcd_cmd(0x0C);
    10f6:	8c e0       	ldi	r24, 0x0C	; 12
    10f8:	0e 94 5e 00 	call	0xbc	; 0xbc <lcd_cmd>
    10fc:	1e 89       	ldd	r17, Y+22	; 0x16
						goto settings_calibration;
    10fe:	48 c6       	rjmp	.+3216   	; 0x1d90 <__stack+0x1531>
					}
					else if (input_f == 10)
    1100:	1a 30       	cpi	r17, 0x0A	; 10
    1102:	09 f4       	brne	.+2      	; 0x1106 <__stack+0x8a7>
    1104:	43 c6       	rjmp	.+3206   	; 0x1d8c <__stack+0x152d>
					{
						input_f = 0;
						goto settings_calibration;
					}
					else if (input_f == 12)
    1106:	1c 30       	cpi	r17, 0x0C	; 12
    1108:	29 f4       	brne	.+10     	; 0x1114 <__stack+0x8b5>
					{
						input_f = 0;
						lcd_cmd(0x0C);
    110a:	8c e0       	ldi	r24, 0x0C	; 12
    110c:	0e 94 5e 00 	call	0xbc	; 0xbc <lcd_cmd>
    1110:	1e 89       	ldd	r17, Y+22	; 0x16
						goto settings_calibration;
    1112:	3e c6       	rjmp	.+3196   	; 0x1d90 <__stack+0x1531>
					}
					else if (input_f == 14)
    1114:	1e 30       	cpi	r17, 0x0E	; 14
    1116:	41 f4       	brne	.+16     	; 0x1128 <__stack+0x8c9>
    1118:	49 82       	std	Y+1, r4	; 0x01
    111a:	5a 82       	std	Y+2, r5	; 0x02
    111c:	6b 82       	std	Y+3, r6	; 0x03
    111e:	7c 82       	std	Y+4, r7	; 0x04
					{
						input_f = 0;
						lcd_cmd(0x0C);
    1120:	8c e0       	ldi	r24, 0x0C	; 12
    1122:	0e 94 5e 00 	call	0xbc	; 0xbc <lcd_cmd>
						goto start_pgm;
    1126:	dc cb       	rjmp	.-2120   	; 0x8e0 <__stack+0x81>
					}
					else if (input_f == 16)
    1128:	10 31       	cpi	r17, 0x10	; 16
    112a:	09 f0       	breq	.+2      	; 0x112e <__stack+0x8cf>
    112c:	90 c7       	rjmp	.+3872   	; 0x204e <__stack+0x17ef>
					{
						input_f = 0;
						lcd_cmd(0x0C);
    112e:	8c e0       	ldi	r24, 0x0C	; 12
    1130:	0e 94 5e 00 	call	0xbc	; 0xbc <lcd_cmd>
    1134:	1e 89       	ldd	r17, Y+22	; 0x16
						goto settings_calibration;
    1136:	2c c6       	rjmp	.+3160   	; 0x1d90 <__stack+0x1531>
					}
				}
			}
			else if (kp_input == 12) // #
    1138:	8c 30       	cpi	r24, 0x0C	; 12
    113a:	09 f0       	breq	.+2      	; 0x113e <__stack+0x8df>
    113c:	17 c1       	rjmp	.+558    	; 0x136c <__stack+0xb0d>
			{
				if (input_f == 2)  //taking input of water
    113e:	12 30       	cpi	r17, 0x02	; 2
    1140:	09 f4       	brne	.+2      	; 0x1144 <__stack+0x8e5>
    1142:	8a c7       	rjmp	.+3860   	; 0x2058 <__stack+0x17f9>
					water = kp_val;
					kp_val = 0;
					mxpos = 6;
					input_f = 3;
				}
				else if (input_f == 4)  // taking input of temperature
    1144:	14 30       	cpi	r17, 0x04	; 4
    1146:	09 f4       	brne	.+2      	; 0x114a <__stack+0x8eb>
    1148:	89 c7       	rjmp	.+3858   	; 0x205c <__stack+0x17fd>
					temp = kp_val;
					kp_val = 0;
					mxpos = 6;
					input_f = 5;
				}
				else if (input_f == 6)  // taking input of time
    114a:	16 30       	cpi	r17, 0x06	; 6
    114c:	89 f4       	brne	.+34     	; 0x1170 <__stack+0x911>
    114e:	49 82       	std	Y+1, r4	; 0x01
    1150:	5a 82       	std	Y+2, r5	; 0x02
    1152:	6b 82       	std	Y+3, r6	; 0x03
    1154:	7c 82       	std	Y+4, r7	; 0x04
				{
					time = kp_val;
					kp_val = 0;
					mxpos = 6;
					input_f = 0;
					lcd_cmd(0x0C);
    1156:	0e 94 5e 00 	call	0xbc	; 0xbc <lcd_cmd>
					break;
    115a:	cd 82       	std	Y+5, r12	; 0x05
    115c:	de 82       	std	Y+6, r13	; 0x06
    115e:	ef 82       	std	Y+7, r14	; 0x07
    1160:	f8 86       	std	Y+8, r15	; 0x08
				}
				else if (input_f == 6)  // taking input of time
				{
					time = kp_val;
					kp_val = 0;
					mxpos = 6;
    1162:	36 e0       	ldi	r19, 0x06	; 6
    1164:	3d 8b       	std	Y+21, r19	; 0x15
					input_f = 5;
				}
				else if (input_f == 6)  // taking input of time
				{
					time = kp_val;
					kp_val = 0;
    1166:	c1 2c       	mov	r12, r1
    1168:	d1 2c       	mov	r13, r1
    116a:	e1 2c       	mov	r14, r1
    116c:	f1 2c       	mov	r15, r1
					mxpos = 6;
					input_f = 0;
					lcd_cmd(0x0C);
					break;
    116e:	d3 c2       	rjmp	.+1446   	; 0x1716 <__stack+0xeb7>
				}
				else if (input_f == 8)  //updating the start temperature calibration scaling
    1170:	18 30       	cpi	r17, 0x08	; 8
    1172:	09 f0       	breq	.+2      	; 0x1176 <__stack+0x917>
    1174:	50 c0       	rjmp	.+160    	; 0x1216 <__stack+0x9b7>
				{
					start_temp = Global_temperature;
    1176:	40 91 90 03 	lds	r20, 0x0390
    117a:	50 91 91 03 	lds	r21, 0x0391
    117e:	60 91 92 03 	lds	r22, 0x0392
    1182:	70 91 93 03 	lds	r23, 0x0393
    1186:	40 93 a4 03 	sts	0x03A4, r20
    118a:	50 93 a5 03 	sts	0x03A5, r21
    118e:	60 93 a6 03 	sts	0x03A6, r22
    1192:	70 93 a7 03 	sts	0x03A7, r23
					eeprom_update_float(&start_temp_hold,start_temp);
    1196:	8c e0       	ldi	r24, 0x0C	; 12
    1198:	90 e0       	ldi	r25, 0x00	; 0
    119a:	0e 94 0f 13 	call	0x261e	; 0x261e <__eeupd_dword_m32>
					eeprom_update_float(&ratio_start_hold,(kp_val * 100.0)/start_temp);
    119e:	c7 01       	movw	r24, r14
    11a0:	b6 01       	movw	r22, r12
    11a2:	0e 94 40 11 	call	0x2280	; 0x2280 <__floatunsisf>
    11a6:	20 e0       	ldi	r18, 0x00	; 0
    11a8:	30 e0       	ldi	r19, 0x00	; 0
    11aa:	48 ec       	ldi	r20, 0xC8	; 200
    11ac:	52 e4       	ldi	r21, 0x42	; 66
    11ae:	0e 94 f2 11 	call	0x23e4	; 0x23e4 <__mulsf3>
    11b2:	20 91 a4 03 	lds	r18, 0x03A4
    11b6:	30 91 a5 03 	lds	r19, 0x03A5
    11ba:	40 91 a6 03 	lds	r20, 0x03A6
    11be:	50 91 a7 03 	lds	r21, 0x03A7
    11c2:	0e 94 a7 10 	call	0x214e	; 0x214e <__divsf3>
    11c6:	ab 01       	movw	r20, r22
    11c8:	bc 01       	movw	r22, r24
    11ca:	84 e0       	ldi	r24, 0x04	; 4
    11cc:	90 e0       	ldi	r25, 0x00	; 0
    11ce:	0e 94 0f 13 	call	0x261e	; 0x261e <__eeupd_dword_m32>
					kp_val = 0;
					mxpos = 6;
					input_f = 0;
					lcd_cmd(0x0C);
    11d2:	8c e0       	ldi	r24, 0x0C	; 12
    11d4:	0e 94 5e 00 	call	0xbc	; 0xbc <lcd_cmd>
		lcd_gotoxy(1,14);
		lcd_putsint(i_water,6);	
	}

temp_calib:
	lcd_clear();
    11d8:	0e 94 88 00 	call	0x110	; 0x110 <lcd_clear>
	lcd_cmd(0x0C);
    11dc:	8c e0       	ldi	r24, 0x0C	; 12
    11de:	0e 94 5e 00 	call	0xbc	; 0xbc <lcd_cmd>
	lcd_gotoxy(0,0);
    11e2:	60 e0       	ldi	r22, 0x00	; 0
    11e4:	80 e0       	ldi	r24, 0x00	; 0
    11e6:	0e 94 d5 00 	call	0x1aa	; 0x1aa <lcd_gotoxy>
	lcd_puts("__Temp. Calibration_");
    11ea:	81 e5       	ldi	r24, 0x51	; 81
    11ec:	91 e0       	ldi	r25, 0x01	; 1
    11ee:	0e 94 1b 01 	call	0x236	; 0x236 <lcd_puts>
	lcd_gotoxy(1,0);
    11f2:	60 e0       	ldi	r22, 0x00	; 0
    11f4:	81 e0       	ldi	r24, 0x01	; 1
    11f6:	0e 94 d5 00 	call	0x1aa	; 0x1aa <lcd_gotoxy>
	lcd_puts("Counted Value:    C");
    11fa:	8d e2       	ldi	r24, 0x2D	; 45
    11fc:	92 e0       	ldi	r25, 0x02	; 2
    11fe:	0e 94 1b 01 	call	0x236	; 0x236 <lcd_puts>
	lcd_gotoxy(2,0);
    1202:	60 e0       	ldi	r22, 0x00	; 0
    1204:	82 e0       	ldi	r24, 0x02	; 2
    1206:	0e 94 d5 00 	call	0x1aa	; 0x1aa <lcd_gotoxy>
	lcd_puts("#> Stop Steam");
    120a:	82 e4       	ldi	r24, 0x42	; 66
    120c:	92 e0       	ldi	r25, 0x02	; 2
    120e:	0e 94 1b 01 	call	0x236	; 0x236 <lcd_puts>
    1212:	1e 89       	ldd	r17, Y+22	; 0x16

	while(scan_kpd_4x4());
    1214:	be c6       	rjmp	.+3452   	; 0x1f92 <__stack+0x1733>
					mxpos = 6;
					input_f = 0;
					lcd_cmd(0x0C);
					goto temp_calib;
				}
				else if (input_f == 10)  //updating the water calibration scaling
    1216:	1a 30       	cpi	r17, 0x0A	; 10
    1218:	09 f5       	brne	.+66     	; 0x125c <__stack+0x9fd>
				{
					eeprom_update_dword(&water_flow_divider_hold,(i_water_hold * 100UL) / kp_val);
    121a:	20 91 ad 03 	lds	r18, 0x03AD
    121e:	30 91 ae 03 	lds	r19, 0x03AE
    1222:	40 91 af 03 	lds	r20, 0x03AF
    1226:	50 91 b0 03 	lds	r21, 0x03B0
    122a:	a4 e6       	ldi	r26, 0x64	; 100
    122c:	b0 e0       	ldi	r27, 0x00	; 0
    122e:	0e 94 ee 12 	call	0x25dc	; 0x25dc <__muluhisi3>
    1232:	a7 01       	movw	r20, r14
    1234:	96 01       	movw	r18, r12
    1236:	0e 94 9e 12 	call	0x253c	; 0x253c <__udivmodsi4>
    123a:	ba 01       	movw	r22, r20
    123c:	a9 01       	movw	r20, r18
    123e:	80 e1       	ldi	r24, 0x10	; 16
    1240:	90 e0       	ldi	r25, 0x00	; 0
    1242:	0e 94 0f 13 	call	0x261e	; 0x261e <__eeupd_dword_m32>
					kp_val = 0;
					mxpos = 6;
					input_f = 7;
					lcd_cmd(0x0C);
    1246:	8c e0       	ldi	r24, 0x0C	; 12
    1248:	0e 94 5e 00 	call	0xbc	; 0xbc <lcd_cmd>
				}
				else if (input_f == 10)  //updating the water calibration scaling
				{
					eeprom_update_dword(&water_flow_divider_hold,(i_water_hold * 100UL) / kp_val);
					kp_val = 0;
					mxpos = 6;
    124c:	86 e0       	ldi	r24, 0x06	; 6
    124e:	8d 8b       	std	Y+21, r24	; 0x15
					input_f = 7;
    1250:	17 e0       	ldi	r17, 0x07	; 7
					goto temp_calib;
				}
				else if (input_f == 10)  //updating the water calibration scaling
				{
					eeprom_update_dword(&water_flow_divider_hold,(i_water_hold * 100UL) / kp_val);
					kp_val = 0;
    1252:	cd 84       	ldd	r12, Y+13	; 0x0d
    1254:	de 84       	ldd	r13, Y+14	; 0x0e
    1256:	ef 84       	ldd	r14, Y+15	; 0x0f
    1258:	f8 88       	ldd	r15, Y+16	; 0x10
					mxpos = 6;
					input_f = 7;
					lcd_cmd(0x0C);
					goto manual_operation;
    125a:	e8 cc       	rjmp	.-1584   	; 0xc2c <__stack+0x3cd>
				}
				else if (input_f == 12)  //updating the end temperature calibration scaling
    125c:	1c 30       	cpi	r17, 0x0C	; 12
    125e:	e1 f5       	brne	.+120    	; 0x12d8 <__stack+0xa79>
    1260:	49 82       	std	Y+1, r4	; 0x01
    1262:	5a 82       	std	Y+2, r5	; 0x02
    1264:	6b 82       	std	Y+3, r6	; 0x03
    1266:	7c 82       	std	Y+4, r7	; 0x04
				{
					end_temp = Global_temperature;
    1268:	40 91 90 03 	lds	r20, 0x0390
    126c:	50 91 91 03 	lds	r21, 0x0391
    1270:	60 91 92 03 	lds	r22, 0x0392
    1274:	70 91 93 03 	lds	r23, 0x0393
    1278:	40 93 a0 03 	sts	0x03A0, r20
    127c:	50 93 a1 03 	sts	0x03A1, r21
    1280:	60 93 a2 03 	sts	0x03A2, r22
    1284:	70 93 a3 03 	sts	0x03A3, r23
					eeprom_update_float(&end_temp_hold,end_temp);
    1288:	88 e0       	ldi	r24, 0x08	; 8
    128a:	90 e0       	ldi	r25, 0x00	; 0
    128c:	0e 94 0f 13 	call	0x261e	; 0x261e <__eeupd_dword_m32>
					eeprom_update_float(&ratio_end_hold,(kp_val * 100.0) / end_temp);
    1290:	c7 01       	movw	r24, r14
    1292:	b6 01       	movw	r22, r12
    1294:	0e 94 40 11 	call	0x2280	; 0x2280 <__floatunsisf>
    1298:	20 e0       	ldi	r18, 0x00	; 0
    129a:	30 e0       	ldi	r19, 0x00	; 0
    129c:	48 ec       	ldi	r20, 0xC8	; 200
    129e:	52 e4       	ldi	r21, 0x42	; 66
    12a0:	0e 94 f2 11 	call	0x23e4	; 0x23e4 <__mulsf3>
    12a4:	20 91 a0 03 	lds	r18, 0x03A0
    12a8:	30 91 a1 03 	lds	r19, 0x03A1
    12ac:	40 91 a2 03 	lds	r20, 0x03A2
    12b0:	50 91 a3 03 	lds	r21, 0x03A3
    12b4:	0e 94 a7 10 	call	0x214e	; 0x214e <__divsf3>
    12b8:	ab 01       	movw	r20, r22
    12ba:	bc 01       	movw	r22, r24
    12bc:	80 e0       	ldi	r24, 0x00	; 0
    12be:	90 e0       	ldi	r25, 0x00	; 0
    12c0:	0e 94 0f 13 	call	0x261e	; 0x261e <__eeupd_dword_m32>
					kp_val = 0;
					mxpos = 6;
					input_f = 0;
					lcd_cmd(0x0C);
    12c4:	8c e0       	ldi	r24, 0x0C	; 12
    12c6:	0e 94 5e 00 	call	0xbc	; 0xbc <lcd_cmd>
				{
					end_temp = Global_temperature;
					eeprom_update_float(&end_temp_hold,end_temp);
					eeprom_update_float(&ratio_end_hold,(kp_val * 100.0) / end_temp);
					kp_val = 0;
					mxpos = 6;
    12ca:	a6 e0       	ldi	r26, 0x06	; 6
    12cc:	ad 8b       	std	Y+21, r26	; 0x15
				else if (input_f == 12)  //updating the end temperature calibration scaling
				{
					end_temp = Global_temperature;
					eeprom_update_float(&end_temp_hold,end_temp);
					eeprom_update_float(&ratio_end_hold,(kp_val * 100.0) / end_temp);
					kp_val = 0;
    12ce:	c1 2c       	mov	r12, r1
    12d0:	d1 2c       	mov	r13, r1
    12d2:	e1 2c       	mov	r14, r1
    12d4:	f1 2c       	mov	r15, r1
					mxpos = 6;
					input_f = 0;
					lcd_cmd(0x0C);
					goto start_pgm;
    12d6:	04 cb       	rjmp	.-2552   	; 0x8e0 <__stack+0x81>
				}
				else if (input_f == 14)  // password checking
    12d8:	1e 30       	cpi	r17, 0x0E	; 14
    12da:	a1 f5       	brne	.+104    	; 0x1344 <__stack+0xae5>
				{
					mxpos = 6;
					input_f = 0;
					lcd_cmd(0x0C);
    12dc:	8c e0       	ldi	r24, 0x0C	; 12
    12de:	0e 94 5e 00 	call	0xbc	; 0xbc <lcd_cmd>
					if (passkey == kp_val)
    12e2:	80 91 bd 03 	lds	r24, 0x03BD
    12e6:	90 91 be 03 	lds	r25, 0x03BE
    12ea:	a0 91 bf 03 	lds	r26, 0x03BF
    12ee:	b0 91 c0 03 	lds	r27, 0x03C0
    12f2:	8c 15       	cp	r24, r12
    12f4:	9d 05       	cpc	r25, r13
    12f6:	ae 05       	cpc	r26, r14
    12f8:	bf 05       	cpc	r27, r15
    12fa:	09 f4       	brne	.+2      	; 0x12fe <__stack+0xa9f>
    12fc:	39 c5       	rjmp	.+2674   	; 0x1d70 <__stack+0x1511>
						goto settings_calibration;
					}
					else
					{
						kp_val = 0;
						lcd_clear();
    12fe:	0e 94 88 00 	call	0x110	; 0x110 <lcd_clear>
						lcd_gotoxy(0,15);
    1302:	6f e0       	ldi	r22, 0x0F	; 15
    1304:	80 e0       	ldi	r24, 0x00	; 0
    1306:	0e 94 d5 00 	call	0x1aa	; 0x1aa <lcd_gotoxy>
						lcd_puts("ASTEX");
    130a:	80 e6       	ldi	r24, 0x60	; 96
    130c:	90 e0       	ldi	r25, 0x00	; 0
    130e:	0e 94 1b 01 	call	0x236	; 0x236 <lcd_puts>
						lcd_gotoxy(2,2);
    1312:	62 e0       	ldi	r22, 0x02	; 2
    1314:	82 e0       	ldi	r24, 0x02	; 2
    1316:	0e 94 d5 00 	call	0x1aa	; 0x1aa <lcd_gotoxy>
						lcd_puts("Wrong passkey!!!");
    131a:	80 e5       	ldi	r24, 0x50	; 80
    131c:	92 e0       	ldi	r25, 0x02	; 2
    131e:	0e 94 1b 01 	call	0x236	; 0x236 <lcd_puts>
    1322:	ef ef       	ldi	r30, 0xFF	; 255
    1324:	f9 e6       	ldi	r31, 0x69	; 105
    1326:	28 e1       	ldi	r18, 0x18	; 24
    1328:	e1 50       	subi	r30, 0x01	; 1
    132a:	f0 40       	sbci	r31, 0x00	; 0
    132c:	20 40       	sbci	r18, 0x00	; 0
    132e:	e1 f7       	brne	.-8      	; 0x1328 <__stack+0xac9>
    1330:	00 c0       	rjmp	.+0      	; 0x1332 <__stack+0xad3>
    1332:	00 00       	nop
					lcd_cmd(0x0C);
					goto start_pgm;
				}
				else if (input_f == 14)  // password checking
				{
					mxpos = 6;
    1334:	36 e0       	ldi	r19, 0x06	; 6
    1336:	3d 8b       	std	Y+21, r19	; 0x15
						lcd_gotoxy(0,15);
						lcd_puts("ASTEX");
						lcd_gotoxy(2,2);
						lcd_puts("Wrong passkey!!!");
						_delay_ms(2000);
						input_f = 13;
    1338:	1d e0       	ldi	r17, 0x0D	; 13
						kp_val = 0;
						goto settings_calibration;
					}
					else
					{
						kp_val = 0;
    133a:	cd 84       	ldd	r12, Y+13	; 0x0d
    133c:	de 84       	ldd	r13, Y+14	; 0x0e
    133e:	ef 84       	ldd	r14, Y+15	; 0x0f
    1340:	f8 88       	ldd	r15, Y+16	; 0x10
						lcd_puts("ASTEX");
						lcd_gotoxy(2,2);
						lcd_puts("Wrong passkey!!!");
						_delay_ms(2000);
						input_f = 13;
						goto manual_operation;
    1342:	74 cc       	rjmp	.-1816   	; 0xc2c <__stack+0x3cd>
					}
				}
				else if (input_f == 16)  //updating the password
    1344:	10 31       	cpi	r17, 0x10	; 16
    1346:	09 f0       	breq	.+2      	; 0x134a <__stack+0xaeb>
    1348:	82 c6       	rjmp	.+3332   	; 0x204e <__stack+0x17ef>
				{
					eeprom_update_dword(&passkey_hold,kp_val);
    134a:	b7 01       	movw	r22, r14
    134c:	a6 01       	movw	r20, r12
    134e:	84 e1       	ldi	r24, 0x14	; 20
    1350:	90 e0       	ldi	r25, 0x00	; 0
    1352:	0e 94 0f 13 	call	0x261e	; 0x261e <__eeupd_dword_m32>
					kp_val = 0;
					mxpos = 6;
					input_f = 0;
					lcd_cmd(0x0C);
    1356:	8c e0       	ldi	r24, 0x0C	; 12
    1358:	0e 94 5e 00 	call	0xbc	; 0xbc <lcd_cmd>
				}
				else if (input_f == 16)  //updating the password
				{
					eeprom_update_dword(&passkey_hold,kp_val);
					kp_val = 0;
					mxpos = 6;
    135c:	56 e0       	ldi	r21, 0x06	; 6
					}
				}
				else if (input_f == 16)  //updating the password
				{
					eeprom_update_dword(&passkey_hold,kp_val);
					kp_val = 0;
    135e:	cd 84       	ldd	r12, Y+13	; 0x0d
    1360:	de 84       	ldd	r13, Y+14	; 0x0e
    1362:	ef 84       	ldd	r14, Y+15	; 0x0f
    1364:	f8 88       	ldd	r15, Y+16	; 0x10
    1366:	5d 8b       	std	Y+21, r21	; 0x15
    1368:	1e 89       	ldd	r17, Y+22	; 0x16
					mxpos = 6;
					input_f = 0;
					lcd_cmd(0x0C);
					goto settings_calibration;
    136a:	12 c5       	rjmp	.+2596   	; 0x1d90 <__stack+0x1531>
				}
			}
			
			if (mxpos <= 9) // limit the excess input
    136c:	9d 89       	ldd	r25, Y+21	; 0x15
    136e:	9a 30       	cpi	r25, 0x0A	; 10
    1370:	08 f0       	brcs	.+2      	; 0x1374 <__stack+0xb15>
    1372:	69 c1       	rjmp	.+722    	; 0x1646 <__stack+0xde7>
			{
				if (kp_input == 9) // 9
    1374:	89 30       	cpi	r24, 0x09	; 9
    1376:	11 f5       	brne	.+68     	; 0x13bc <__stack+0xb5d>
				{
					lcd_gotoxy(y_pos,mxpos);
    1378:	69 2f       	mov	r22, r25
    137a:	8e 89       	ldd	r24, Y+22	; 0x16
    137c:	0e 94 d5 00 	call	0x1aa	; 0x1aa <lcd_gotoxy>
					lcd_putchar('9');
    1380:	89 e3       	ldi	r24, 0x39	; 57
    1382:	0e 94 f1 00 	call	0x1e2	; 0x1e2 <lcd_putchar>
					mxpos= mxpos + 1;
    1386:	ad 89       	ldd	r26, Y+21	; 0x15
    1388:	af 5f       	subi	r26, 0xFF	; 255
    138a:	ad 8b       	std	Y+21, r26	; 0x15
					kp_val = (kp_val * 10) + 9;
    138c:	cc 0c       	add	r12, r12
    138e:	dd 1c       	adc	r13, r13
    1390:	ee 1c       	adc	r14, r14
    1392:	ff 1c       	adc	r15, r15
    1394:	d7 01       	movw	r26, r14
    1396:	c6 01       	movw	r24, r12
    1398:	88 0f       	add	r24, r24
    139a:	99 1f       	adc	r25, r25
    139c:	aa 1f       	adc	r26, r26
    139e:	bb 1f       	adc	r27, r27
    13a0:	88 0f       	add	r24, r24
    13a2:	99 1f       	adc	r25, r25
    13a4:	aa 1f       	adc	r26, r26
    13a6:	bb 1f       	adc	r27, r27
    13a8:	c8 0e       	add	r12, r24
    13aa:	d9 1e       	adc	r13, r25
    13ac:	ea 1e       	adc	r14, r26
    13ae:	fb 1e       	adc	r15, r27
    13b0:	b9 e0       	ldi	r27, 0x09	; 9
    13b2:	cb 0e       	add	r12, r27
    13b4:	d1 1c       	adc	r13, r1
    13b6:	e1 1c       	adc	r14, r1
    13b8:	f1 1c       	adc	r15, r1
    13ba:	3e c1       	rjmp	.+636    	; 0x1638 <__stack+0xdd9>
				}
				else if (kp_input == 10) //0
    13bc:	8a 30       	cpi	r24, 0x0A	; 10
    13be:	e9 f4       	brne	.+58     	; 0x13fa <__stack+0xb9b>
				{
					lcd_gotoxy(y_pos,mxpos);
    13c0:	6d 89       	ldd	r22, Y+21	; 0x15
    13c2:	8e 89       	ldd	r24, Y+22	; 0x16
    13c4:	0e 94 d5 00 	call	0x1aa	; 0x1aa <lcd_gotoxy>
					lcd_putchar('0');
    13c8:	80 e3       	ldi	r24, 0x30	; 48
    13ca:	0e 94 f1 00 	call	0x1e2	; 0x1e2 <lcd_putchar>
					mxpos= mxpos + 1;
    13ce:	ed 89       	ldd	r30, Y+21	; 0x15
    13d0:	ef 5f       	subi	r30, 0xFF	; 255
    13d2:	ed 8b       	std	Y+21, r30	; 0x15
					kp_val = (kp_val * 10);
    13d4:	cc 0c       	add	r12, r12
    13d6:	dd 1c       	adc	r13, r13
    13d8:	ee 1c       	adc	r14, r14
    13da:	ff 1c       	adc	r15, r15
    13dc:	d7 01       	movw	r26, r14
    13de:	c6 01       	movw	r24, r12
    13e0:	88 0f       	add	r24, r24
    13e2:	99 1f       	adc	r25, r25
    13e4:	aa 1f       	adc	r26, r26
    13e6:	bb 1f       	adc	r27, r27
    13e8:	88 0f       	add	r24, r24
    13ea:	99 1f       	adc	r25, r25
    13ec:	aa 1f       	adc	r26, r26
    13ee:	bb 1f       	adc	r27, r27
    13f0:	c8 0e       	add	r12, r24
    13f2:	d9 1e       	adc	r13, r25
    13f4:	ea 1e       	adc	r14, r26
    13f6:	fb 1e       	adc	r15, r27
    13f8:	1f c1       	rjmp	.+574    	; 0x1638 <__stack+0xdd9>
				}
				else if (kp_input == 5) // 5
    13fa:	85 30       	cpi	r24, 0x05	; 5
    13fc:	11 f5       	brne	.+68     	; 0x1442 <__stack+0xbe3>
				{
					lcd_gotoxy(y_pos,mxpos);
    13fe:	6d 89       	ldd	r22, Y+21	; 0x15
    1400:	8e 89       	ldd	r24, Y+22	; 0x16
    1402:	0e 94 d5 00 	call	0x1aa	; 0x1aa <lcd_gotoxy>
					lcd_putchar('5');
    1406:	85 e3       	ldi	r24, 0x35	; 53
    1408:	0e 94 f1 00 	call	0x1e2	; 0x1e2 <lcd_putchar>
					mxpos= mxpos + 1;
    140c:	fd 89       	ldd	r31, Y+21	; 0x15
    140e:	ff 5f       	subi	r31, 0xFF	; 255
    1410:	fd 8b       	std	Y+21, r31	; 0x15
					kp_val = (kp_val * 10) + 5;
    1412:	cc 0c       	add	r12, r12
    1414:	dd 1c       	adc	r13, r13
    1416:	ee 1c       	adc	r14, r14
    1418:	ff 1c       	adc	r15, r15
    141a:	d7 01       	movw	r26, r14
    141c:	c6 01       	movw	r24, r12
    141e:	88 0f       	add	r24, r24
    1420:	99 1f       	adc	r25, r25
    1422:	aa 1f       	adc	r26, r26
    1424:	bb 1f       	adc	r27, r27
    1426:	88 0f       	add	r24, r24
    1428:	99 1f       	adc	r25, r25
    142a:	aa 1f       	adc	r26, r26
    142c:	bb 1f       	adc	r27, r27
    142e:	c8 0e       	add	r12, r24
    1430:	d9 1e       	adc	r13, r25
    1432:	ea 1e       	adc	r14, r26
    1434:	fb 1e       	adc	r15, r27
    1436:	25 e0       	ldi	r18, 0x05	; 5
    1438:	c2 0e       	add	r12, r18
    143a:	d1 1c       	adc	r13, r1
    143c:	e1 1c       	adc	r14, r1
    143e:	f1 1c       	adc	r15, r1
    1440:	fb c0       	rjmp	.+502    	; 0x1638 <__stack+0xdd9>
				}
				else if (kp_input == 6) //6
    1442:	86 30       	cpi	r24, 0x06	; 6
    1444:	11 f5       	brne	.+68     	; 0x148a <__stack+0xc2b>
				{
					lcd_gotoxy(y_pos,mxpos);
    1446:	6d 89       	ldd	r22, Y+21	; 0x15
    1448:	8e 89       	ldd	r24, Y+22	; 0x16
    144a:	0e 94 d5 00 	call	0x1aa	; 0x1aa <lcd_gotoxy>
					lcd_putchar('6');
    144e:	86 e3       	ldi	r24, 0x36	; 54
    1450:	0e 94 f1 00 	call	0x1e2	; 0x1e2 <lcd_putchar>
					mxpos= mxpos + 1;
    1454:	3d 89       	ldd	r19, Y+21	; 0x15
    1456:	3f 5f       	subi	r19, 0xFF	; 255
    1458:	3d 8b       	std	Y+21, r19	; 0x15
					kp_val = (kp_val * 10) + 6;
    145a:	cc 0c       	add	r12, r12
    145c:	dd 1c       	adc	r13, r13
    145e:	ee 1c       	adc	r14, r14
    1460:	ff 1c       	adc	r15, r15
    1462:	d7 01       	movw	r26, r14
    1464:	c6 01       	movw	r24, r12
    1466:	88 0f       	add	r24, r24
    1468:	99 1f       	adc	r25, r25
    146a:	aa 1f       	adc	r26, r26
    146c:	bb 1f       	adc	r27, r27
    146e:	88 0f       	add	r24, r24
    1470:	99 1f       	adc	r25, r25
    1472:	aa 1f       	adc	r26, r26
    1474:	bb 1f       	adc	r27, r27
    1476:	c8 0e       	add	r12, r24
    1478:	d9 1e       	adc	r13, r25
    147a:	ea 1e       	adc	r14, r26
    147c:	fb 1e       	adc	r15, r27
    147e:	46 e0       	ldi	r20, 0x06	; 6
    1480:	c4 0e       	add	r12, r20
    1482:	d1 1c       	adc	r13, r1
    1484:	e1 1c       	adc	r14, r1
    1486:	f1 1c       	adc	r15, r1
    1488:	d7 c0       	rjmp	.+430    	; 0x1638 <__stack+0xdd9>
				}
				else if (kp_input == 7) //7
    148a:	87 30       	cpi	r24, 0x07	; 7
    148c:	11 f5       	brne	.+68     	; 0x14d2 <__stack+0xc73>
				{
					lcd_gotoxy(y_pos,mxpos);
    148e:	6d 89       	ldd	r22, Y+21	; 0x15
    1490:	8e 89       	ldd	r24, Y+22	; 0x16
    1492:	0e 94 d5 00 	call	0x1aa	; 0x1aa <lcd_gotoxy>
					lcd_putchar('7');
    1496:	87 e3       	ldi	r24, 0x37	; 55
    1498:	0e 94 f1 00 	call	0x1e2	; 0x1e2 <lcd_putchar>
					mxpos= mxpos + 1;
    149c:	5d 89       	ldd	r21, Y+21	; 0x15
    149e:	5f 5f       	subi	r21, 0xFF	; 255
    14a0:	5d 8b       	std	Y+21, r21	; 0x15
					kp_val = (kp_val * 10) + 7;
    14a2:	cc 0c       	add	r12, r12
    14a4:	dd 1c       	adc	r13, r13
    14a6:	ee 1c       	adc	r14, r14
    14a8:	ff 1c       	adc	r15, r15
    14aa:	d7 01       	movw	r26, r14
    14ac:	c6 01       	movw	r24, r12
    14ae:	88 0f       	add	r24, r24
    14b0:	99 1f       	adc	r25, r25
    14b2:	aa 1f       	adc	r26, r26
    14b4:	bb 1f       	adc	r27, r27
    14b6:	88 0f       	add	r24, r24
    14b8:	99 1f       	adc	r25, r25
    14ba:	aa 1f       	adc	r26, r26
    14bc:	bb 1f       	adc	r27, r27
    14be:	c8 0e       	add	r12, r24
    14c0:	d9 1e       	adc	r13, r25
    14c2:	ea 1e       	adc	r14, r26
    14c4:	fb 1e       	adc	r15, r27
    14c6:	87 e0       	ldi	r24, 0x07	; 7
    14c8:	c8 0e       	add	r12, r24
    14ca:	d1 1c       	adc	r13, r1
    14cc:	e1 1c       	adc	r14, r1
    14ce:	f1 1c       	adc	r15, r1
    14d0:	b3 c0       	rjmp	.+358    	; 0x1638 <__stack+0xdd9>
				}
				else if (kp_input == 8) //8
    14d2:	88 30       	cpi	r24, 0x08	; 8
    14d4:	11 f5       	brne	.+68     	; 0x151a <__stack+0xcbb>
				{
					lcd_gotoxy(y_pos,mxpos);
    14d6:	6d 89       	ldd	r22, Y+21	; 0x15
    14d8:	8e 89       	ldd	r24, Y+22	; 0x16
    14da:	0e 94 d5 00 	call	0x1aa	; 0x1aa <lcd_gotoxy>
					lcd_putchar('8');
    14de:	88 e3       	ldi	r24, 0x38	; 56
    14e0:	0e 94 f1 00 	call	0x1e2	; 0x1e2 <lcd_putchar>
					mxpos= mxpos + 1;
    14e4:	9d 89       	ldd	r25, Y+21	; 0x15
    14e6:	9f 5f       	subi	r25, 0xFF	; 255
    14e8:	9d 8b       	std	Y+21, r25	; 0x15
					kp_val = (kp_val * 10) + 8;
    14ea:	cc 0c       	add	r12, r12
    14ec:	dd 1c       	adc	r13, r13
    14ee:	ee 1c       	adc	r14, r14
    14f0:	ff 1c       	adc	r15, r15
    14f2:	d7 01       	movw	r26, r14
    14f4:	c6 01       	movw	r24, r12
    14f6:	88 0f       	add	r24, r24
    14f8:	99 1f       	adc	r25, r25
    14fa:	aa 1f       	adc	r26, r26
    14fc:	bb 1f       	adc	r27, r27
    14fe:	88 0f       	add	r24, r24
    1500:	99 1f       	adc	r25, r25
    1502:	aa 1f       	adc	r26, r26
    1504:	bb 1f       	adc	r27, r27
    1506:	c8 0e       	add	r12, r24
    1508:	d9 1e       	adc	r13, r25
    150a:	ea 1e       	adc	r14, r26
    150c:	fb 1e       	adc	r15, r27
    150e:	a8 e0       	ldi	r26, 0x08	; 8
    1510:	ca 0e       	add	r12, r26
    1512:	d1 1c       	adc	r13, r1
    1514:	e1 1c       	adc	r14, r1
    1516:	f1 1c       	adc	r15, r1
    1518:	8f c0       	rjmp	.+286    	; 0x1638 <__stack+0xdd9>
				}
				else if (kp_input == 1) //1
    151a:	81 30       	cpi	r24, 0x01	; 1
    151c:	11 f5       	brne	.+68     	; 0x1562 <__stack+0xd03>
				{
					lcd_gotoxy(y_pos,mxpos);
    151e:	6d 89       	ldd	r22, Y+21	; 0x15
    1520:	8e 89       	ldd	r24, Y+22	; 0x16
    1522:	0e 94 d5 00 	call	0x1aa	; 0x1aa <lcd_gotoxy>
					lcd_putchar('1');
    1526:	81 e3       	ldi	r24, 0x31	; 49
    1528:	0e 94 f1 00 	call	0x1e2	; 0x1e2 <lcd_putchar>
					mxpos= mxpos + 1;
    152c:	bd 89       	ldd	r27, Y+21	; 0x15
    152e:	bf 5f       	subi	r27, 0xFF	; 255
    1530:	bd 8b       	std	Y+21, r27	; 0x15
					kp_val = (kp_val * 10) + 1;
    1532:	cc 0c       	add	r12, r12
    1534:	dd 1c       	adc	r13, r13
    1536:	ee 1c       	adc	r14, r14
    1538:	ff 1c       	adc	r15, r15
    153a:	d7 01       	movw	r26, r14
    153c:	c6 01       	movw	r24, r12
    153e:	88 0f       	add	r24, r24
    1540:	99 1f       	adc	r25, r25
    1542:	aa 1f       	adc	r26, r26
    1544:	bb 1f       	adc	r27, r27
    1546:	88 0f       	add	r24, r24
    1548:	99 1f       	adc	r25, r25
    154a:	aa 1f       	adc	r26, r26
    154c:	bb 1f       	adc	r27, r27
    154e:	c8 0e       	add	r12, r24
    1550:	d9 1e       	adc	r13, r25
    1552:	ea 1e       	adc	r14, r26
    1554:	fb 1e       	adc	r15, r27
    1556:	ef ef       	ldi	r30, 0xFF	; 255
    1558:	ce 1a       	sub	r12, r30
    155a:	de 0a       	sbc	r13, r30
    155c:	ee 0a       	sbc	r14, r30
    155e:	fe 0a       	sbc	r15, r30
    1560:	6b c0       	rjmp	.+214    	; 0x1638 <__stack+0xdd9>
				}
				else if (kp_input == 2) //2
    1562:	82 30       	cpi	r24, 0x02	; 2
    1564:	11 f5       	brne	.+68     	; 0x15aa <__stack+0xd4b>
				{
					lcd_gotoxy(y_pos,mxpos);
    1566:	6d 89       	ldd	r22, Y+21	; 0x15
    1568:	8e 89       	ldd	r24, Y+22	; 0x16
    156a:	0e 94 d5 00 	call	0x1aa	; 0x1aa <lcd_gotoxy>
					lcd_putchar('2');
    156e:	82 e3       	ldi	r24, 0x32	; 50
    1570:	0e 94 f1 00 	call	0x1e2	; 0x1e2 <lcd_putchar>
					mxpos= mxpos + 1;
    1574:	fd 89       	ldd	r31, Y+21	; 0x15
    1576:	ff 5f       	subi	r31, 0xFF	; 255
    1578:	fd 8b       	std	Y+21, r31	; 0x15
					kp_val = (kp_val * 10) + 2;
    157a:	cc 0c       	add	r12, r12
    157c:	dd 1c       	adc	r13, r13
    157e:	ee 1c       	adc	r14, r14
    1580:	ff 1c       	adc	r15, r15
    1582:	d7 01       	movw	r26, r14
    1584:	c6 01       	movw	r24, r12
    1586:	88 0f       	add	r24, r24
    1588:	99 1f       	adc	r25, r25
    158a:	aa 1f       	adc	r26, r26
    158c:	bb 1f       	adc	r27, r27
    158e:	88 0f       	add	r24, r24
    1590:	99 1f       	adc	r25, r25
    1592:	aa 1f       	adc	r26, r26
    1594:	bb 1f       	adc	r27, r27
    1596:	c8 0e       	add	r12, r24
    1598:	d9 1e       	adc	r13, r25
    159a:	ea 1e       	adc	r14, r26
    159c:	fb 1e       	adc	r15, r27
    159e:	22 e0       	ldi	r18, 0x02	; 2
    15a0:	c2 0e       	add	r12, r18
    15a2:	d1 1c       	adc	r13, r1
    15a4:	e1 1c       	adc	r14, r1
    15a6:	f1 1c       	adc	r15, r1
    15a8:	47 c0       	rjmp	.+142    	; 0x1638 <__stack+0xdd9>
				}
				else if (kp_input == 3) //3
    15aa:	83 30       	cpi	r24, 0x03	; 3
    15ac:	11 f5       	brne	.+68     	; 0x15f2 <__stack+0xd93>
				{
					lcd_gotoxy(y_pos,mxpos);
    15ae:	6d 89       	ldd	r22, Y+21	; 0x15
    15b0:	8e 89       	ldd	r24, Y+22	; 0x16
    15b2:	0e 94 d5 00 	call	0x1aa	; 0x1aa <lcd_gotoxy>
					lcd_putchar('3');
    15b6:	83 e3       	ldi	r24, 0x33	; 51
    15b8:	0e 94 f1 00 	call	0x1e2	; 0x1e2 <lcd_putchar>
					mxpos= mxpos + 1;
    15bc:	3d 89       	ldd	r19, Y+21	; 0x15
    15be:	3f 5f       	subi	r19, 0xFF	; 255
    15c0:	3d 8b       	std	Y+21, r19	; 0x15
					kp_val = (kp_val * 10) + 3;
    15c2:	cc 0c       	add	r12, r12
    15c4:	dd 1c       	adc	r13, r13
    15c6:	ee 1c       	adc	r14, r14
    15c8:	ff 1c       	adc	r15, r15
    15ca:	d7 01       	movw	r26, r14
    15cc:	c6 01       	movw	r24, r12
    15ce:	88 0f       	add	r24, r24
    15d0:	99 1f       	adc	r25, r25
    15d2:	aa 1f       	adc	r26, r26
    15d4:	bb 1f       	adc	r27, r27
    15d6:	88 0f       	add	r24, r24
    15d8:	99 1f       	adc	r25, r25
    15da:	aa 1f       	adc	r26, r26
    15dc:	bb 1f       	adc	r27, r27
    15de:	c8 0e       	add	r12, r24
    15e0:	d9 1e       	adc	r13, r25
    15e2:	ea 1e       	adc	r14, r26
    15e4:	fb 1e       	adc	r15, r27
    15e6:	43 e0       	ldi	r20, 0x03	; 3
    15e8:	c4 0e       	add	r12, r20
    15ea:	d1 1c       	adc	r13, r1
    15ec:	e1 1c       	adc	r14, r1
    15ee:	f1 1c       	adc	r15, r1
    15f0:	23 c0       	rjmp	.+70     	; 0x1638 <__stack+0xdd9>
				}
				else if (kp_input == 4) //4
    15f2:	84 30       	cpi	r24, 0x04	; 4
    15f4:	09 f5       	brne	.+66     	; 0x1638 <__stack+0xdd9>
				{
					lcd_gotoxy(y_pos,mxpos);
    15f6:	6d 89       	ldd	r22, Y+21	; 0x15
    15f8:	8e 89       	ldd	r24, Y+22	; 0x16
    15fa:	0e 94 d5 00 	call	0x1aa	; 0x1aa <lcd_gotoxy>
					lcd_putchar('4');
    15fe:	84 e3       	ldi	r24, 0x34	; 52
    1600:	0e 94 f1 00 	call	0x1e2	; 0x1e2 <lcd_putchar>
					mxpos= mxpos + 1;
    1604:	5d 89       	ldd	r21, Y+21	; 0x15
    1606:	5f 5f       	subi	r21, 0xFF	; 255
    1608:	5d 8b       	std	Y+21, r21	; 0x15
					kp_val = (kp_val * 10) + 4;
    160a:	cc 0c       	add	r12, r12
    160c:	dd 1c       	adc	r13, r13
    160e:	ee 1c       	adc	r14, r14
    1610:	ff 1c       	adc	r15, r15
    1612:	d7 01       	movw	r26, r14
    1614:	c6 01       	movw	r24, r12
    1616:	88 0f       	add	r24, r24
    1618:	99 1f       	adc	r25, r25
    161a:	aa 1f       	adc	r26, r26
    161c:	bb 1f       	adc	r27, r27
    161e:	88 0f       	add	r24, r24
    1620:	99 1f       	adc	r25, r25
    1622:	aa 1f       	adc	r26, r26
    1624:	bb 1f       	adc	r27, r27
    1626:	c8 0e       	add	r12, r24
    1628:	d9 1e       	adc	r13, r25
    162a:	ea 1e       	adc	r14, r26
    162c:	fb 1e       	adc	r15, r27
    162e:	84 e0       	ldi	r24, 0x04	; 4
    1630:	c8 0e       	add	r12, r24
    1632:	d1 1c       	adc	r13, r1
    1634:	e1 1c       	adc	r14, r1
    1636:	f1 1c       	adc	r15, r1
				}
				if (mxpos == 10)
    1638:	9d 89       	ldd	r25, Y+21	; 0x15
    163a:	9a 30       	cpi	r25, 0x0A	; 10
    163c:	29 f4       	brne	.+10     	; 0x1648 <__stack+0xde9>
				{
					lcd_cmd(0x0C);
    163e:	8c e0       	ldi	r24, 0x0C	; 12
    1640:	0e 94 5e 00 	call	0xbc	; 0xbc <lcd_cmd>
    1644:	01 c0       	rjmp	.+2      	; 0x1648 <__stack+0xde9>
    1646:	00 c0       	rjmp	.+0      	; 0x1648 <__stack+0xde9>
				}
			}
			while (scan_kpd_4x4());
    1648:	0e 94 63 02 	call	0x4c6	; 0x4c6 <scan_kpd_4x4>
    164c:	89 2b       	or	r24, r25
    164e:	e1 f7       	brne	.-8      	; 0x1648 <__stack+0xde9>
    1650:	8f e7       	ldi	r24, 0x7F	; 127
    1652:	98 e3       	ldi	r25, 0x38	; 56
    1654:	a1 e0       	ldi	r26, 0x01	; 1
    1656:	81 50       	subi	r24, 0x01	; 1
    1658:	90 40       	sbci	r25, 0x00	; 0
    165a:	a0 40       	sbci	r26, 0x00	; 0
    165c:	e1 f7       	brne	.-8      	; 0x1656 <__stack+0xdf7>
    165e:	00 c0       	rjmp	.+0      	; 0x1660 <__stack+0xe01>
    1660:	00 00       	nop
    1662:	f1 ca       	rjmp	.-2590   	; 0xc46 <__stack+0x3e7>
    1664:	ad 8a       	std	Y+21, r10	; 0x15
    1666:	1e 8b       	std	Y+22, r17	; 0x16
		{
			if (kp_input == 13)
			{
				water = 70;
				temp = 25;
				time = 2;
    1668:	b2 e0       	ldi	r27, 0x02	; 2
    166a:	bd 83       	std	Y+5, r27	; 0x05
    166c:	1e 82       	std	Y+6, r1	; 0x06
    166e:	1f 82       	std	Y+7, r1	; 0x07
    1670:	18 86       	std	Y+8, r1	; 0x08
		if ((kp_input = scan_kpd_4x4()))  //scan for keypad data
		{
			if (kp_input == 13)
			{
				water = 70;
				temp = 25;
    1672:	e9 e1       	ldi	r30, 0x19	; 25
    1674:	e9 87       	std	Y+9, r30	; 0x09
    1676:	1a 86       	std	Y+10, r1	; 0x0a
    1678:	1b 86       	std	Y+11, r1	; 0x0b
    167a:	1c 86       	std	Y+12, r1	; 0x0c
	{
		if ((kp_input = scan_kpd_4x4()))  //scan for keypad data
		{
			if (kp_input == 13)
			{
				water = 70;
    167c:	26 e4       	ldi	r18, 0x46	; 70
    167e:	30 e0       	ldi	r19, 0x00	; 0
    1680:	40 e0       	ldi	r20, 0x00	; 0
    1682:	50 e0       	ldi	r21, 0x00	; 0
    1684:	29 83       	std	Y+1, r18	; 0x01
    1686:	3a 83       	std	Y+2, r19	; 0x02
    1688:	4b 83       	std	Y+3, r20	; 0x03
    168a:	5c 83       	std	Y+4, r21	; 0x04
    168c:	44 c0       	rjmp	.+136    	; 0x1716 <__stack+0xeb7>
    168e:	ad 8a       	std	Y+21, r10	; 0x15
    1690:	1e 8b       	std	Y+22, r17	; 0x16
			}
			else if (kp_input == 14)
			{
				water = 70;
				temp = 50;
				time = 2;
    1692:	32 e0       	ldi	r19, 0x02	; 2
    1694:	3d 83       	std	Y+5, r19	; 0x05
    1696:	1e 82       	std	Y+6, r1	; 0x06
    1698:	1f 82       	std	Y+7, r1	; 0x07
    169a:	18 86       	std	Y+8, r1	; 0x08
				goto confirmation;
			}
			else if (kp_input == 14)
			{
				water = 70;
				temp = 50;
    169c:	82 e3       	ldi	r24, 0x32	; 50
    169e:	90 e0       	ldi	r25, 0x00	; 0
    16a0:	a0 e0       	ldi	r26, 0x00	; 0
    16a2:	b0 e0       	ldi	r27, 0x00	; 0
    16a4:	89 87       	std	Y+9, r24	; 0x09
    16a6:	9a 87       	std	Y+10, r25	; 0x0a
    16a8:	ab 87       	std	Y+11, r26	; 0x0b
    16aa:	bc 87       	std	Y+12, r27	; 0x0c
				time = 2;
				goto confirmation;
			}
			else if (kp_input == 14)
			{
				water = 70;
    16ac:	26 e4       	ldi	r18, 0x46	; 70
    16ae:	30 e0       	ldi	r19, 0x00	; 0
    16b0:	40 e0       	ldi	r20, 0x00	; 0
    16b2:	50 e0       	ldi	r21, 0x00	; 0
    16b4:	29 83       	std	Y+1, r18	; 0x01
    16b6:	3a 83       	std	Y+2, r19	; 0x02
    16b8:	4b 83       	std	Y+3, r20	; 0x03
    16ba:	5c 83       	std	Y+4, r21	; 0x04
    16bc:	2c c0       	rjmp	.+88     	; 0x1716 <__stack+0xeb7>
    16be:	ad 8a       	std	Y+21, r10	; 0x15
    16c0:	1e 8b       	std	Y+22, r17	; 0x16
			}
			else if (kp_input == 15)
			{
				water = 50;
				temp = 50;
				time = 2;
    16c2:	32 e0       	ldi	r19, 0x02	; 2
    16c4:	3d 83       	std	Y+5, r19	; 0x05
    16c6:	1e 82       	std	Y+6, r1	; 0x06
    16c8:	1f 82       	std	Y+7, r1	; 0x07
    16ca:	18 86       	std	Y+8, r1	; 0x08
				goto confirmation;
			}
			else if (kp_input == 15)
			{
				water = 50;
				temp = 50;
    16cc:	82 e3       	ldi	r24, 0x32	; 50
    16ce:	90 e0       	ldi	r25, 0x00	; 0
    16d0:	a0 e0       	ldi	r26, 0x00	; 0
    16d2:	b0 e0       	ldi	r27, 0x00	; 0
    16d4:	89 87       	std	Y+9, r24	; 0x09
    16d6:	9a 87       	std	Y+10, r25	; 0x0a
    16d8:	ab 87       	std	Y+11, r26	; 0x0b
    16da:	bc 87       	std	Y+12, r27	; 0x0c
				time = 2;
				goto confirmation;
			}
			else if (kp_input == 15)
			{
				water = 50;
    16dc:	22 e3       	ldi	r18, 0x32	; 50
    16de:	30 e0       	ldi	r19, 0x00	; 0
    16e0:	40 e0       	ldi	r20, 0x00	; 0
    16e2:	50 e0       	ldi	r21, 0x00	; 0
    16e4:	29 83       	std	Y+1, r18	; 0x01
    16e6:	3a 83       	std	Y+2, r19	; 0x02
    16e8:	4b 83       	std	Y+3, r20	; 0x03
    16ea:	5c 83       	std	Y+4, r21	; 0x04
    16ec:	14 c0       	rjmp	.+40     	; 0x1716 <__stack+0xeb7>
    16ee:	ad 8a       	std	Y+21, r10	; 0x15
    16f0:	1e 8b       	std	Y+22, r17	; 0x16
			}
			else if (kp_input == 16)
			{
				water = 60;
				temp = 50;
				time = 2;
    16f2:	32 e0       	ldi	r19, 0x02	; 2
    16f4:	3d 83       	std	Y+5, r19	; 0x05
    16f6:	1e 82       	std	Y+6, r1	; 0x06
    16f8:	1f 82       	std	Y+7, r1	; 0x07
    16fa:	18 86       	std	Y+8, r1	; 0x08
				goto confirmation;
			}
			else if (kp_input == 16)
			{
				water = 60;
				temp = 50;
    16fc:	82 e3       	ldi	r24, 0x32	; 50
    16fe:	90 e0       	ldi	r25, 0x00	; 0
    1700:	a0 e0       	ldi	r26, 0x00	; 0
    1702:	b0 e0       	ldi	r27, 0x00	; 0
    1704:	89 87       	std	Y+9, r24	; 0x09
    1706:	9a 87       	std	Y+10, r25	; 0x0a
    1708:	ab 87       	std	Y+11, r26	; 0x0b
    170a:	bc 87       	std	Y+12, r27	; 0x0c
				time = 2;
				goto confirmation;
			}
			else if (kp_input == 16)
			{
				water = 60;
    170c:	9c e3       	ldi	r25, 0x3C	; 60
    170e:	99 83       	std	Y+1, r25	; 0x01
    1710:	1a 82       	std	Y+2, r1	; 0x02
    1712:	1b 82       	std	Y+3, r1	; 0x03
    1714:	1c 82       	std	Y+4, r1	; 0x04
		}
	}

//End task Input system	
confirmation:
	lcd_clear();
    1716:	0e 94 88 00 	call	0x110	; 0x110 <lcd_clear>
	lcd_gotoxy(0,0);
    171a:	60 e0       	ldi	r22, 0x00	; 0
    171c:	80 e0       	ldi	r24, 0x00	; 0
    171e:	0e 94 d5 00 	call	0x1aa	; 0x1aa <lcd_gotoxy>
	lcd_puts("WATER:    Liter");
    1722:	8e e0       	ldi	r24, 0x0E	; 14
    1724:	91 e0       	ldi	r25, 0x01	; 1
    1726:	0e 94 1b 01 	call	0x236	; 0x236 <lcd_puts>
	lcd_gotoxy(0,6);
    172a:	66 e0       	ldi	r22, 0x06	; 6
    172c:	80 e0       	ldi	r24, 0x00	; 0
    172e:	0e 94 d5 00 	call	0x1aa	; 0x1aa <lcd_gotoxy>
	lcd_putsint(water,4);
    1732:	19 81       	ldd	r17, Y+1	; 0x01
    1734:	aa 81       	ldd	r26, Y+2	; 0x02
    1736:	ab 8f       	std	Y+27, r26	; 0x1b
    1738:	bb 81       	ldd	r27, Y+3	; 0x03
    173a:	bc 8f       	std	Y+28, r27	; 0x1c
    173c:	ec 81       	ldd	r30, Y+4	; 0x04
    173e:	ed 8f       	std	Y+29, r30	; 0x1d
    1740:	44 e0       	ldi	r20, 0x04	; 4
    1742:	69 81       	ldd	r22, Y+1	; 0x01
    1744:	7a 81       	ldd	r23, Y+2	; 0x02
    1746:	8b 81       	ldd	r24, Y+3	; 0x03
    1748:	9c 81       	ldd	r25, Y+4	; 0x04
    174a:	0e 94 b7 01 	call	0x36e	; 0x36e <lcd_putsint>
	lcd_gotoxy(1,0);
    174e:	60 e0       	ldi	r22, 0x00	; 0
    1750:	81 e0       	ldi	r24, 0x01	; 1
    1752:	0e 94 d5 00 	call	0x1aa	; 0x1aa <lcd_gotoxy>
	lcd_puts("TEMP.:    C");
    1756:	8e e1       	ldi	r24, 0x1E	; 30
    1758:	91 e0       	ldi	r25, 0x01	; 1
    175a:	0e 94 1b 01 	call	0x236	; 0x236 <lcd_puts>
	lcd_gotoxy(1,6);
    175e:	66 e0       	ldi	r22, 0x06	; 6
    1760:	81 e0       	ldi	r24, 0x01	; 1
    1762:	0e 94 d5 00 	call	0x1aa	; 0x1aa <lcd_gotoxy>
	lcd_putsint(temp,4);
    1766:	f9 85       	ldd	r31, Y+9	; 0x09
    1768:	fe 8f       	std	Y+30, r31	; 0x1e
    176a:	8a 84       	ldd	r8, Y+10	; 0x0a
    176c:	9b 84       	ldd	r9, Y+11	; 0x0b
    176e:	ac 84       	ldd	r10, Y+12	; 0x0c
    1770:	44 e0       	ldi	r20, 0x04	; 4
    1772:	69 85       	ldd	r22, Y+9	; 0x09
    1774:	7a 85       	ldd	r23, Y+10	; 0x0a
    1776:	8b 85       	ldd	r24, Y+11	; 0x0b
    1778:	9c 85       	ldd	r25, Y+12	; 0x0c
    177a:	0e 94 b7 01 	call	0x36e	; 0x36e <lcd_putsint>
	lcd_gotoxy(2,0);
    177e:	60 e0       	ldi	r22, 0x00	; 0
    1780:	82 e0       	ldi	r24, 0x02	; 2
    1782:	0e 94 d5 00 	call	0x1aa	; 0x1aa <lcd_gotoxy>
	lcd_puts("TIME :    minute");
    1786:	8b e2       	ldi	r24, 0x2B	; 43
    1788:	91 e0       	ldi	r25, 0x01	; 1
    178a:	0e 94 1b 01 	call	0x236	; 0x236 <lcd_puts>
	lcd_gotoxy(2,6);
    178e:	66 e0       	ldi	r22, 0x06	; 6
    1790:	82 e0       	ldi	r24, 0x02	; 2
    1792:	0e 94 d5 00 	call	0x1aa	; 0x1aa <lcd_gotoxy>
	lcd_putsint(time,4);
    1796:	4d 80       	ldd	r4, Y+5	; 0x05
    1798:	5e 80       	ldd	r5, Y+6	; 0x06
    179a:	6f 80       	ldd	r6, Y+7	; 0x07
    179c:	78 84       	ldd	r7, Y+8	; 0x08
    179e:	44 e0       	ldi	r20, 0x04	; 4
    17a0:	6d 81       	ldd	r22, Y+5	; 0x05
    17a2:	7e 81       	ldd	r23, Y+6	; 0x06
    17a4:	8f 81       	ldd	r24, Y+7	; 0x07
    17a6:	98 85       	ldd	r25, Y+8	; 0x08
    17a8:	0e 94 b7 01 	call	0x36e	; 0x36e <lcd_putsint>
	lcd_gotoxy(3,0);
    17ac:	60 e0       	ldi	r22, 0x00	; 0
    17ae:	83 e0       	ldi	r24, 0x03	; 3
    17b0:	0e 94 d5 00 	call	0x1aa	; 0x1aa <lcd_gotoxy>
	lcd_puts("*>WRONG    #>CORRECT");
    17b4:	81 e6       	ldi	r24, 0x61	; 97
    17b6:	92 e0       	ldi	r25, 0x02	; 2
    17b8:	0e 94 1b 01 	call	0x236	; 0x236 <lcd_puts>
	
	while(scan_kpd_4x4());
    17bc:	0e 94 63 02 	call	0x4c6	; 0x4c6 <scan_kpd_4x4>
    17c0:	89 2b       	or	r24, r25
    17c2:	e1 f7       	brne	.-8      	; 0x17bc <__stack+0xf5d>
    17c4:	4d 89       	ldd	r20, Y+21	; 0x15
    17c6:	5e 89       	ldd	r21, Y+22	; 0x16
    17c8:	8f e7       	ldi	r24, 0x7F	; 127
    17ca:	98 e3       	ldi	r25, 0x38	; 56
    17cc:	a1 e0       	ldi	r26, 0x01	; 1
    17ce:	81 50       	subi	r24, 0x01	; 1
    17d0:	90 40       	sbci	r25, 0x00	; 0
    17d2:	a0 40       	sbci	r26, 0x00	; 0
    17d4:	e1 f7       	brne	.-8      	; 0x17ce <__stack+0xf6f>
    17d6:	00 c0       	rjmp	.+0      	; 0x17d8 <__stack+0xf79>
    17d8:	00 00       	nop
    17da:	4d 8b       	std	Y+21, r20	; 0x15
    17dc:	5e 8b       	std	Y+22, r21	; 0x16
	_delay_ms(100);
	while(1)
	{
		if ((kp_input = scan_kpd_4x4()))  //scan for keypad data
    17de:	0e 94 63 02 	call	0x4c6	; 0x4c6 <scan_kpd_4x4>
    17e2:	88 23       	and	r24, r24
    17e4:	e1 f3       	breq	.-8      	; 0x17de <__stack+0xf7f>
		{
			if (kp_input == 11)
    17e6:	8b 30       	cpi	r24, 0x0B	; 11
    17e8:	09 f4       	brne	.+2      	; 0x17ec <__stack+0xf8d>
    17ea:	57 c9       	rjmp	.-3410   	; 0xa9a <__stack+0x23b>
			{
				goto optin_select;
			}
			else if (kp_input == 12)
    17ec:	8c 30       	cpi	r24, 0x0C	; 12
    17ee:	b9 f7       	brne	.-18     	; 0x17de <__stack+0xf7f>
	}
	
	//*********************************************************************************************************************
	//Operation and progress mode ***************************************
	//*******************************************************************************************************************
		lcd_clear();
    17f0:	0e 94 88 00 	call	0x110	; 0x110 <lcd_clear>
		lcd_gotoxy(0,0);
    17f4:	60 e0       	ldi	r22, 0x00	; 0
    17f6:	80 e0       	ldi	r24, 0x00	; 0
    17f8:	0e 94 d5 00 	call	0x1aa	; 0x1aa <lcd_gotoxy>
		lcd_puts("WATER0000/    LITER");
    17fc:	86 e7       	ldi	r24, 0x76	; 118
    17fe:	92 e0       	ldi	r25, 0x02	; 2
    1800:	0e 94 1b 01 	call	0x236	; 0x236 <lcd_puts>
		lcd_gotoxy(0,11);
    1804:	6b e0       	ldi	r22, 0x0B	; 11
    1806:	80 e0       	ldi	r24, 0x00	; 0
    1808:	0e 94 d5 00 	call	0x1aa	; 0x1aa <lcd_gotoxy>
		lcd_putsint(water,4);
    180c:	44 e0       	ldi	r20, 0x04	; 4
    180e:	61 2f       	mov	r22, r17
    1810:	7b 8d       	ldd	r23, Y+27	; 0x1b
    1812:	8c 8d       	ldd	r24, Y+28	; 0x1c
    1814:	9d 8d       	ldd	r25, Y+29	; 0x1d
    1816:	0e 94 b7 01 	call	0x36e	; 0x36e <lcd_putsint>
		lcd_gotoxy(1,0);
    181a:	60 e0       	ldi	r22, 0x00	; 0
    181c:	81 e0       	ldi	r24, 0x01	; 1
    181e:	0e 94 d5 00 	call	0x1aa	; 0x1aa <lcd_gotoxy>
		lcd_puts("TEMP ..../    C");
    1822:	8b e8       	ldi	r24, 0x8B	; 139
    1824:	92 e0       	ldi	r25, 0x02	; 2
    1826:	0e 94 1b 01 	call	0x236	; 0x236 <lcd_puts>
		lcd_gotoxy(1,11);
    182a:	6b e0       	ldi	r22, 0x0B	; 11
    182c:	81 e0       	ldi	r24, 0x01	; 1
    182e:	0e 94 d5 00 	call	0x1aa	; 0x1aa <lcd_gotoxy>
		lcd_putsint(temp,4);
    1832:	44 e0       	ldi	r20, 0x04	; 4
    1834:	6e 8d       	ldd	r22, Y+30	; 0x1e
    1836:	78 2d       	mov	r23, r8
    1838:	89 2d       	mov	r24, r9
    183a:	9a 2d       	mov	r25, r10
    183c:	0e 94 b7 01 	call	0x36e	; 0x36e <lcd_putsint>
		lcd_gotoxy(2,0);
    1840:	60 e0       	ldi	r22, 0x00	; 0
    1842:	82 e0       	ldi	r24, 0x02	; 2
    1844:	0e 94 d5 00 	call	0x1aa	; 0x1aa <lcd_gotoxy>
		lcd_puts("TIME 00:00/   Min.");
    1848:	8d e9       	ldi	r24, 0x9D	; 157
    184a:	92 e0       	ldi	r25, 0x02	; 2
    184c:	0e 94 1b 01 	call	0x236	; 0x236 <lcd_puts>
		lcd_gotoxy(2,12);
    1850:	6c e0       	ldi	r22, 0x0C	; 12
    1852:	82 e0       	ldi	r24, 0x02	; 2
    1854:	0e 94 d5 00 	call	0x1aa	; 0x1aa <lcd_gotoxy>
		lcd_putsint(time,3);
    1858:	43 e0       	ldi	r20, 0x03	; 3
    185a:	64 2d       	mov	r22, r4
    185c:	75 2d       	mov	r23, r5
    185e:	86 2d       	mov	r24, r6
    1860:	97 2d       	mov	r25, r7
    1862:	0e 94 b7 01 	call	0x36e	; 0x36e <lcd_putsint>
		lcd_gotoxy(3,0);
    1866:	60 e0       	ldi	r22, 0x00	; 0
    1868:	83 e0       	ldi	r24, 0x03	; 3
    186a:	0e 94 d5 00 	call	0x1aa	; 0x1aa <lcd_gotoxy>
		lcd_puts("C>CANCEL      #>SKIP");
    186e:	81 eb       	ldi	r24, 0xB1	; 177
    1870:	92 e0       	ldi	r25, 0x02	; 2
    1872:	0e 94 1b 01 	call	0x236	; 0x236 <lcd_puts>
    1876:	ff e7       	ldi	r31, 0x7F	; 127
    1878:	28 e3       	ldi	r18, 0x38	; 56
    187a:	31 e0       	ldi	r19, 0x01	; 1
    187c:	f1 50       	subi	r31, 0x01	; 1
    187e:	20 40       	sbci	r18, 0x00	; 0
    1880:	30 40       	sbci	r19, 0x00	; 0
    1882:	e1 f7       	brne	.-8      	; 0x187c <__stack+0x101d>
    1884:	00 c0       	rjmp	.+0      	; 0x1886 <__stack+0x1027>
    1886:	00 00       	nop
		
		//Applying one by one method to calculate water, temperature and time measurement
		
	_delay_ms(100);
	i_water = 0;
    1888:	10 92 b1 03 	sts	0x03B1, r1
    188c:	10 92 b2 03 	sts	0x03B2, r1
    1890:	10 92 b3 03 	sts	0x03B3, r1
    1894:	10 92 b4 03 	sts	0x03B4, r1
	i_time = 0;
    1898:	10 92 b9 03 	sts	0x03B9, r1
    189c:	10 92 ba 03 	sts	0x03BA, r1
    18a0:	10 92 bb 03 	sts	0x03BB, r1
    18a4:	10 92 bc 03 	sts	0x03BC, r1
    18a8:	6d 88       	ldd	r6, Y+21	; 0x15
    18aa:	7e 88       	ldd	r7, Y+22	; 0x16
    18ac:	43 c0       	rjmp	.+134    	; 0x1934 <__stack+0x10d5>
	while (1) //This while loop is for water valve open after 1 second
	{
		if (i_time > 0)
    18ae:	80 91 b9 03 	lds	r24, 0x03B9
    18b2:	90 91 ba 03 	lds	r25, 0x03BA
    18b6:	a0 91 bb 03 	lds	r26, 0x03BB
    18ba:	b0 91 bc 03 	lds	r27, 0x03BC
    18be:	89 2b       	or	r24, r25
    18c0:	8a 2b       	or	r24, r26
    18c2:	8b 2b       	or	r24, r27
    18c4:	b9 f1       	breq	.+110    	; 0x1934 <__stack+0x10d5>
    18c6:	6d 8a       	std	Y+21, r6	; 0x15
    18c8:	7e 8a       	std	Y+22, r7	; 0x16
		{
			PORTB |= (1<<2);  //This port pin is for water valve on
    18ca:	c2 9a       	sbi	0x18, 2	; 24
			lcd_gotoxy(0,5);
    18cc:	65 e0       	ldi	r22, 0x05	; 5
    18ce:	80 e0       	ldi	r24, 0x00	; 0
    18d0:	0e 94 d5 00 	call	0x1aa	; 0x1aa <lcd_gotoxy>
			lcd_putchar('~');
    18d4:	8e e7       	ldi	r24, 0x7E	; 126
    18d6:	0e 94 f1 00 	call	0x1e2	; 0x1e2 <lcd_putchar>
    18da:	4f e7       	ldi	r20, 0x7F	; 127
    18dc:	58 e3       	ldi	r21, 0x38	; 56
    18de:	81 e0       	ldi	r24, 0x01	; 1
    18e0:	41 50       	subi	r20, 0x01	; 1
    18e2:	50 40       	sbci	r21, 0x00	; 0
    18e4:	80 40       	sbci	r24, 0x00	; 0
    18e6:	e1 f7       	brne	.-8      	; 0x18e0 <__stack+0x1081>
    18e8:	00 c0       	rjmp	.+0      	; 0x18ea <__stack+0x108b>
    18ea:	00 00       	nop
		while(scan_kpd_4x4());
	}
	_delay_ms(100);
	while (1) //This while loop is for water calculation
	{
		water_read = (i_water * 100UL)/water_flow_divider; //This is the assumption to calculate water 1 liter = 2 rotation of propeller
    18ec:	20 91 b1 03 	lds	r18, 0x03B1
    18f0:	30 91 b2 03 	lds	r19, 0x03B2
    18f4:	40 91 b3 03 	lds	r20, 0x03B3
    18f8:	50 91 b4 03 	lds	r21, 0x03B4
    18fc:	a4 e6       	ldi	r26, 0x64	; 100
    18fe:	b0 e0       	ldi	r27, 0x00	; 0
    1900:	0e 94 ee 12 	call	0x25dc	; 0x25dc <__muluhisi3>
    1904:	20 91 a9 03 	lds	r18, 0x03A9
    1908:	30 91 aa 03 	lds	r19, 0x03AA
    190c:	40 91 ab 03 	lds	r20, 0x03AB
    1910:	50 91 ac 03 	lds	r21, 0x03AC
    1914:	0e 94 9e 12 	call	0x253c	; 0x253c <__udivmodsi4>
    1918:	2f 8b       	std	Y+23, r18	; 0x17
    191a:	38 8f       	std	Y+24, r19	; 0x18
    191c:	49 8f       	std	Y+25, r20	; 0x19
    191e:	5a 8f       	std	Y+26, r21	; 0x1a
		if (water_read >= water)
    1920:	89 81       	ldd	r24, Y+1	; 0x01
    1922:	9a 81       	ldd	r25, Y+2	; 0x02
    1924:	ab 81       	ldd	r26, Y+3	; 0x03
    1926:	bc 81       	ldd	r27, Y+4	; 0x04
    1928:	28 17       	cp	r18, r24
    192a:	39 07       	cpc	r19, r25
    192c:	4a 07       	cpc	r20, r26
    192e:	5b 07       	cpc	r21, r27
    1930:	30 f0       	brcs	.+12     	; 0x193e <__stack+0x10df>
    1932:	68 c0       	rjmp	.+208    	; 0x1a04 <__stack+0x11a5>
			PORTB |= (1<<2);  //This port pin is for water valve on
			lcd_gotoxy(0,5);
			lcd_putchar('~');
			break;
		}
		while(scan_kpd_4x4());
    1934:	0e 94 63 02 	call	0x4c6	; 0x4c6 <scan_kpd_4x4>
    1938:	89 2b       	or	r24, r25
    193a:	e1 f7       	brne	.-8      	; 0x1934 <__stack+0x10d5>
    193c:	b8 cf       	rjmp	.-144    	; 0x18ae <__stack+0x104f>
    193e:	49 80       	ldd	r4, Y+1	; 0x01
    1940:	5a 80       	ldd	r5, Y+2	; 0x02
    1942:	6b 80       	ldd	r6, Y+3	; 0x03
    1944:	7c 80       	ldd	r7, Y+4	; 0x04
    1946:	1f 8f       	std	Y+31, r17	; 0x1f
    1948:	88 a2       	std	Y+32, r8	; 0x20
    194a:	99 a2       	std	Y+33, r9	; 0x21
    194c:	aa a2       	std	Y+34, r10	; 0x22
    194e:	1b 2d       	mov	r17, r11
    1950:	8f 88       	ldd	r8, Y+23	; 0x17
    1952:	98 8c       	ldd	r9, Y+24	; 0x18
    1954:	a9 8c       	ldd	r10, Y+25	; 0x19
    1956:	ba 8c       	ldd	r11, Y+26	; 0x1a
		if (water_read >= water)
		{
			break;
		}
		
		if ((kp_input = scan_kpd_4x4()))  //scan for keypad data 
    1958:	0e 94 63 02 	call	0x4c6	; 0x4c6 <scan_kpd_4x4>
    195c:	88 23       	and	r24, r24
    195e:	39 f0       	breq	.+14     	; 0x196e <__stack+0x110f>
		{
			if (kp_input == 12)
    1960:	8c 30       	cpi	r24, 0x0C	; 12
    1962:	09 f4       	brne	.+2      	; 0x1966 <__stack+0x1107>
    1964:	4a c0       	rjmp	.+148    	; 0x19fa <__stack+0x119b>
			{
				break;
			}
			else if (kp_input == 15)
    1966:	8f 30       	cpi	r24, 0x0F	; 15
    1968:	11 f4       	brne	.+4      	; 0x196e <__stack+0x110f>
    196a:	0c 94 69 04 	jmp	0x8d2	; 0x8d2 <__stack+0x73>
			{
				goto start_pgm;
			}
		}
		lcd_gotoxy(0,6);
    196e:	66 e0       	ldi	r22, 0x06	; 6
    1970:	80 e0       	ldi	r24, 0x00	; 0
    1972:	0e 94 d5 00 	call	0x1aa	; 0x1aa <lcd_gotoxy>
		lcd_putsint_z(water_read,4);
    1976:	44 e0       	ldi	r20, 0x04	; 4
    1978:	50 e0       	ldi	r21, 0x00	; 0
    197a:	c5 01       	movw	r24, r10
    197c:	b4 01       	movw	r22, r8
    197e:	0e 94 2b 01 	call	0x256	; 0x256 <lcd_putsint_z>
		lcd_gotoxy(1,6);
    1982:	66 e0       	ldi	r22, 0x06	; 6
    1984:	81 e0       	ldi	r24, 0x01	; 1
    1986:	0e 94 d5 00 	call	0x1aa	; 0x1aa <lcd_gotoxy>
		lcd_putsint_z(final_temp,4);
    198a:	60 91 8c 03 	lds	r22, 0x038C
    198e:	70 91 8d 03 	lds	r23, 0x038D
    1992:	80 91 8e 03 	lds	r24, 0x038E
    1996:	90 91 8f 03 	lds	r25, 0x038F
    199a:	0e 94 0f 11 	call	0x221e	; 0x221e <__fixsfsi>
    199e:	44 e0       	ldi	r20, 0x04	; 4
    19a0:	50 e0       	ldi	r21, 0x00	; 0
    19a2:	0e 94 2b 01 	call	0x256	; 0x256 <lcd_putsint_z>
    19a6:	ef e0       	ldi	r30, 0x0F	; 15
    19a8:	f7 e2       	ldi	r31, 0x27	; 39
    19aa:	31 97       	sbiw	r30, 0x01	; 1
    19ac:	f1 f7       	brne	.-4      	; 0x19aa <__stack+0x114b>
    19ae:	00 c0       	rjmp	.+0      	; 0x19b0 <__stack+0x1151>
    19b0:	00 00       	nop
		while(scan_kpd_4x4());
	}
	_delay_ms(100);
	while (1) //This while loop is for water calculation
	{
		water_read = (i_water * 100UL)/water_flow_divider; //This is the assumption to calculate water 1 liter = 2 rotation of propeller
    19b2:	20 91 b1 03 	lds	r18, 0x03B1
    19b6:	30 91 b2 03 	lds	r19, 0x03B2
    19ba:	40 91 b3 03 	lds	r20, 0x03B3
    19be:	50 91 b4 03 	lds	r21, 0x03B4
    19c2:	a4 e6       	ldi	r26, 0x64	; 100
    19c4:	b0 e0       	ldi	r27, 0x00	; 0
    19c6:	0e 94 ee 12 	call	0x25dc	; 0x25dc <__muluhisi3>
    19ca:	20 91 a9 03 	lds	r18, 0x03A9
    19ce:	30 91 aa 03 	lds	r19, 0x03AA
    19d2:	40 91 ab 03 	lds	r20, 0x03AB
    19d6:	50 91 ac 03 	lds	r21, 0x03AC
    19da:	0e 94 9e 12 	call	0x253c	; 0x253c <__udivmodsi4>
    19de:	49 01       	movw	r8, r18
    19e0:	5a 01       	movw	r10, r20
		if (water_read >= water)
    19e2:	24 15       	cp	r18, r4
    19e4:	35 05       	cpc	r19, r5
    19e6:	46 05       	cpc	r20, r6
    19e8:	57 05       	cpc	r21, r7
    19ea:	08 f4       	brcc	.+2      	; 0x19ee <__stack+0x118f>
    19ec:	b5 cf       	rjmp	.-150    	; 0x1958 <__stack+0x10f9>
    19ee:	88 a0       	ldd	r8, Y+32	; 0x20
    19f0:	99 a0       	ldd	r9, Y+33	; 0x21
    19f2:	aa a0       	ldd	r10, Y+34	; 0x22
    19f4:	b1 2e       	mov	r11, r17
    19f6:	1f 8d       	ldd	r17, Y+31	; 0x1f
    19f8:	05 c0       	rjmp	.+10     	; 0x1a04 <__stack+0x11a5>
    19fa:	88 a0       	ldd	r8, Y+32	; 0x20
    19fc:	99 a0       	ldd	r9, Y+33	; 0x21
    19fe:	aa a0       	ldd	r10, Y+34	; 0x22
    1a00:	b1 2e       	mov	r11, r17
    1a02:	1f 8d       	ldd	r17, Y+31	; 0x1f
		lcd_gotoxy(1,6);
		lcd_putsint_z(final_temp,4);
		_delay_ms(10);
	}
	
	PORTB &= ~(1<<2); //This port pin is for water valve off
    1a04:	c2 98       	cbi	0x18, 2	; 24
	lcd_gotoxy(0,5);
    1a06:	65 e0       	ldi	r22, 0x05	; 5
    1a08:	80 e0       	ldi	r24, 0x00	; 0
    1a0a:	0e 94 d5 00 	call	0x1aa	; 0x1aa <lcd_gotoxy>
	lcd_putchar('');
    1a0e:	8f ef       	ldi	r24, 0xFF	; 255
    1a10:	0e 94 f1 00 	call	0x1e2	; 0x1e2 <lcd_putchar>
	
	//Updating last status for water
	
	lcd_gotoxy(0,6);
    1a14:	66 e0       	ldi	r22, 0x06	; 6
    1a16:	80 e0       	ldi	r24, 0x00	; 0
    1a18:	0e 94 d5 00 	call	0x1aa	; 0x1aa <lcd_gotoxy>
	lcd_putsint_z(water,4);
    1a1c:	44 e0       	ldi	r20, 0x04	; 4
    1a1e:	50 e0       	ldi	r21, 0x00	; 0
    1a20:	61 2f       	mov	r22, r17
    1a22:	7b 8d       	ldd	r23, Y+27	; 0x1b
    1a24:	8c 8d       	ldd	r24, Y+28	; 0x1c
    1a26:	9d 8d       	ldd	r25, Y+29	; 0x1d
    1a28:	0e 94 2b 01 	call	0x256	; 0x256 <lcd_putsint_z>
    1a2c:	5f e7       	ldi	r21, 0x7F	; 127
    1a2e:	88 e3       	ldi	r24, 0x38	; 56
    1a30:	91 e0       	ldi	r25, 0x01	; 1
    1a32:	51 50       	subi	r21, 0x01	; 1
    1a34:	80 40       	sbci	r24, 0x00	; 0
    1a36:	90 40       	sbci	r25, 0x00	; 0
    1a38:	e1 f7       	brne	.-8      	; 0x1a32 <__stack+0x11d3>
    1a3a:	00 c0       	rjmp	.+0      	; 0x1a3c <__stack+0x11dd>
    1a3c:	00 00       	nop
	
	_delay_ms(100);
	i_time = 0;
    1a3e:	10 92 b9 03 	sts	0x03B9, r1
    1a42:	10 92 ba 03 	sts	0x03BA, r1
    1a46:	10 92 bb 03 	sts	0x03BB, r1
    1a4a:	10 92 bc 03 	sts	0x03BC, r1
    1a4e:	7d 88       	ldd	r7, Y+21	; 0x15
    1a50:	1e 89       	ldd	r17, Y+22	; 0x16
    1a52:	2a c0       	rjmp	.+84     	; 0x1aa8 <__stack+0x1249>
	while (1) //This while loop is for steam valve open after 1 second
	{
		if (i_time > 0)
    1a54:	80 91 b9 03 	lds	r24, 0x03B9
    1a58:	90 91 ba 03 	lds	r25, 0x03BA
    1a5c:	a0 91 bb 03 	lds	r26, 0x03BB
    1a60:	b0 91 bc 03 	lds	r27, 0x03BC
    1a64:	89 2b       	or	r24, r25
    1a66:	8a 2b       	or	r24, r26
    1a68:	8b 2b       	or	r24, r27
    1a6a:	f1 f0       	breq	.+60     	; 0x1aa8 <__stack+0x1249>
    1a6c:	7d 8a       	std	Y+21, r7	; 0x15
    1a6e:	1e 8b       	std	Y+22, r17	; 0x16
		{
			PORTB |= (1<<1);  //This port pin is for steam valve on
    1a70:	c1 9a       	sbi	0x18, 1	; 24
			lcd_gotoxy(1,5);
    1a72:	65 e0       	ldi	r22, 0x05	; 5
    1a74:	81 e0       	ldi	r24, 0x01	; 1
    1a76:	0e 94 d5 00 	call	0x1aa	; 0x1aa <lcd_gotoxy>
			lcd_putchar('~');
    1a7a:	8e e7       	ldi	r24, 0x7E	; 126
    1a7c:	0e 94 f1 00 	call	0x1e2	; 0x1e2 <lcd_putchar>
    1a80:	af e7       	ldi	r26, 0x7F	; 127
    1a82:	b8 e3       	ldi	r27, 0x38	; 56
    1a84:	e1 e0       	ldi	r30, 0x01	; 1
    1a86:	a1 50       	subi	r26, 0x01	; 1
    1a88:	b0 40       	sbci	r27, 0x00	; 0
    1a8a:	e0 40       	sbci	r30, 0x00	; 0
    1a8c:	e1 f7       	brne	.-8      	; 0x1a86 <__stack+0x1227>
    1a8e:	00 c0       	rjmp	.+0      	; 0x1a90 <__stack+0x1231>
    1a90:	00 00       	nop
    1a92:	7d 88       	ldd	r7, Y+21	; 0x15
    1a94:	6e 88       	ldd	r6, Y+22	; 0x16
    1a96:	58 2c       	mov	r5, r8
    1a98:	49 2c       	mov	r4, r9
    1a9a:	ad 8a       	std	Y+21, r10	; 0x15
    1a9c:	1b 2d       	mov	r17, r11
    1a9e:	89 88       	ldd	r8, Y+17	; 0x11
    1aa0:	9a 88       	ldd	r9, Y+18	; 0x12
    1aa2:	ab 88       	ldd	r10, Y+19	; 0x13
    1aa4:	bc 88       	ldd	r11, Y+20	; 0x14
    1aa6:	05 c0       	rjmp	.+10     	; 0x1ab2 <__stack+0x1253>
			break;
		}
		while(scan_kpd_4x4());
    1aa8:	0e 94 63 02 	call	0x4c6	; 0x4c6 <scan_kpd_4x4>
    1aac:	89 2b       	or	r24, r25
    1aae:	e1 f7       	brne	.-8      	; 0x1aa8 <__stack+0x1249>
    1ab0:	d1 cf       	rjmp	.-94     	; 0x1a54 <__stack+0x11f5>
	}
	_delay_ms(100);
	while (1) //This while loop is for temperature calculation
	{
		if (compare_time != i_time)
    1ab2:	40 91 b5 03 	lds	r20, 0x03B5
    1ab6:	50 91 b6 03 	lds	r21, 0x03B6
    1aba:	60 91 b7 03 	lds	r22, 0x03B7
    1abe:	70 91 b8 03 	lds	r23, 0x03B8
    1ac2:	80 91 b9 03 	lds	r24, 0x03B9
    1ac6:	90 91 ba 03 	lds	r25, 0x03BA
    1aca:	a0 91 bb 03 	lds	r26, 0x03BB
    1ace:	b0 91 bc 03 	lds	r27, 0x03BC
    1ad2:	48 17       	cp	r20, r24
    1ad4:	59 07       	cpc	r21, r25
    1ad6:	6a 07       	cpc	r22, r26
    1ad8:	7b 07       	cpc	r23, r27
    1ada:	31 f1       	breq	.+76     	; 0x1b28 <__stack+0x12c9>
		{
			temp_read = (final_temp);//(uint32_t)temp_divider; //This is the divider to adjust the temperature now 4 for experiment
    1adc:	60 91 8c 03 	lds	r22, 0x038C
    1ae0:	70 91 8d 03 	lds	r23, 0x038D
    1ae4:	80 91 8e 03 	lds	r24, 0x038E
    1ae8:	90 91 8f 03 	lds	r25, 0x038F
    1aec:	0e 94 14 11 	call	0x2228	; 0x2228 <__fixunssfsi>
    1af0:	4b 01       	movw	r8, r22
    1af2:	5c 01       	movw	r10, r24
			lcd_gotoxy(1,6);
    1af4:	66 e0       	ldi	r22, 0x06	; 6
    1af6:	81 e0       	ldi	r24, 0x01	; 1
    1af8:	0e 94 d5 00 	call	0x1aa	; 0x1aa <lcd_gotoxy>
			lcd_putsint_z(temp_read,4);			
    1afc:	44 e0       	ldi	r20, 0x04	; 4
    1afe:	50 e0       	ldi	r21, 0x00	; 0
    1b00:	c5 01       	movw	r24, r10
    1b02:	b4 01       	movw	r22, r8
    1b04:	0e 94 2b 01 	call	0x256	; 0x256 <lcd_putsint_z>
			compare_time = i_time;
    1b08:	80 91 b9 03 	lds	r24, 0x03B9
    1b0c:	90 91 ba 03 	lds	r25, 0x03BA
    1b10:	a0 91 bb 03 	lds	r26, 0x03BB
    1b14:	b0 91 bc 03 	lds	r27, 0x03BC
    1b18:	80 93 b5 03 	sts	0x03B5, r24
    1b1c:	90 93 b6 03 	sts	0x03B6, r25
    1b20:	a0 93 b7 03 	sts	0x03B7, r26
    1b24:	b0 93 b8 03 	sts	0x03B8, r27
		}
		if ((temp_read+3) >= temp)
    1b28:	d5 01       	movw	r26, r10
    1b2a:	c4 01       	movw	r24, r8
    1b2c:	03 96       	adiw	r24, 0x03	; 3
    1b2e:	a1 1d       	adc	r26, r1
    1b30:	b1 1d       	adc	r27, r1
    1b32:	29 85       	ldd	r18, Y+9	; 0x09
    1b34:	3a 85       	ldd	r19, Y+10	; 0x0a
    1b36:	4b 85       	ldd	r20, Y+11	; 0x0b
    1b38:	5c 85       	ldd	r21, Y+12	; 0x0c
    1b3a:	82 17       	cp	r24, r18
    1b3c:	93 07       	cpc	r25, r19
    1b3e:	a4 07       	cpc	r26, r20
    1b40:	b5 07       	cpc	r27, r21
    1b42:	98 f4       	brcc	.+38     	; 0x1b6a <__stack+0x130b>
		{
			break;
		}
		if ((kp_input = scan_kpd_4x4()))  //scan for keypad data
    1b44:	0e 94 63 02 	call	0x4c6	; 0x4c6 <scan_kpd_4x4>
    1b48:	88 23       	and	r24, r24
    1b4a:	09 f4       	brne	.+2      	; 0x1b4e <__stack+0x12ef>
    1b4c:	b2 cf       	rjmp	.-156    	; 0x1ab2 <__stack+0x1253>
		{
			if (kp_input == 12)
    1b4e:	8c 30       	cpi	r24, 0x0C	; 12
    1b50:	61 f0       	breq	.+24     	; 0x1b6a <__stack+0x130b>
			{
				break;
			}
			else if (kp_input == 15)
    1b52:	8f 30       	cpi	r24, 0x0F	; 15
    1b54:	09 f0       	breq	.+2      	; 0x1b58 <__stack+0x12f9>
    1b56:	ad cf       	rjmp	.-166    	; 0x1ab2 <__stack+0x1253>
    1b58:	89 8a       	std	Y+17, r8	; 0x11
    1b5a:	9a 8a       	std	Y+18, r9	; 0x12
    1b5c:	ab 8a       	std	Y+19, r10	; 0x13
    1b5e:	bc 8a       	std	Y+20, r11	; 0x14
    1b60:	7d 8a       	std	Y+21, r7	; 0x15
    1b62:	6e 8a       	std	Y+22, r6	; 0x16
    1b64:	b1 2e       	mov	r11, r17
    1b66:	0c 94 70 04 	jmp	0x8e0	; 0x8e0 <__stack+0x81>
    1b6a:	89 8a       	std	Y+17, r8	; 0x11
    1b6c:	9a 8a       	std	Y+18, r9	; 0x12
    1b6e:	ab 8a       	std	Y+19, r10	; 0x13
    1b70:	bc 8a       	std	Y+20, r11	; 0x14
    1b72:	6e 8a       	std	Y+22, r6	; 0x16
    1b74:	ad 88       	ldd	r10, Y+21	; 0x15
    1b76:	7d 8a       	std	Y+21, r7	; 0x15
    1b78:	b1 2e       	mov	r11, r17
				goto start_pgm;
			}
		}
	}
	
	PORTB &= ~(1<<1); //This port pin is for steam valve off
    1b7a:	c1 98       	cbi	0x18, 1	; 24
	lcd_gotoxy(1,5);
    1b7c:	65 e0       	ldi	r22, 0x05	; 5
    1b7e:	81 e0       	ldi	r24, 0x01	; 1
    1b80:	0e 94 d5 00 	call	0x1aa	; 0x1aa <lcd_gotoxy>
	lcd_putchar('');
    1b84:	8f ef       	ldi	r24, 0xFF	; 255
    1b86:	0e 94 f1 00 	call	0x1e2	; 0x1e2 <lcd_putchar>
	
	// Updating last status for temperature
	lcd_gotoxy(1,6);
    1b8a:	66 e0       	ldi	r22, 0x06	; 6
    1b8c:	81 e0       	ldi	r24, 0x01	; 1
    1b8e:	0e 94 d5 00 	call	0x1aa	; 0x1aa <lcd_gotoxy>
	lcd_putsint_z(temp,4);
    1b92:	44 e0       	ldi	r20, 0x04	; 4
    1b94:	50 e0       	ldi	r21, 0x00	; 0
    1b96:	6e 8d       	ldd	r22, Y+30	; 0x1e
    1b98:	75 2d       	mov	r23, r5
    1b9a:	84 2d       	mov	r24, r4
    1b9c:	9a 2d       	mov	r25, r10
    1b9e:	0e 94 2b 01 	call	0x256	; 0x256 <lcd_putsint_z>
	
	i_time = 0;
    1ba2:	10 92 b9 03 	sts	0x03B9, r1
    1ba6:	10 92 ba 03 	sts	0x03BA, r1
    1baa:	10 92 bb 03 	sts	0x03BB, r1
    1bae:	10 92 bc 03 	sts	0x03BC, r1
	lcd_gotoxy(2,5);
    1bb2:	65 e0       	ldi	r22, 0x05	; 5
    1bb4:	82 e0       	ldi	r24, 0x02	; 2
    1bb6:	0e 94 d5 00 	call	0x1aa	; 0x1aa <lcd_gotoxy>
	lcd_putchar('~');
    1bba:	8e e7       	ldi	r24, 0x7E	; 126
    1bbc:	0e 94 f1 00 	call	0x1e2	; 0x1e2 <lcd_putchar>
    1bc0:	ad 88       	ldd	r10, Y+21	; 0x15
    1bc2:	1e 89       	ldd	r17, Y+22	; 0x16
	while(scan_kpd_4x4());
    1bc4:	0e 94 63 02 	call	0x4c6	; 0x4c6 <scan_kpd_4x4>
    1bc8:	89 2b       	or	r24, r25
    1bca:	e1 f7       	brne	.-8      	; 0x1bc4 <__stack+0x1365>
    1bcc:	ad 8a       	std	Y+21, r10	; 0x15
    1bce:	1e 8b       	std	Y+22, r17	; 0x16
    1bd0:	3f e7       	ldi	r19, 0x7F	; 127
    1bd2:	48 e3       	ldi	r20, 0x38	; 56
    1bd4:	51 e0       	ldi	r21, 0x01	; 1
    1bd6:	31 50       	subi	r19, 0x01	; 1
    1bd8:	40 40       	sbci	r20, 0x00	; 0
    1bda:	50 40       	sbci	r21, 0x00	; 0
    1bdc:	e1 f7       	brne	.-8      	; 0x1bd6 <__stack+0x1377>
    1bde:	00 c0       	rjmp	.+0      	; 0x1be0 <__stack+0x1381>
    1be0:	00 00       	nop
    1be2:	6d 88       	ldd	r6, Y+21	; 0x15
    1be4:	7e 88       	ldd	r7, Y+22	; 0x16
    1be6:	1b 2d       	mov	r17, r11
	_delay_ms(100);
	while (1) //This while loop is for time calculation
	{
		time_read = i_time / 60;
    1be8:	60 91 b9 03 	lds	r22, 0x03B9
    1bec:	70 91 ba 03 	lds	r23, 0x03BA
    1bf0:	80 91 bb 03 	lds	r24, 0x03BB
    1bf4:	90 91 bc 03 	lds	r25, 0x03BC
    1bf8:	2c e3       	ldi	r18, 0x3C	; 60
    1bfa:	30 e0       	ldi	r19, 0x00	; 0
    1bfc:	40 e0       	ldi	r20, 0x00	; 0
    1bfe:	50 e0       	ldi	r21, 0x00	; 0
    1c00:	0e 94 9e 12 	call	0x253c	; 0x253c <__udivmodsi4>
    1c04:	49 01       	movw	r8, r18
    1c06:	5a 01       	movw	r10, r20
		if (time_read >= time)
    1c08:	8d 81       	ldd	r24, Y+5	; 0x05
    1c0a:	9e 81       	ldd	r25, Y+6	; 0x06
    1c0c:	af 81       	ldd	r26, Y+7	; 0x07
    1c0e:	b8 85       	ldd	r27, Y+8	; 0x08
    1c10:	28 17       	cp	r18, r24
    1c12:	39 07       	cpc	r19, r25
    1c14:	4a 07       	cpc	r20, r26
    1c16:	5b 07       	cpc	r21, r27
    1c18:	78 f1       	brcs	.+94     	; 0x1c78 <__stack+0x1419>
		{
skip_time:
			PORTB |= (1<<0); //This port pin is for alarm on
    1c1a:	c0 9a       	sbi	0x18, 0	; 24
			lcd_gotoxy(2,5);
    1c1c:	65 e0       	ldi	r22, 0x05	; 5
    1c1e:	82 e0       	ldi	r24, 0x02	; 2
    1c20:	0e 94 d5 00 	call	0x1aa	; 0x1aa <lcd_gotoxy>
			lcd_putchar('');
    1c24:	8f ef       	ldi	r24, 0xFF	; 255
    1c26:	0e 94 f1 00 	call	0x1e2	; 0x1e2 <lcd_putchar>
				goto start_pgm;
			}
		}
	}
	 //this section is to wait for alarm off command
	 i_time = 0;
    1c2a:	10 92 b9 03 	sts	0x03B9, r1
    1c2e:	10 92 ba 03 	sts	0x03BA, r1
    1c32:	10 92 bb 03 	sts	0x03BB, r1
    1c36:	10 92 bc 03 	sts	0x03BC, r1
	 lcd_clear();
    1c3a:	0e 94 88 00 	call	0x110	; 0x110 <lcd_clear>
	 lcd_puts("Time:   :");
    1c3e:	86 ec       	ldi	r24, 0xC6	; 198
    1c40:	92 e0       	ldi	r25, 0x02	; 2
    1c42:	0e 94 1b 01 	call	0x236	; 0x236 <lcd_puts>
	 lcd_gotoxy(0,15);
    1c46:	6f e0       	ldi	r22, 0x0F	; 15
    1c48:	80 e0       	ldi	r24, 0x00	; 0
    1c4a:	0e 94 d5 00 	call	0x1aa	; 0x1aa <lcd_gotoxy>
	 lcd_puts("ASTEX");
    1c4e:	80 e6       	ldi	r24, 0x60	; 96
    1c50:	90 e0       	ldi	r25, 0x00	; 0
    1c52:	0e 94 1b 01 	call	0x236	; 0x236 <lcd_puts>
	 lcd_gotoxy(1,6);
    1c56:	66 e0       	ldi	r22, 0x06	; 6
    1c58:	81 e0       	ldi	r24, 0x01	; 1
    1c5a:	0e 94 d5 00 	call	0x1aa	; 0x1aa <lcd_gotoxy>
	 lcd_puts("ALARMING!");
    1c5e:	80 ed       	ldi	r24, 0xD0	; 208
    1c60:	92 e0       	ldi	r25, 0x02	; 2
    1c62:	0e 94 1b 01 	call	0x236	; 0x236 <lcd_puts>
	 lcd_gotoxy(3,0);
    1c66:	60 e0       	ldi	r22, 0x00	; 0
    1c68:	83 e0       	ldi	r24, 0x03	; 3
    1c6a:	0e 94 d5 00 	call	0x1aa	; 0x1aa <lcd_gotoxy>
	 lcd_puts("#> ALARM OFF");
    1c6e:	8a ed       	ldi	r24, 0xDA	; 218
    1c70:	92 e0       	ldi	r25, 0x02	; 2
    1c72:	0e 94 1b 01 	call	0x236	; 0x236 <lcd_puts>
	 
	while(scan_kpd_4x4());
    1c76:	30 c0       	rjmp	.+96     	; 0x1cd8 <__stack+0x1479>
			PORTB |= (1<<0); //This port pin is for alarm on
			lcd_gotoxy(2,5);
			lcd_putchar('');
			break;
		}
		lcd_gotoxy(2,6);
    1c78:	66 e0       	ldi	r22, 0x06	; 6
    1c7a:	82 e0       	ldi	r24, 0x02	; 2
    1c7c:	0e 94 d5 00 	call	0x1aa	; 0x1aa <lcd_gotoxy>
		lcd_putsint_z(time_read,2);
    1c80:	42 e0       	ldi	r20, 0x02	; 2
    1c82:	50 e0       	ldi	r21, 0x00	; 0
    1c84:	c5 01       	movw	r24, r10
    1c86:	b4 01       	movw	r22, r8
    1c88:	0e 94 2b 01 	call	0x256	; 0x256 <lcd_putsint_z>
		lcd_gotoxy(2,9);
    1c8c:	69 e0       	ldi	r22, 0x09	; 9
    1c8e:	82 e0       	ldi	r24, 0x02	; 2
    1c90:	0e 94 d5 00 	call	0x1aa	; 0x1aa <lcd_gotoxy>
		lcd_putsint_z(i_time % 60,2);
    1c94:	60 91 b9 03 	lds	r22, 0x03B9
    1c98:	70 91 ba 03 	lds	r23, 0x03BA
    1c9c:	80 91 bb 03 	lds	r24, 0x03BB
    1ca0:	90 91 bc 03 	lds	r25, 0x03BC
    1ca4:	2c e3       	ldi	r18, 0x3C	; 60
    1ca6:	30 e0       	ldi	r19, 0x00	; 0
    1ca8:	40 e0       	ldi	r20, 0x00	; 0
    1caa:	50 e0       	ldi	r21, 0x00	; 0
    1cac:	0e 94 9e 12 	call	0x253c	; 0x253c <__udivmodsi4>
    1cb0:	42 e0       	ldi	r20, 0x02	; 2
    1cb2:	50 e0       	ldi	r21, 0x00	; 0
    1cb4:	0e 94 2b 01 	call	0x256	; 0x256 <lcd_putsint_z>
		//lcd_gotoxy(1,6);
		//lcd_putsint_z(Global_temperature-temp_divider,4);
		
		if ((kp_input = scan_kpd_4x4()))  //scan for keypad data
    1cb8:	0e 94 63 02 	call	0x4c6	; 0x4c6 <scan_kpd_4x4>
    1cbc:	88 23       	and	r24, r24
    1cbe:	09 f4       	brne	.+2      	; 0x1cc2 <__stack+0x1463>
    1cc0:	93 cf       	rjmp	.-218    	; 0x1be8 <__stack+0x1389>
		{
			if (kp_input == 12)
    1cc2:	8c 30       	cpi	r24, 0x0C	; 12
    1cc4:	09 f4       	brne	.+2      	; 0x1cc8 <__stack+0x1469>
    1cc6:	a9 cf       	rjmp	.-174    	; 0x1c1a <__stack+0x13bb>
			{
				goto skip_time;
			}
			if (kp_input == 15)
    1cc8:	8f 30       	cpi	r24, 0x0F	; 15
    1cca:	09 f0       	breq	.+2      	; 0x1cce <__stack+0x146f>
    1ccc:	8d cf       	rjmp	.-230    	; 0x1be8 <__stack+0x1389>
    1cce:	6d 8a       	std	Y+21, r6	; 0x15
    1cd0:	7e 8a       	std	Y+22, r7	; 0x16
    1cd2:	b1 2e       	mov	r11, r17
    1cd4:	0c 94 70 04 	jmp	0x8e0	; 0x8e0 <__stack+0x81>
	 lcd_gotoxy(1,6);
	 lcd_puts("ALARMING!");
	 lcd_gotoxy(3,0);
	 lcd_puts("#> ALARM OFF");
	 
	while(scan_kpd_4x4());
    1cd8:	0e 94 63 02 	call	0x4c6	; 0x4c6 <scan_kpd_4x4>
    1cdc:	89 2b       	or	r24, r25
    1cde:	e1 f7       	brne	.-8      	; 0x1cd8 <__stack+0x1479>
    1ce0:	9f e7       	ldi	r25, 0x7F	; 127
    1ce2:	a8 e3       	ldi	r26, 0x38	; 56
    1ce4:	b1 e0       	ldi	r27, 0x01	; 1
    1ce6:	91 50       	subi	r25, 0x01	; 1
    1ce8:	a0 40       	sbci	r26, 0x00	; 0
    1cea:	b0 40       	sbci	r27, 0x00	; 0
    1cec:	e1 f7       	brne	.-8      	; 0x1ce6 <__stack+0x1487>
    1cee:	00 c0       	rjmp	.+0      	; 0x1cf0 <__stack+0x1491>
    1cf0:	00 00       	nop
	_delay_ms(100);
	while (1)
	{
		lcd_gotoxy(0,6);
		lcd_putsint_z(i_time/60,2);
    1cf2:	0f 2e       	mov	r0, r31
    1cf4:	fc e3       	ldi	r31, 0x3C	; 60
    1cf6:	cf 2e       	mov	r12, r31
    1cf8:	d1 2c       	mov	r13, r1
    1cfa:	e1 2c       	mov	r14, r1
    1cfc:	f1 2c       	mov	r15, r1
    1cfe:	f0 2d       	mov	r31, r0
	 
	while(scan_kpd_4x4());
	_delay_ms(100);
	while (1)
	{
		lcd_gotoxy(0,6);
    1d00:	66 e0       	ldi	r22, 0x06	; 6
    1d02:	80 e0       	ldi	r24, 0x00	; 0
    1d04:	0e 94 d5 00 	call	0x1aa	; 0x1aa <lcd_gotoxy>
		lcd_putsint_z(i_time/60,2);
    1d08:	60 91 b9 03 	lds	r22, 0x03B9
    1d0c:	70 91 ba 03 	lds	r23, 0x03BA
    1d10:	80 91 bb 03 	lds	r24, 0x03BB
    1d14:	90 91 bc 03 	lds	r25, 0x03BC
    1d18:	a7 01       	movw	r20, r14
    1d1a:	96 01       	movw	r18, r12
    1d1c:	0e 94 9e 12 	call	0x253c	; 0x253c <__udivmodsi4>
    1d20:	ca 01       	movw	r24, r20
    1d22:	b9 01       	movw	r22, r18
    1d24:	42 e0       	ldi	r20, 0x02	; 2
    1d26:	50 e0       	ldi	r21, 0x00	; 0
    1d28:	0e 94 2b 01 	call	0x256	; 0x256 <lcd_putsint_z>
		lcd_gotoxy(0,9);
    1d2c:	69 e0       	ldi	r22, 0x09	; 9
    1d2e:	80 e0       	ldi	r24, 0x00	; 0
    1d30:	0e 94 d5 00 	call	0x1aa	; 0x1aa <lcd_gotoxy>
		lcd_putsint_z(i_time%60,2);
    1d34:	60 91 b9 03 	lds	r22, 0x03B9
    1d38:	70 91 ba 03 	lds	r23, 0x03BA
    1d3c:	80 91 bb 03 	lds	r24, 0x03BB
    1d40:	90 91 bc 03 	lds	r25, 0x03BC
    1d44:	a7 01       	movw	r20, r14
    1d46:	96 01       	movw	r18, r12
    1d48:	0e 94 9e 12 	call	0x253c	; 0x253c <__udivmodsi4>
    1d4c:	42 e0       	ldi	r20, 0x02	; 2
    1d4e:	50 e0       	ldi	r21, 0x00	; 0
    1d50:	0e 94 2b 01 	call	0x256	; 0x256 <lcd_putsint_z>
		if ((kp_input = scan_kpd_4x4()))  //scan for keypad data via usart
    1d54:	0e 94 63 02 	call	0x4c6	; 0x4c6 <scan_kpd_4x4>
		{
			if (kp_input == 12)
    1d58:	8c 30       	cpi	r24, 0x0C	; 12
    1d5a:	19 f4       	brne	.+6      	; 0x1d62 <__stack+0x1503>
			{
				PORTB &= ~(1<<0); //alarm off
    1d5c:	c0 98       	cbi	0x18, 0	; 24
				cli();
    1d5e:	f8 94       	cli
    1d60:	ff cf       	rjmp	.-2      	; 0x1d60 <__stack+0x1501>
    1d62:	ef e0       	ldi	r30, 0x0F	; 15
    1d64:	f7 e2       	ldi	r31, 0x27	; 39
    1d66:	31 97       	sbiw	r30, 0x01	; 1
    1d68:	f1 f7       	brne	.-4      	; 0x1d66 <__stack+0x1507>
    1d6a:	00 c0       	rjmp	.+0      	; 0x1d6c <__stack+0x150d>
    1d6c:	00 00       	nop
    1d6e:	c8 cf       	rjmp	.-112    	; 0x1d00 <__stack+0x14a1>
					lcd_cmd(0x0C);
					goto start_pgm;
				}
				else if (input_f == 14)  // password checking
				{
					mxpos = 6;
    1d70:	f6 e0       	ldi	r31, 0x06	; 6
					input_f = 0;
					lcd_cmd(0x0C);
					if (passkey == kp_val)
					{
						kp_val = 0;
    1d72:	cd 84       	ldd	r12, Y+13	; 0x0d
    1d74:	de 84       	ldd	r13, Y+14	; 0x0e
    1d76:	ef 84       	ldd	r14, Y+15	; 0x0f
    1d78:	f8 88       	ldd	r15, Y+16	; 0x10
    1d7a:	fd 8b       	std	Y+21, r31	; 0x15
    1d7c:	1e 89       	ldd	r17, Y+22	; 0x16
    1d7e:	08 c0       	rjmp	.+16     	; 0x1d90 <__stack+0x1531>
    1d80:	1e 89       	ldd	r17, Y+22	; 0x16
    1d82:	06 c0       	rjmp	.+12     	; 0x1d90 <__stack+0x1531>
    1d84:	1e 89       	ldd	r17, Y+22	; 0x16
    1d86:	04 c0       	rjmp	.+8      	; 0x1d90 <__stack+0x1531>
    1d88:	1e 89       	ldd	r17, Y+22	; 0x16
    1d8a:	02 c0       	rjmp	.+4      	; 0x1d90 <__stack+0x1531>
    1d8c:	1e 89       	ldd	r17, Y+22	; 0x16
    1d8e:	00 c0       	rjmp	.+0      	; 0x1d90 <__stack+0x1531>
	*/
	
	
settings_calibration:

	lcd_clear();
    1d90:	0e 94 88 00 	call	0x110	; 0x110 <lcd_clear>
	lcd_gotoxy(0,0);
    1d94:	60 e0       	ldi	r22, 0x00	; 0
    1d96:	80 e0       	ldi	r24, 0x00	; 0
    1d98:	0e 94 d5 00 	call	0x1aa	; 0x1aa <lcd_gotoxy>
	lcd_puts("______SETTINGS______");
    1d9c:	87 ee       	ldi	r24, 0xE7	; 231
    1d9e:	92 e0       	ldi	r25, 0x02	; 2
    1da0:	0e 94 1b 01 	call	0x236	; 0x236 <lcd_puts>
	lcd_gotoxy(1,0);
    1da4:	60 e0       	ldi	r22, 0x00	; 0
    1da6:	81 e0       	ldi	r24, 0x01	; 1
    1da8:	0e 94 d5 00 	call	0x1aa	; 0x1aa <lcd_gotoxy>
	lcd_puts("A> System Calibration");
    1dac:	8c ef       	ldi	r24, 0xFC	; 252
    1dae:	92 e0       	ldi	r25, 0x02	; 2
    1db0:	0e 94 1b 01 	call	0x236	; 0x236 <lcd_puts>
	lcd_gotoxy(2,0);
    1db4:	60 e0       	ldi	r22, 0x00	; 0
    1db6:	82 e0       	ldi	r24, 0x02	; 2
    1db8:	0e 94 d5 00 	call	0x1aa	; 0x1aa <lcd_gotoxy>
	lcd_puts("B> Change passkey");
    1dbc:	82 e1       	ldi	r24, 0x12	; 18
    1dbe:	93 e0       	ldi	r25, 0x03	; 3
    1dc0:	0e 94 1b 01 	call	0x236	; 0x236 <lcd_puts>
	lcd_gotoxy(3,0);
    1dc4:	60 e0       	ldi	r22, 0x00	; 0
    1dc6:	83 e0       	ldi	r24, 0x03	; 3
    1dc8:	0e 94 d5 00 	call	0x1aa	; 0x1aa <lcd_gotoxy>
	lcd_puts("*>BACK        #>NEXT");
    1dcc:	84 e2       	ldi	r24, 0x24	; 36
    1dce:	93 e0       	ldi	r25, 0x03	; 3
    1dd0:	0e 94 1b 01 	call	0x236	; 0x236 <lcd_puts>

	while(scan_kpd_4x4());
    1dd4:	0e 94 63 02 	call	0x4c6	; 0x4c6 <scan_kpd_4x4>
    1dd8:	89 2b       	or	r24, r25
    1dda:	e1 f7       	brne	.-8      	; 0x1dd4 <__stack+0x1575>
    1ddc:	ad 89       	ldd	r26, Y+21	; 0x15
    1dde:	bf e7       	ldi	r27, 0x7F	; 127
    1de0:	e8 e3       	ldi	r30, 0x38	; 56
    1de2:	f1 e0       	ldi	r31, 0x01	; 1
    1de4:	b1 50       	subi	r27, 0x01	; 1
    1de6:	e0 40       	sbci	r30, 0x00	; 0
    1de8:	f0 40       	sbci	r31, 0x00	; 0
    1dea:	e1 f7       	brne	.-8      	; 0x1de4 <__stack+0x1585>
    1dec:	00 c0       	rjmp	.+0      	; 0x1dee <__stack+0x158f>
    1dee:	00 00       	nop
    1df0:	ad 8b       	std	Y+21, r26	; 0x15
	_delay_ms(100);
	while (1)
	{
		if ((kp_input = scan_kpd_4x4()))  //scan for keypad data via usart
    1df2:	0e 94 63 02 	call	0x4c6	; 0x4c6 <scan_kpd_4x4>
    1df6:	88 23       	and	r24, r24
    1df8:	59 f0       	breq	.+22     	; 0x1e10 <__stack+0x15b1>
		{
			if (kp_input == 13)  // option a for system calibration
    1dfa:	8d 30       	cpi	r24, 0x0D	; 13
    1dfc:	81 f0       	breq	.+32     	; 0x1e1e <__stack+0x15bf>
			{
				break;
			}
			else if (kp_input == 14)  // option b for change password
    1dfe:	8e 30       	cpi	r24, 0x0E	; 14
    1e00:	11 f4       	brne	.+4      	; 0x1e06 <__stack+0x15a7>
    1e02:	0c 94 11 06 	jmp	0xc22	; 0xc22 <__stack+0x3c3>
			{
				input_f = 15;
				goto manual_operation;
			}
			else if (kp_input == 11 || kp_input == 12)
    1e06:	8b 50       	subi	r24, 0x0B	; 11
    1e08:	82 30       	cpi	r24, 0x02	; 2
    1e0a:	10 f4       	brcc	.+4      	; 0x1e10 <__stack+0x15b1>
    1e0c:	0c 94 6b 04 	jmp	0x8d6	; 0x8d6 <__stack+0x77>
    1e10:	8f e0       	ldi	r24, 0x0F	; 15
    1e12:	97 e2       	ldi	r25, 0x27	; 39
    1e14:	01 97       	sbiw	r24, 0x01	; 1
    1e16:	f1 f7       	brne	.-4      	; 0x1e14 <__stack+0x15b5>
    1e18:	00 c0       	rjmp	.+0      	; 0x1e1a <__stack+0x15bb>
    1e1a:	00 00       	nop
    1e1c:	ea cf       	rjmp	.-44     	; 0x1df2 <__stack+0x1593>
			}
		}
		_delay_ms(10);
	}
	
	lcd_clear();
    1e1e:	0e 94 88 00 	call	0x110	; 0x110 <lcd_clear>
	lcd_cmd(0x0C);
    1e22:	8c e0       	ldi	r24, 0x0C	; 12
    1e24:	0e 94 5e 00 	call	0xbc	; 0xbc <lcd_cmd>
	lcd_gotoxy(0,0);
    1e28:	60 e0       	ldi	r22, 0x00	; 0
    1e2a:	80 e0       	ldi	r24, 0x00	; 0
    1e2c:	0e 94 d5 00 	call	0x1aa	; 0x1aa <lcd_gotoxy>
	lcd_puts("__Water Calibration_");
    1e30:	80 ea       	ldi	r24, 0xA0	; 160
    1e32:	91 e0       	ldi	r25, 0x01	; 1
    1e34:	0e 94 1b 01 	call	0x236	; 0x236 <lcd_puts>
	lcd_gotoxy(1,0);
    1e38:	60 e0       	ldi	r22, 0x00	; 0
    1e3a:	81 e0       	ldi	r24, 0x01	; 1
    1e3c:	0e 94 d5 00 	call	0x1aa	; 0x1aa <lcd_gotoxy>
	lcd_puts("B> Bypass");
    1e40:	89 e3       	ldi	r24, 0x39	; 57
    1e42:	93 e0       	ldi	r25, 0x03	; 3
    1e44:	0e 94 1b 01 	call	0x236	; 0x236 <lcd_puts>
	lcd_gotoxy(2,0);
    1e48:	60 e0       	ldi	r22, 0x00	; 0
    1e4a:	82 e0       	ldi	r24, 0x02	; 2
    1e4c:	0e 94 d5 00 	call	0x1aa	; 0x1aa <lcd_gotoxy>
	lcd_puts("#> Load Water");
    1e50:	83 e4       	ldi	r24, 0x43	; 67
    1e52:	93 e0       	ldi	r25, 0x03	; 3
    1e54:	0e 94 1b 01 	call	0x236	; 0x236 <lcd_puts>
	lcd_gotoxy(3,0);
    1e58:	60 e0       	ldi	r22, 0x00	; 0
    1e5a:	83 e0       	ldi	r24, 0x03	; 3
    1e5c:	0e 94 d5 00 	call	0x1aa	; 0x1aa <lcd_gotoxy>
	lcd_puts("C> CANCEL");
    1e60:	81 e5       	ldi	r24, 0x51	; 81
    1e62:	93 e0       	ldi	r25, 0x03	; 3
    1e64:	0e 94 1b 01 	call	0x236	; 0x236 <lcd_puts>
	
	while (scan_kpd_4x4());  // to eliminate the unwanted button press
    1e68:	0e 94 63 02 	call	0x4c6	; 0x4c6 <scan_kpd_4x4>
    1e6c:	89 2b       	or	r24, r25
    1e6e:	e1 f7       	brne	.-8      	; 0x1e68 <__stack+0x1609>
    1e70:	bd 89       	ldd	r27, Y+21	; 0x15
    1e72:	ef e7       	ldi	r30, 0x7F	; 127
    1e74:	f8 e3       	ldi	r31, 0x38	; 56
    1e76:	21 e0       	ldi	r18, 0x01	; 1
    1e78:	e1 50       	subi	r30, 0x01	; 1
    1e7a:	f0 40       	sbci	r31, 0x00	; 0
    1e7c:	20 40       	sbci	r18, 0x00	; 0
    1e7e:	e1 f7       	brne	.-8      	; 0x1e78 <__stack+0x1619>
    1e80:	00 c0       	rjmp	.+0      	; 0x1e82 <__stack+0x1623>
    1e82:	00 00       	nop
    1e84:	bd 8b       	std	Y+21, r27	; 0x15
	_delay_ms(100);
	while (1)
	{
		if ((kp_input = scan_kpd_4x4()))  //scan for keypad data
    1e86:	0e 94 63 02 	call	0x4c6	; 0x4c6 <scan_kpd_4x4>
    1e8a:	88 23       	and	r24, r24
    1e8c:	49 f0       	breq	.+18     	; 0x1ea0 <__stack+0x1641>
		{
			if (kp_input == 12)  // press # to load water
    1e8e:	8c 30       	cpi	r24, 0x0C	; 12
    1e90:	71 f0       	breq	.+28     	; 0x1eae <__stack+0x164f>
			{
				break;
			}
			else if (kp_input == 14)  // b for bypass
    1e92:	8e 30       	cpi	r24, 0x0E	; 14
    1e94:	11 f4       	brne	.+4      	; 0x1e9a <__stack+0x163b>
    1e96:	0c 94 14 06 	jmp	0xc28	; 0xc28 <__stack+0x3c9>
			{
				input_f = 7;
				goto manual_operation;
			}
			else if (kp_input == 15)  // c for cancel
    1e9a:	8f 30       	cpi	r24, 0x0F	; 15
    1e9c:	09 f4       	brne	.+2      	; 0x1ea0 <__stack+0x1641>
    1e9e:	78 cf       	rjmp	.-272    	; 0x1d90 <__stack+0x1531>
    1ea0:	8f e0       	ldi	r24, 0x0F	; 15
    1ea2:	97 e2       	ldi	r25, 0x27	; 39
    1ea4:	01 97       	sbiw	r24, 0x01	; 1
    1ea6:	f1 f7       	brne	.-4      	; 0x1ea4 <__stack+0x1645>
    1ea8:	00 c0       	rjmp	.+0      	; 0x1eaa <__stack+0x164b>
    1eaa:	00 00       	nop
    1eac:	ec cf       	rjmp	.-40     	; 0x1e86 <__stack+0x1627>
    1eae:	1e 8b       	std	Y+22, r17	; 0x16
			}
		}
		_delay_ms(10);
	}

	i_water = 0;
    1eb0:	ad 85       	ldd	r26, Y+13	; 0x0d
    1eb2:	a0 93 b1 03 	sts	0x03B1, r26
    1eb6:	be 85       	ldd	r27, Y+14	; 0x0e
    1eb8:	b0 93 b2 03 	sts	0x03B2, r27
    1ebc:	ef 85       	ldd	r30, Y+15	; 0x0f
    1ebe:	e0 93 b3 03 	sts	0x03B3, r30
    1ec2:	f8 89       	ldd	r31, Y+16	; 0x10
    1ec4:	f0 93 b4 03 	sts	0x03B4, r31
	i_water_hold =0;
    1ec8:	a0 93 ad 03 	sts	0x03AD, r26
    1ecc:	b0 93 ae 03 	sts	0x03AE, r27
    1ed0:	e0 93 af 03 	sts	0x03AF, r30
    1ed4:	f0 93 b0 03 	sts	0x03B0, r31
	PORTB |= (1<<2);  //This port pin is for water valve on
    1ed8:	c2 9a       	sbi	0x18, 2	; 24
	
	lcd_gotoxy(1,0);
    1eda:	60 e0       	ldi	r22, 0x00	; 0
    1edc:	81 e0       	ldi	r24, 0x01	; 1
    1ede:	0e 94 d5 00 	call	0x1aa	; 0x1aa <lcd_gotoxy>
	lcd_puts("Counted Pulse:");
    1ee2:	8b e5       	ldi	r24, 0x5B	; 91
    1ee4:	93 e0       	ldi	r25, 0x03	; 3
    1ee6:	0e 94 1b 01 	call	0x236	; 0x236 <lcd_puts>
	lcd_gotoxy(2,0);
    1eea:	60 e0       	ldi	r22, 0x00	; 0
    1eec:	82 e0       	ldi	r24, 0x02	; 2
    1eee:	0e 94 d5 00 	call	0x1aa	; 0x1aa <lcd_gotoxy>
	lcd_puts("#> Stop Loading");
    1ef2:	8a e6       	ldi	r24, 0x6A	; 106
    1ef4:	93 e0       	ldi	r25, 0x03	; 3
    1ef6:	0e 94 1b 01 	call	0x236	; 0x236 <lcd_puts>
	lcd_gotoxy(3,0);
    1efa:	60 e0       	ldi	r22, 0x00	; 0
    1efc:	83 e0       	ldi	r24, 0x03	; 3
    1efe:	0e 94 d5 00 	call	0x1aa	; 0x1aa <lcd_gotoxy>
	lcd_puts("         ");
    1f02:	8a e7       	ldi	r24, 0x7A	; 122
    1f04:	93 e0       	ldi	r25, 0x03	; 3
    1f06:	0e 94 1b 01 	call	0x236	; 0x236 <lcd_puts>
    1f0a:	1e 89       	ldd	r17, Y+22	; 0x16
	
	while (scan_kpd_4x4());  // to eliminate the unwanted button press
    1f0c:	0e 94 63 02 	call	0x4c6	; 0x4c6 <scan_kpd_4x4>
    1f10:	89 2b       	or	r24, r25
    1f12:	e1 f7       	brne	.-8      	; 0x1f0c <__stack+0x16ad>
    1f14:	3d 89       	ldd	r19, Y+21	; 0x15
    1f16:	1e 8b       	std	Y+22, r17	; 0x16
    1f18:	4f e7       	ldi	r20, 0x7F	; 127
    1f1a:	58 e3       	ldi	r21, 0x38	; 56
    1f1c:	81 e0       	ldi	r24, 0x01	; 1
    1f1e:	41 50       	subi	r20, 0x01	; 1
    1f20:	50 40       	sbci	r21, 0x00	; 0
    1f22:	80 40       	sbci	r24, 0x00	; 0
    1f24:	e1 f7       	brne	.-8      	; 0x1f1e <__stack+0x16bf>
    1f26:	00 c0       	rjmp	.+0      	; 0x1f28 <__stack+0x16c9>
    1f28:	00 00       	nop
    1f2a:	3d 8b       	std	Y+21, r19	; 0x15
    1f2c:	1e 89       	ldd	r17, Y+22	; 0x16
	_delay_ms(100);
	while (1)
	{

		if ((kp_input = scan_kpd_4x4()))  //scan for keypad data
    1f2e:	0e 94 63 02 	call	0x4c6	; 0x4c6 <scan_kpd_4x4>
		{
			if (kp_input == 12)  // press # to stop loading
    1f32:	8c 30       	cpi	r24, 0x0C	; 12
    1f34:	f1 f4       	brne	.+60     	; 0x1f72 <__stack+0x1713>
    1f36:	1e 8b       	std	Y+22, r17	; 0x16
			{
				PORTB &= ~(1<<2); //water valve off
    1f38:	c2 98       	cbi	0x18, 2	; 24
    1f3a:	af e7       	ldi	r26, 0x7F	; 127
    1f3c:	ba e1       	ldi	r27, 0x1A	; 26
    1f3e:	e6 e0       	ldi	r30, 0x06	; 6
    1f40:	a1 50       	subi	r26, 0x01	; 1
    1f42:	b0 40       	sbci	r27, 0x00	; 0
    1f44:	e0 40       	sbci	r30, 0x00	; 0
    1f46:	e1 f7       	brne	.-8      	; 0x1f40 <__stack+0x16e1>
    1f48:	00 c0       	rjmp	.+0      	; 0x1f4a <__stack+0x16eb>
    1f4a:	00 00       	nop
				_delay_ms(500);
				i_water_hold = i_water;
    1f4c:	80 91 b1 03 	lds	r24, 0x03B1
    1f50:	90 91 b2 03 	lds	r25, 0x03B2
    1f54:	a0 91 b3 03 	lds	r26, 0x03B3
    1f58:	b0 91 b4 03 	lds	r27, 0x03B4
    1f5c:	80 93 ad 03 	sts	0x03AD, r24
    1f60:	90 93 ae 03 	sts	0x03AE, r25
    1f64:	a0 93 af 03 	sts	0x03AF, r26
    1f68:	b0 93 b0 03 	sts	0x03B0, r27
				input_f = 9;
    1f6c:	19 e0       	ldi	r17, 0x09	; 9
				goto manual_operation;
    1f6e:	0c 94 16 06 	jmp	0xc2c	; 0xc2c <__stack+0x3cd>
			}
		}
		
		lcd_gotoxy(1,14);
    1f72:	6e e0       	ldi	r22, 0x0E	; 14
    1f74:	81 e0       	ldi	r24, 0x01	; 1
    1f76:	0e 94 d5 00 	call	0x1aa	; 0x1aa <lcd_gotoxy>
		lcd_putsint(i_water,6);	
    1f7a:	60 91 b1 03 	lds	r22, 0x03B1
    1f7e:	70 91 b2 03 	lds	r23, 0x03B2
    1f82:	80 91 b3 03 	lds	r24, 0x03B3
    1f86:	90 91 b4 03 	lds	r25, 0x03B4
    1f8a:	46 e0       	ldi	r20, 0x06	; 6
    1f8c:	0e 94 b7 01 	call	0x36e	; 0x36e <lcd_putsint>
	}
    1f90:	ce cf       	rjmp	.-100    	; 0x1f2e <__stack+0x16cf>
	lcd_gotoxy(1,0);
	lcd_puts("Counted Value:    C");
	lcd_gotoxy(2,0);
	lcd_puts("#> Stop Steam");

	while(scan_kpd_4x4());
    1f92:	0e 94 63 02 	call	0x4c6	; 0x4c6 <scan_kpd_4x4>
    1f96:	89 2b       	or	r24, r25
    1f98:	e1 f7       	brne	.-8      	; 0x1f92 <__stack+0x1733>
    1f9a:	1e 8b       	std	Y+22, r17	; 0x16
    1f9c:	ff e7       	ldi	r31, 0x7F	; 127
    1f9e:	28 e3       	ldi	r18, 0x38	; 56
    1fa0:	31 e0       	ldi	r19, 0x01	; 1
    1fa2:	f1 50       	subi	r31, 0x01	; 1
    1fa4:	20 40       	sbci	r18, 0x00	; 0
    1fa6:	30 40       	sbci	r19, 0x00	; 0
    1fa8:	e1 f7       	brne	.-8      	; 0x1fa2 <__stack+0x1743>
    1faa:	00 c0       	rjmp	.+0      	; 0x1fac <__stack+0x174d>
    1fac:	00 00       	nop
	_delay_ms(100);
	
	PORTB |= (1<<1); //steam valve on
    1fae:	c1 9a       	sbi	0x18, 1	; 24
    1fb0:	1e 89       	ldd	r17, Y+22	; 0x16
	
	while(1)
	{
		if (compare_time != i_time)
    1fb2:	40 91 b5 03 	lds	r20, 0x03B5
    1fb6:	50 91 b6 03 	lds	r21, 0x03B6
    1fba:	60 91 b7 03 	lds	r22, 0x03B7
    1fbe:	70 91 b8 03 	lds	r23, 0x03B8
    1fc2:	80 91 b9 03 	lds	r24, 0x03B9
    1fc6:	90 91 ba 03 	lds	r25, 0x03BA
    1fca:	a0 91 bb 03 	lds	r26, 0x03BB
    1fce:	b0 91 bc 03 	lds	r27, 0x03BC
    1fd2:	48 17       	cp	r20, r24
    1fd4:	59 07       	cpc	r21, r25
    1fd6:	6a 07       	cpc	r22, r26
    1fd8:	7b 07       	cpc	r23, r27
    1fda:	09 f1       	breq	.+66     	; 0x201e <__stack+0x17bf>
		{
			lcd_gotoxy(1,14);
    1fdc:	6e e0       	ldi	r22, 0x0E	; 14
    1fde:	81 e0       	ldi	r24, 0x01	; 1
    1fe0:	0e 94 d5 00 	call	0x1aa	; 0x1aa <lcd_gotoxy>
			lcd_putsint(Global_temperature,4);
    1fe4:	60 91 90 03 	lds	r22, 0x0390
    1fe8:	70 91 91 03 	lds	r23, 0x0391
    1fec:	80 91 92 03 	lds	r24, 0x0392
    1ff0:	90 91 93 03 	lds	r25, 0x0393
    1ff4:	0e 94 0f 11 	call	0x221e	; 0x221e <__fixsfsi>
    1ff8:	44 e0       	ldi	r20, 0x04	; 4
    1ffa:	0e 94 b7 01 	call	0x36e	; 0x36e <lcd_putsint>
			compare_time = i_time;
    1ffe:	80 91 b9 03 	lds	r24, 0x03B9
    2002:	90 91 ba 03 	lds	r25, 0x03BA
    2006:	a0 91 bb 03 	lds	r26, 0x03BB
    200a:	b0 91 bc 03 	lds	r27, 0x03BC
    200e:	80 93 b5 03 	sts	0x03B5, r24
    2012:	90 93 b6 03 	sts	0x03B6, r25
    2016:	a0 93 b7 03 	sts	0x03B7, r26
    201a:	b0 93 b8 03 	sts	0x03B8, r27
		}
		if ((kp_input = scan_kpd_4x4()))  //scan for keypad data
    201e:	0e 94 63 02 	call	0x4c6	; 0x4c6 <scan_kpd_4x4>
		{
			if (kp_input == 12)  // press # to stop loading
    2022:	8c 30       	cpi	r24, 0x0C	; 12
    2024:	31 f6       	brne	.-116    	; 0x1fb2 <__stack+0x1753>
    2026:	1e 8b       	std	Y+22, r17	; 0x16
			{
				PORTB &= ~(1<<1); //steam valve off
    2028:	c1 98       	cbi	0x18, 1	; 24
    202a:	4f e7       	ldi	r20, 0x7F	; 127
    202c:	5a e1       	ldi	r21, 0x1A	; 26
    202e:	86 e0       	ldi	r24, 0x06	; 6
    2030:	41 50       	subi	r20, 0x01	; 1
    2032:	50 40       	sbci	r21, 0x00	; 0
    2034:	80 40       	sbci	r24, 0x00	; 0
    2036:	e1 f7       	brne	.-8      	; 0x2030 <__stack+0x17d1>
    2038:	00 c0       	rjmp	.+0      	; 0x203a <__stack+0x17db>
    203a:	00 00       	nop
				{
					start_temp = Global_temperature;
					eeprom_update_float(&start_temp_hold,start_temp);
					eeprom_update_float(&ratio_start_hold,(kp_val * 100.0)/start_temp);
					kp_val = 0;
					mxpos = 6;
    203c:	96 e0       	ldi	r25, 0x06	; 6
    203e:	9d 8b       	std	Y+21, r25	; 0x15
		{
			if (kp_input == 12)  // press # to stop loading
			{
				PORTB &= ~(1<<1); //steam valve off
				_delay_ms(500);
				input_f = 11;
    2040:	1b e0       	ldi	r17, 0x0B	; 11
				else if (input_f == 8)  //updating the start temperature calibration scaling
				{
					start_temp = Global_temperature;
					eeprom_update_float(&start_temp_hold,start_temp);
					eeprom_update_float(&ratio_start_hold,(kp_val * 100.0)/start_temp);
					kp_val = 0;
    2042:	cd 84       	ldd	r12, Y+13	; 0x0d
    2044:	de 84       	ldd	r13, Y+14	; 0x0e
    2046:	ef 84       	ldd	r14, Y+15	; 0x0f
    2048:	f8 88       	ldd	r15, Y+16	; 0x10
			if (kp_input == 12)  // press # to stop loading
			{
				PORTB &= ~(1<<1); //steam valve off
				_delay_ms(500);
				input_f = 11;
				goto manual_operation;
    204a:	0c 94 16 06 	jmp	0xc2c	; 0xc2c <__stack+0x3cd>
					lcd_cmd(0x0C);
					goto settings_calibration;
				}
			}
			
			if (mxpos <= 9) // limit the excess input
    204e:	ad 89       	ldd	r26, Y+21	; 0x15
    2050:	aa 30       	cpi	r26, 0x0A	; 10
    2052:	08 f4       	brcc	.+2      	; 0x2056 <__stack+0x17f7>
    2054:	f1 ca       	rjmp	.-2590   	; 0x1638 <__stack+0xdd9>
    2056:	f8 ca       	rjmp	.-2576   	; 0x1648 <__stack+0xde9>
				if (input_f == 2)  //taking input of water
				{
					water = kp_val;
					kp_val = 0;
					mxpos = 6;
					input_f = 3;
    2058:	13 e0       	ldi	r17, 0x03	; 3
    205a:	07 c0       	rjmp	.+14     	; 0x206a <__stack+0x180b>
    205c:	c9 86       	std	Y+9, r12	; 0x09
    205e:	da 86       	std	Y+10, r13	; 0x0a
    2060:	eb 86       	std	Y+11, r14	; 0x0b
    2062:	fc 86       	std	Y+12, r15	; 0x0c
    2064:	73 01       	movw	r14, r6
    2066:	62 01       	movw	r12, r4
				else if (input_f == 4)  // taking input of temperature
				{
					temp = kp_val;
					kp_val = 0;
					mxpos = 6;
					input_f = 5;
    2068:	15 e0       	ldi	r17, 0x05	; 5
    206a:	26 01       	movw	r4, r12
    206c:	37 01       	movw	r6, r14
    206e:	e6 e0       	ldi	r30, 0x06	; 6
    2070:	cb 2c       	mov	r12, r11
    2072:	d3 2c       	mov	r13, r3
    2074:	e0 2e       	mov	r14, r16
    2076:	f2 2c       	mov	r15, r2
    2078:	ed 8b       	std	Y+21, r30	; 0x15
    207a:	e6 ca       	rjmp	.-2612   	; 0x1648 <__stack+0xde9>

0000207c <__subsf3>:
    207c:	50 58       	subi	r21, 0x80	; 128

0000207e <__addsf3>:
    207e:	bb 27       	eor	r27, r27
    2080:	aa 27       	eor	r26, r26
    2082:	0e d0       	rcall	.+28     	; 0x20a0 <__addsf3x>
    2084:	75 c1       	rjmp	.+746    	; 0x2370 <__fp_round>
    2086:	66 d1       	rcall	.+716    	; 0x2354 <__fp_pscA>
    2088:	30 f0       	brcs	.+12     	; 0x2096 <__addsf3+0x18>
    208a:	6b d1       	rcall	.+726    	; 0x2362 <__fp_pscB>
    208c:	20 f0       	brcs	.+8      	; 0x2096 <__addsf3+0x18>
    208e:	31 f4       	brne	.+12     	; 0x209c <__addsf3+0x1e>
    2090:	9f 3f       	cpi	r25, 0xFF	; 255
    2092:	11 f4       	brne	.+4      	; 0x2098 <__addsf3+0x1a>
    2094:	1e f4       	brtc	.+6      	; 0x209c <__addsf3+0x1e>
    2096:	5b c1       	rjmp	.+694    	; 0x234e <__fp_nan>
    2098:	0e f4       	brtc	.+2      	; 0x209c <__addsf3+0x1e>
    209a:	e0 95       	com	r30
    209c:	e7 fb       	bst	r30, 7
    209e:	51 c1       	rjmp	.+674    	; 0x2342 <__fp_inf>

000020a0 <__addsf3x>:
    20a0:	e9 2f       	mov	r30, r25
    20a2:	77 d1       	rcall	.+750    	; 0x2392 <__fp_split3>
    20a4:	80 f3       	brcs	.-32     	; 0x2086 <__addsf3+0x8>
    20a6:	ba 17       	cp	r27, r26
    20a8:	62 07       	cpc	r22, r18
    20aa:	73 07       	cpc	r23, r19
    20ac:	84 07       	cpc	r24, r20
    20ae:	95 07       	cpc	r25, r21
    20b0:	18 f0       	brcs	.+6      	; 0x20b8 <__addsf3x+0x18>
    20b2:	71 f4       	brne	.+28     	; 0x20d0 <__addsf3x+0x30>
    20b4:	9e f5       	brtc	.+102    	; 0x211c <__addsf3x+0x7c>
    20b6:	8f c1       	rjmp	.+798    	; 0x23d6 <__fp_zero>
    20b8:	0e f4       	brtc	.+2      	; 0x20bc <__addsf3x+0x1c>
    20ba:	e0 95       	com	r30
    20bc:	0b 2e       	mov	r0, r27
    20be:	ba 2f       	mov	r27, r26
    20c0:	a0 2d       	mov	r26, r0
    20c2:	0b 01       	movw	r0, r22
    20c4:	b9 01       	movw	r22, r18
    20c6:	90 01       	movw	r18, r0
    20c8:	0c 01       	movw	r0, r24
    20ca:	ca 01       	movw	r24, r20
    20cc:	a0 01       	movw	r20, r0
    20ce:	11 24       	eor	r1, r1
    20d0:	ff 27       	eor	r31, r31
    20d2:	59 1b       	sub	r21, r25
    20d4:	99 f0       	breq	.+38     	; 0x20fc <__addsf3x+0x5c>
    20d6:	59 3f       	cpi	r21, 0xF9	; 249
    20d8:	50 f4       	brcc	.+20     	; 0x20ee <__addsf3x+0x4e>
    20da:	50 3e       	cpi	r21, 0xE0	; 224
    20dc:	68 f1       	brcs	.+90     	; 0x2138 <__addsf3x+0x98>
    20de:	1a 16       	cp	r1, r26
    20e0:	f0 40       	sbci	r31, 0x00	; 0
    20e2:	a2 2f       	mov	r26, r18
    20e4:	23 2f       	mov	r18, r19
    20e6:	34 2f       	mov	r19, r20
    20e8:	44 27       	eor	r20, r20
    20ea:	58 5f       	subi	r21, 0xF8	; 248
    20ec:	f3 cf       	rjmp	.-26     	; 0x20d4 <__addsf3x+0x34>
    20ee:	46 95       	lsr	r20
    20f0:	37 95       	ror	r19
    20f2:	27 95       	ror	r18
    20f4:	a7 95       	ror	r26
    20f6:	f0 40       	sbci	r31, 0x00	; 0
    20f8:	53 95       	inc	r21
    20fa:	c9 f7       	brne	.-14     	; 0x20ee <__addsf3x+0x4e>
    20fc:	7e f4       	brtc	.+30     	; 0x211c <__addsf3x+0x7c>
    20fe:	1f 16       	cp	r1, r31
    2100:	ba 0b       	sbc	r27, r26
    2102:	62 0b       	sbc	r22, r18
    2104:	73 0b       	sbc	r23, r19
    2106:	84 0b       	sbc	r24, r20
    2108:	ba f0       	brmi	.+46     	; 0x2138 <__addsf3x+0x98>
    210a:	91 50       	subi	r25, 0x01	; 1
    210c:	a1 f0       	breq	.+40     	; 0x2136 <__addsf3x+0x96>
    210e:	ff 0f       	add	r31, r31
    2110:	bb 1f       	adc	r27, r27
    2112:	66 1f       	adc	r22, r22
    2114:	77 1f       	adc	r23, r23
    2116:	88 1f       	adc	r24, r24
    2118:	c2 f7       	brpl	.-16     	; 0x210a <__addsf3x+0x6a>
    211a:	0e c0       	rjmp	.+28     	; 0x2138 <__addsf3x+0x98>
    211c:	ba 0f       	add	r27, r26
    211e:	62 1f       	adc	r22, r18
    2120:	73 1f       	adc	r23, r19
    2122:	84 1f       	adc	r24, r20
    2124:	48 f4       	brcc	.+18     	; 0x2138 <__addsf3x+0x98>
    2126:	87 95       	ror	r24
    2128:	77 95       	ror	r23
    212a:	67 95       	ror	r22
    212c:	b7 95       	ror	r27
    212e:	f7 95       	ror	r31
    2130:	9e 3f       	cpi	r25, 0xFE	; 254
    2132:	08 f0       	brcs	.+2      	; 0x2136 <__addsf3x+0x96>
    2134:	b3 cf       	rjmp	.-154    	; 0x209c <__addsf3+0x1e>
    2136:	93 95       	inc	r25
    2138:	88 0f       	add	r24, r24
    213a:	08 f0       	brcs	.+2      	; 0x213e <__addsf3x+0x9e>
    213c:	99 27       	eor	r25, r25
    213e:	ee 0f       	add	r30, r30
    2140:	97 95       	ror	r25
    2142:	87 95       	ror	r24
    2144:	08 95       	ret

00002146 <__cmpsf2>:
    2146:	d9 d0       	rcall	.+434    	; 0x22fa <__fp_cmp>
    2148:	08 f4       	brcc	.+2      	; 0x214c <__cmpsf2+0x6>
    214a:	81 e0       	ldi	r24, 0x01	; 1
    214c:	08 95       	ret

0000214e <__divsf3>:
    214e:	0c d0       	rcall	.+24     	; 0x2168 <__divsf3x>
    2150:	0f c1       	rjmp	.+542    	; 0x2370 <__fp_round>
    2152:	07 d1       	rcall	.+526    	; 0x2362 <__fp_pscB>
    2154:	40 f0       	brcs	.+16     	; 0x2166 <__divsf3+0x18>
    2156:	fe d0       	rcall	.+508    	; 0x2354 <__fp_pscA>
    2158:	30 f0       	brcs	.+12     	; 0x2166 <__divsf3+0x18>
    215a:	21 f4       	brne	.+8      	; 0x2164 <__divsf3+0x16>
    215c:	5f 3f       	cpi	r21, 0xFF	; 255
    215e:	19 f0       	breq	.+6      	; 0x2166 <__divsf3+0x18>
    2160:	f0 c0       	rjmp	.+480    	; 0x2342 <__fp_inf>
    2162:	51 11       	cpse	r21, r1
    2164:	39 c1       	rjmp	.+626    	; 0x23d8 <__fp_szero>
    2166:	f3 c0       	rjmp	.+486    	; 0x234e <__fp_nan>

00002168 <__divsf3x>:
    2168:	14 d1       	rcall	.+552    	; 0x2392 <__fp_split3>
    216a:	98 f3       	brcs	.-26     	; 0x2152 <__divsf3+0x4>

0000216c <__divsf3_pse>:
    216c:	99 23       	and	r25, r25
    216e:	c9 f3       	breq	.-14     	; 0x2162 <__divsf3+0x14>
    2170:	55 23       	and	r21, r21
    2172:	b1 f3       	breq	.-20     	; 0x2160 <__divsf3+0x12>
    2174:	95 1b       	sub	r25, r21
    2176:	55 0b       	sbc	r21, r21
    2178:	bb 27       	eor	r27, r27
    217a:	aa 27       	eor	r26, r26
    217c:	62 17       	cp	r22, r18
    217e:	73 07       	cpc	r23, r19
    2180:	84 07       	cpc	r24, r20
    2182:	38 f0       	brcs	.+14     	; 0x2192 <__divsf3_pse+0x26>
    2184:	9f 5f       	subi	r25, 0xFF	; 255
    2186:	5f 4f       	sbci	r21, 0xFF	; 255
    2188:	22 0f       	add	r18, r18
    218a:	33 1f       	adc	r19, r19
    218c:	44 1f       	adc	r20, r20
    218e:	aa 1f       	adc	r26, r26
    2190:	a9 f3       	breq	.-22     	; 0x217c <__divsf3_pse+0x10>
    2192:	33 d0       	rcall	.+102    	; 0x21fa <__divsf3_pse+0x8e>
    2194:	0e 2e       	mov	r0, r30
    2196:	3a f0       	brmi	.+14     	; 0x21a6 <__divsf3_pse+0x3a>
    2198:	e0 e8       	ldi	r30, 0x80	; 128
    219a:	30 d0       	rcall	.+96     	; 0x21fc <__divsf3_pse+0x90>
    219c:	91 50       	subi	r25, 0x01	; 1
    219e:	50 40       	sbci	r21, 0x00	; 0
    21a0:	e6 95       	lsr	r30
    21a2:	00 1c       	adc	r0, r0
    21a4:	ca f7       	brpl	.-14     	; 0x2198 <__divsf3_pse+0x2c>
    21a6:	29 d0       	rcall	.+82     	; 0x21fa <__divsf3_pse+0x8e>
    21a8:	fe 2f       	mov	r31, r30
    21aa:	27 d0       	rcall	.+78     	; 0x21fa <__divsf3_pse+0x8e>
    21ac:	66 0f       	add	r22, r22
    21ae:	77 1f       	adc	r23, r23
    21b0:	88 1f       	adc	r24, r24
    21b2:	bb 1f       	adc	r27, r27
    21b4:	26 17       	cp	r18, r22
    21b6:	37 07       	cpc	r19, r23
    21b8:	48 07       	cpc	r20, r24
    21ba:	ab 07       	cpc	r26, r27
    21bc:	b0 e8       	ldi	r27, 0x80	; 128
    21be:	09 f0       	breq	.+2      	; 0x21c2 <__divsf3_pse+0x56>
    21c0:	bb 0b       	sbc	r27, r27
    21c2:	80 2d       	mov	r24, r0
    21c4:	bf 01       	movw	r22, r30
    21c6:	ff 27       	eor	r31, r31
    21c8:	93 58       	subi	r25, 0x83	; 131
    21ca:	5f 4f       	sbci	r21, 0xFF	; 255
    21cc:	2a f0       	brmi	.+10     	; 0x21d8 <__divsf3_pse+0x6c>
    21ce:	9e 3f       	cpi	r25, 0xFE	; 254
    21d0:	51 05       	cpc	r21, r1
    21d2:	68 f0       	brcs	.+26     	; 0x21ee <__divsf3_pse+0x82>
    21d4:	b6 c0       	rjmp	.+364    	; 0x2342 <__fp_inf>
    21d6:	00 c1       	rjmp	.+512    	; 0x23d8 <__fp_szero>
    21d8:	5f 3f       	cpi	r21, 0xFF	; 255
    21da:	ec f3       	brlt	.-6      	; 0x21d6 <__divsf3_pse+0x6a>
    21dc:	98 3e       	cpi	r25, 0xE8	; 232
    21de:	dc f3       	brlt	.-10     	; 0x21d6 <__divsf3_pse+0x6a>
    21e0:	86 95       	lsr	r24
    21e2:	77 95       	ror	r23
    21e4:	67 95       	ror	r22
    21e6:	b7 95       	ror	r27
    21e8:	f7 95       	ror	r31
    21ea:	9f 5f       	subi	r25, 0xFF	; 255
    21ec:	c9 f7       	brne	.-14     	; 0x21e0 <__divsf3_pse+0x74>
    21ee:	88 0f       	add	r24, r24
    21f0:	91 1d       	adc	r25, r1
    21f2:	96 95       	lsr	r25
    21f4:	87 95       	ror	r24
    21f6:	97 f9       	bld	r25, 7
    21f8:	08 95       	ret
    21fa:	e1 e0       	ldi	r30, 0x01	; 1
    21fc:	66 0f       	add	r22, r22
    21fe:	77 1f       	adc	r23, r23
    2200:	88 1f       	adc	r24, r24
    2202:	bb 1f       	adc	r27, r27
    2204:	62 17       	cp	r22, r18
    2206:	73 07       	cpc	r23, r19
    2208:	84 07       	cpc	r24, r20
    220a:	ba 07       	cpc	r27, r26
    220c:	20 f0       	brcs	.+8      	; 0x2216 <__divsf3_pse+0xaa>
    220e:	62 1b       	sub	r22, r18
    2210:	73 0b       	sbc	r23, r19
    2212:	84 0b       	sbc	r24, r20
    2214:	ba 0b       	sbc	r27, r26
    2216:	ee 1f       	adc	r30, r30
    2218:	88 f7       	brcc	.-30     	; 0x21fc <__divsf3_pse+0x90>
    221a:	e0 95       	com	r30
    221c:	08 95       	ret

0000221e <__fixsfsi>:
    221e:	04 d0       	rcall	.+8      	; 0x2228 <__fixunssfsi>
    2220:	68 94       	set
    2222:	b1 11       	cpse	r27, r1
    2224:	d9 c0       	rjmp	.+434    	; 0x23d8 <__fp_szero>
    2226:	08 95       	ret

00002228 <__fixunssfsi>:
    2228:	bc d0       	rcall	.+376    	; 0x23a2 <__fp_splitA>
    222a:	88 f0       	brcs	.+34     	; 0x224e <__fixunssfsi+0x26>
    222c:	9f 57       	subi	r25, 0x7F	; 127
    222e:	90 f0       	brcs	.+36     	; 0x2254 <__fixunssfsi+0x2c>
    2230:	b9 2f       	mov	r27, r25
    2232:	99 27       	eor	r25, r25
    2234:	b7 51       	subi	r27, 0x17	; 23
    2236:	a0 f0       	brcs	.+40     	; 0x2260 <__fixunssfsi+0x38>
    2238:	d1 f0       	breq	.+52     	; 0x226e <__fixunssfsi+0x46>
    223a:	66 0f       	add	r22, r22
    223c:	77 1f       	adc	r23, r23
    223e:	88 1f       	adc	r24, r24
    2240:	99 1f       	adc	r25, r25
    2242:	1a f0       	brmi	.+6      	; 0x224a <__fixunssfsi+0x22>
    2244:	ba 95       	dec	r27
    2246:	c9 f7       	brne	.-14     	; 0x223a <__fixunssfsi+0x12>
    2248:	12 c0       	rjmp	.+36     	; 0x226e <__fixunssfsi+0x46>
    224a:	b1 30       	cpi	r27, 0x01	; 1
    224c:	81 f0       	breq	.+32     	; 0x226e <__fixunssfsi+0x46>
    224e:	c3 d0       	rcall	.+390    	; 0x23d6 <__fp_zero>
    2250:	b1 e0       	ldi	r27, 0x01	; 1
    2252:	08 95       	ret
    2254:	c0 c0       	rjmp	.+384    	; 0x23d6 <__fp_zero>
    2256:	67 2f       	mov	r22, r23
    2258:	78 2f       	mov	r23, r24
    225a:	88 27       	eor	r24, r24
    225c:	b8 5f       	subi	r27, 0xF8	; 248
    225e:	39 f0       	breq	.+14     	; 0x226e <__fixunssfsi+0x46>
    2260:	b9 3f       	cpi	r27, 0xF9	; 249
    2262:	cc f3       	brlt	.-14     	; 0x2256 <__fixunssfsi+0x2e>
    2264:	86 95       	lsr	r24
    2266:	77 95       	ror	r23
    2268:	67 95       	ror	r22
    226a:	b3 95       	inc	r27
    226c:	d9 f7       	brne	.-10     	; 0x2264 <__fixunssfsi+0x3c>
    226e:	3e f4       	brtc	.+14     	; 0x227e <__fixunssfsi+0x56>
    2270:	90 95       	com	r25
    2272:	80 95       	com	r24
    2274:	70 95       	com	r23
    2276:	61 95       	neg	r22
    2278:	7f 4f       	sbci	r23, 0xFF	; 255
    227a:	8f 4f       	sbci	r24, 0xFF	; 255
    227c:	9f 4f       	sbci	r25, 0xFF	; 255
    227e:	08 95       	ret

00002280 <__floatunsisf>:
    2280:	e8 94       	clt
    2282:	09 c0       	rjmp	.+18     	; 0x2296 <__floatsisf+0x12>

00002284 <__floatsisf>:
    2284:	97 fb       	bst	r25, 7
    2286:	3e f4       	brtc	.+14     	; 0x2296 <__floatsisf+0x12>
    2288:	90 95       	com	r25
    228a:	80 95       	com	r24
    228c:	70 95       	com	r23
    228e:	61 95       	neg	r22
    2290:	7f 4f       	sbci	r23, 0xFF	; 255
    2292:	8f 4f       	sbci	r24, 0xFF	; 255
    2294:	9f 4f       	sbci	r25, 0xFF	; 255
    2296:	99 23       	and	r25, r25
    2298:	a9 f0       	breq	.+42     	; 0x22c4 <__floatsisf+0x40>
    229a:	f9 2f       	mov	r31, r25
    229c:	96 e9       	ldi	r25, 0x96	; 150
    229e:	bb 27       	eor	r27, r27
    22a0:	93 95       	inc	r25
    22a2:	f6 95       	lsr	r31
    22a4:	87 95       	ror	r24
    22a6:	77 95       	ror	r23
    22a8:	67 95       	ror	r22
    22aa:	b7 95       	ror	r27
    22ac:	f1 11       	cpse	r31, r1
    22ae:	f8 cf       	rjmp	.-16     	; 0x22a0 <__floatsisf+0x1c>
    22b0:	fa f4       	brpl	.+62     	; 0x22f0 <__floatsisf+0x6c>
    22b2:	bb 0f       	add	r27, r27
    22b4:	11 f4       	brne	.+4      	; 0x22ba <__floatsisf+0x36>
    22b6:	60 ff       	sbrs	r22, 0
    22b8:	1b c0       	rjmp	.+54     	; 0x22f0 <__floatsisf+0x6c>
    22ba:	6f 5f       	subi	r22, 0xFF	; 255
    22bc:	7f 4f       	sbci	r23, 0xFF	; 255
    22be:	8f 4f       	sbci	r24, 0xFF	; 255
    22c0:	9f 4f       	sbci	r25, 0xFF	; 255
    22c2:	16 c0       	rjmp	.+44     	; 0x22f0 <__floatsisf+0x6c>
    22c4:	88 23       	and	r24, r24
    22c6:	11 f0       	breq	.+4      	; 0x22cc <__floatsisf+0x48>
    22c8:	96 e9       	ldi	r25, 0x96	; 150
    22ca:	11 c0       	rjmp	.+34     	; 0x22ee <__floatsisf+0x6a>
    22cc:	77 23       	and	r23, r23
    22ce:	21 f0       	breq	.+8      	; 0x22d8 <__floatsisf+0x54>
    22d0:	9e e8       	ldi	r25, 0x8E	; 142
    22d2:	87 2f       	mov	r24, r23
    22d4:	76 2f       	mov	r23, r22
    22d6:	05 c0       	rjmp	.+10     	; 0x22e2 <__floatsisf+0x5e>
    22d8:	66 23       	and	r22, r22
    22da:	71 f0       	breq	.+28     	; 0x22f8 <__floatsisf+0x74>
    22dc:	96 e8       	ldi	r25, 0x86	; 134
    22de:	86 2f       	mov	r24, r22
    22e0:	70 e0       	ldi	r23, 0x00	; 0
    22e2:	60 e0       	ldi	r22, 0x00	; 0
    22e4:	2a f0       	brmi	.+10     	; 0x22f0 <__floatsisf+0x6c>
    22e6:	9a 95       	dec	r25
    22e8:	66 0f       	add	r22, r22
    22ea:	77 1f       	adc	r23, r23
    22ec:	88 1f       	adc	r24, r24
    22ee:	da f7       	brpl	.-10     	; 0x22e6 <__floatsisf+0x62>
    22f0:	88 0f       	add	r24, r24
    22f2:	96 95       	lsr	r25
    22f4:	87 95       	ror	r24
    22f6:	97 f9       	bld	r25, 7
    22f8:	08 95       	ret

000022fa <__fp_cmp>:
    22fa:	99 0f       	add	r25, r25
    22fc:	00 08       	sbc	r0, r0
    22fe:	55 0f       	add	r21, r21
    2300:	aa 0b       	sbc	r26, r26
    2302:	e0 e8       	ldi	r30, 0x80	; 128
    2304:	fe ef       	ldi	r31, 0xFE	; 254
    2306:	16 16       	cp	r1, r22
    2308:	17 06       	cpc	r1, r23
    230a:	e8 07       	cpc	r30, r24
    230c:	f9 07       	cpc	r31, r25
    230e:	c0 f0       	brcs	.+48     	; 0x2340 <__fp_cmp+0x46>
    2310:	12 16       	cp	r1, r18
    2312:	13 06       	cpc	r1, r19
    2314:	e4 07       	cpc	r30, r20
    2316:	f5 07       	cpc	r31, r21
    2318:	98 f0       	brcs	.+38     	; 0x2340 <__fp_cmp+0x46>
    231a:	62 1b       	sub	r22, r18
    231c:	73 0b       	sbc	r23, r19
    231e:	84 0b       	sbc	r24, r20
    2320:	95 0b       	sbc	r25, r21
    2322:	39 f4       	brne	.+14     	; 0x2332 <__fp_cmp+0x38>
    2324:	0a 26       	eor	r0, r26
    2326:	61 f0       	breq	.+24     	; 0x2340 <__fp_cmp+0x46>
    2328:	23 2b       	or	r18, r19
    232a:	24 2b       	or	r18, r20
    232c:	25 2b       	or	r18, r21
    232e:	21 f4       	brne	.+8      	; 0x2338 <__fp_cmp+0x3e>
    2330:	08 95       	ret
    2332:	0a 26       	eor	r0, r26
    2334:	09 f4       	brne	.+2      	; 0x2338 <__fp_cmp+0x3e>
    2336:	a1 40       	sbci	r26, 0x01	; 1
    2338:	a6 95       	lsr	r26
    233a:	8f ef       	ldi	r24, 0xFF	; 255
    233c:	81 1d       	adc	r24, r1
    233e:	81 1d       	adc	r24, r1
    2340:	08 95       	ret

00002342 <__fp_inf>:
    2342:	97 f9       	bld	r25, 7
    2344:	9f 67       	ori	r25, 0x7F	; 127
    2346:	80 e8       	ldi	r24, 0x80	; 128
    2348:	70 e0       	ldi	r23, 0x00	; 0
    234a:	60 e0       	ldi	r22, 0x00	; 0
    234c:	08 95       	ret

0000234e <__fp_nan>:
    234e:	9f ef       	ldi	r25, 0xFF	; 255
    2350:	80 ec       	ldi	r24, 0xC0	; 192
    2352:	08 95       	ret

00002354 <__fp_pscA>:
    2354:	00 24       	eor	r0, r0
    2356:	0a 94       	dec	r0
    2358:	16 16       	cp	r1, r22
    235a:	17 06       	cpc	r1, r23
    235c:	18 06       	cpc	r1, r24
    235e:	09 06       	cpc	r0, r25
    2360:	08 95       	ret

00002362 <__fp_pscB>:
    2362:	00 24       	eor	r0, r0
    2364:	0a 94       	dec	r0
    2366:	12 16       	cp	r1, r18
    2368:	13 06       	cpc	r1, r19
    236a:	14 06       	cpc	r1, r20
    236c:	05 06       	cpc	r0, r21
    236e:	08 95       	ret

00002370 <__fp_round>:
    2370:	09 2e       	mov	r0, r25
    2372:	03 94       	inc	r0
    2374:	00 0c       	add	r0, r0
    2376:	11 f4       	brne	.+4      	; 0x237c <__fp_round+0xc>
    2378:	88 23       	and	r24, r24
    237a:	52 f0       	brmi	.+20     	; 0x2390 <__fp_round+0x20>
    237c:	bb 0f       	add	r27, r27
    237e:	40 f4       	brcc	.+16     	; 0x2390 <__fp_round+0x20>
    2380:	bf 2b       	or	r27, r31
    2382:	11 f4       	brne	.+4      	; 0x2388 <__fp_round+0x18>
    2384:	60 ff       	sbrs	r22, 0
    2386:	04 c0       	rjmp	.+8      	; 0x2390 <__fp_round+0x20>
    2388:	6f 5f       	subi	r22, 0xFF	; 255
    238a:	7f 4f       	sbci	r23, 0xFF	; 255
    238c:	8f 4f       	sbci	r24, 0xFF	; 255
    238e:	9f 4f       	sbci	r25, 0xFF	; 255
    2390:	08 95       	ret

00002392 <__fp_split3>:
    2392:	57 fd       	sbrc	r21, 7
    2394:	90 58       	subi	r25, 0x80	; 128
    2396:	44 0f       	add	r20, r20
    2398:	55 1f       	adc	r21, r21
    239a:	59 f0       	breq	.+22     	; 0x23b2 <__fp_splitA+0x10>
    239c:	5f 3f       	cpi	r21, 0xFF	; 255
    239e:	71 f0       	breq	.+28     	; 0x23bc <__fp_splitA+0x1a>
    23a0:	47 95       	ror	r20

000023a2 <__fp_splitA>:
    23a2:	88 0f       	add	r24, r24
    23a4:	97 fb       	bst	r25, 7
    23a6:	99 1f       	adc	r25, r25
    23a8:	61 f0       	breq	.+24     	; 0x23c2 <__fp_splitA+0x20>
    23aa:	9f 3f       	cpi	r25, 0xFF	; 255
    23ac:	79 f0       	breq	.+30     	; 0x23cc <__fp_splitA+0x2a>
    23ae:	87 95       	ror	r24
    23b0:	08 95       	ret
    23b2:	12 16       	cp	r1, r18
    23b4:	13 06       	cpc	r1, r19
    23b6:	14 06       	cpc	r1, r20
    23b8:	55 1f       	adc	r21, r21
    23ba:	f2 cf       	rjmp	.-28     	; 0x23a0 <__fp_split3+0xe>
    23bc:	46 95       	lsr	r20
    23be:	f1 df       	rcall	.-30     	; 0x23a2 <__fp_splitA>
    23c0:	08 c0       	rjmp	.+16     	; 0x23d2 <__fp_splitA+0x30>
    23c2:	16 16       	cp	r1, r22
    23c4:	17 06       	cpc	r1, r23
    23c6:	18 06       	cpc	r1, r24
    23c8:	99 1f       	adc	r25, r25
    23ca:	f1 cf       	rjmp	.-30     	; 0x23ae <__fp_splitA+0xc>
    23cc:	86 95       	lsr	r24
    23ce:	71 05       	cpc	r23, r1
    23d0:	61 05       	cpc	r22, r1
    23d2:	08 94       	sec
    23d4:	08 95       	ret

000023d6 <__fp_zero>:
    23d6:	e8 94       	clt

000023d8 <__fp_szero>:
    23d8:	bb 27       	eor	r27, r27
    23da:	66 27       	eor	r22, r22
    23dc:	77 27       	eor	r23, r23
    23de:	cb 01       	movw	r24, r22
    23e0:	97 f9       	bld	r25, 7
    23e2:	08 95       	ret

000023e4 <__mulsf3>:
    23e4:	0b d0       	rcall	.+22     	; 0x23fc <__mulsf3x>
    23e6:	c4 cf       	rjmp	.-120    	; 0x2370 <__fp_round>
    23e8:	b5 df       	rcall	.-150    	; 0x2354 <__fp_pscA>
    23ea:	28 f0       	brcs	.+10     	; 0x23f6 <__mulsf3+0x12>
    23ec:	ba df       	rcall	.-140    	; 0x2362 <__fp_pscB>
    23ee:	18 f0       	brcs	.+6      	; 0x23f6 <__mulsf3+0x12>
    23f0:	95 23       	and	r25, r21
    23f2:	09 f0       	breq	.+2      	; 0x23f6 <__mulsf3+0x12>
    23f4:	a6 cf       	rjmp	.-180    	; 0x2342 <__fp_inf>
    23f6:	ab cf       	rjmp	.-170    	; 0x234e <__fp_nan>
    23f8:	11 24       	eor	r1, r1
    23fa:	ee cf       	rjmp	.-36     	; 0x23d8 <__fp_szero>

000023fc <__mulsf3x>:
    23fc:	ca df       	rcall	.-108    	; 0x2392 <__fp_split3>
    23fe:	a0 f3       	brcs	.-24     	; 0x23e8 <__mulsf3+0x4>

00002400 <__mulsf3_pse>:
    2400:	95 9f       	mul	r25, r21
    2402:	d1 f3       	breq	.-12     	; 0x23f8 <__mulsf3+0x14>
    2404:	95 0f       	add	r25, r21
    2406:	50 e0       	ldi	r21, 0x00	; 0
    2408:	55 1f       	adc	r21, r21
    240a:	62 9f       	mul	r22, r18
    240c:	f0 01       	movw	r30, r0
    240e:	72 9f       	mul	r23, r18
    2410:	bb 27       	eor	r27, r27
    2412:	f0 0d       	add	r31, r0
    2414:	b1 1d       	adc	r27, r1
    2416:	63 9f       	mul	r22, r19
    2418:	aa 27       	eor	r26, r26
    241a:	f0 0d       	add	r31, r0
    241c:	b1 1d       	adc	r27, r1
    241e:	aa 1f       	adc	r26, r26
    2420:	64 9f       	mul	r22, r20
    2422:	66 27       	eor	r22, r22
    2424:	b0 0d       	add	r27, r0
    2426:	a1 1d       	adc	r26, r1
    2428:	66 1f       	adc	r22, r22
    242a:	82 9f       	mul	r24, r18
    242c:	22 27       	eor	r18, r18
    242e:	b0 0d       	add	r27, r0
    2430:	a1 1d       	adc	r26, r1
    2432:	62 1f       	adc	r22, r18
    2434:	73 9f       	mul	r23, r19
    2436:	b0 0d       	add	r27, r0
    2438:	a1 1d       	adc	r26, r1
    243a:	62 1f       	adc	r22, r18
    243c:	83 9f       	mul	r24, r19
    243e:	a0 0d       	add	r26, r0
    2440:	61 1d       	adc	r22, r1
    2442:	22 1f       	adc	r18, r18
    2444:	74 9f       	mul	r23, r20
    2446:	33 27       	eor	r19, r19
    2448:	a0 0d       	add	r26, r0
    244a:	61 1d       	adc	r22, r1
    244c:	23 1f       	adc	r18, r19
    244e:	84 9f       	mul	r24, r20
    2450:	60 0d       	add	r22, r0
    2452:	21 1d       	adc	r18, r1
    2454:	82 2f       	mov	r24, r18
    2456:	76 2f       	mov	r23, r22
    2458:	6a 2f       	mov	r22, r26
    245a:	11 24       	eor	r1, r1
    245c:	9f 57       	subi	r25, 0x7F	; 127
    245e:	50 40       	sbci	r21, 0x00	; 0
    2460:	8a f0       	brmi	.+34     	; 0x2484 <__mulsf3_pse+0x84>
    2462:	e1 f0       	breq	.+56     	; 0x249c <__mulsf3_pse+0x9c>
    2464:	88 23       	and	r24, r24
    2466:	4a f0       	brmi	.+18     	; 0x247a <__mulsf3_pse+0x7a>
    2468:	ee 0f       	add	r30, r30
    246a:	ff 1f       	adc	r31, r31
    246c:	bb 1f       	adc	r27, r27
    246e:	66 1f       	adc	r22, r22
    2470:	77 1f       	adc	r23, r23
    2472:	88 1f       	adc	r24, r24
    2474:	91 50       	subi	r25, 0x01	; 1
    2476:	50 40       	sbci	r21, 0x00	; 0
    2478:	a9 f7       	brne	.-22     	; 0x2464 <__mulsf3_pse+0x64>
    247a:	9e 3f       	cpi	r25, 0xFE	; 254
    247c:	51 05       	cpc	r21, r1
    247e:	70 f0       	brcs	.+28     	; 0x249c <__mulsf3_pse+0x9c>
    2480:	60 cf       	rjmp	.-320    	; 0x2342 <__fp_inf>
    2482:	aa cf       	rjmp	.-172    	; 0x23d8 <__fp_szero>
    2484:	5f 3f       	cpi	r21, 0xFF	; 255
    2486:	ec f3       	brlt	.-6      	; 0x2482 <__mulsf3_pse+0x82>
    2488:	98 3e       	cpi	r25, 0xE8	; 232
    248a:	dc f3       	brlt	.-10     	; 0x2482 <__mulsf3_pse+0x82>
    248c:	86 95       	lsr	r24
    248e:	77 95       	ror	r23
    2490:	67 95       	ror	r22
    2492:	b7 95       	ror	r27
    2494:	f7 95       	ror	r31
    2496:	e7 95       	ror	r30
    2498:	9f 5f       	subi	r25, 0xFF	; 255
    249a:	c1 f7       	brne	.-16     	; 0x248c <__mulsf3_pse+0x8c>
    249c:	fe 2b       	or	r31, r30
    249e:	88 0f       	add	r24, r24
    24a0:	91 1d       	adc	r25, r1
    24a2:	96 95       	lsr	r25
    24a4:	87 95       	ror	r24
    24a6:	97 f9       	bld	r25, 7
    24a8:	08 95       	ret

000024aa <round>:
    24aa:	7b df       	rcall	.-266    	; 0x23a2 <__fp_splitA>
    24ac:	e0 f0       	brcs	.+56     	; 0x24e6 <round+0x3c>
    24ae:	9e 37       	cpi	r25, 0x7E	; 126
    24b0:	d8 f0       	brcs	.+54     	; 0x24e8 <round+0x3e>
    24b2:	96 39       	cpi	r25, 0x96	; 150
    24b4:	b8 f4       	brcc	.+46     	; 0x24e4 <round+0x3a>
    24b6:	9e 38       	cpi	r25, 0x8E	; 142
    24b8:	48 f4       	brcc	.+18     	; 0x24cc <round+0x22>
    24ba:	67 2f       	mov	r22, r23
    24bc:	78 2f       	mov	r23, r24
    24be:	88 27       	eor	r24, r24
    24c0:	98 5f       	subi	r25, 0xF8	; 248
    24c2:	f9 cf       	rjmp	.-14     	; 0x24b6 <round+0xc>
    24c4:	86 95       	lsr	r24
    24c6:	77 95       	ror	r23
    24c8:	67 95       	ror	r22
    24ca:	93 95       	inc	r25
    24cc:	95 39       	cpi	r25, 0x95	; 149
    24ce:	d0 f3       	brcs	.-12     	; 0x24c4 <round+0x1a>
    24d0:	b6 2f       	mov	r27, r22
    24d2:	b1 70       	andi	r27, 0x01	; 1
    24d4:	6b 0f       	add	r22, r27
    24d6:	71 1d       	adc	r23, r1
    24d8:	81 1d       	adc	r24, r1
    24da:	20 f4       	brcc	.+8      	; 0x24e4 <round+0x3a>
    24dc:	87 95       	ror	r24
    24de:	77 95       	ror	r23
    24e0:	67 95       	ror	r22
    24e2:	93 95       	inc	r25
    24e4:	02 c0       	rjmp	.+4      	; 0x24ea <__fp_mintl>
    24e6:	1c c0       	rjmp	.+56     	; 0x2520 <__fp_mpack>
    24e8:	77 cf       	rjmp	.-274    	; 0x23d8 <__fp_szero>

000024ea <__fp_mintl>:
    24ea:	88 23       	and	r24, r24
    24ec:	71 f4       	brne	.+28     	; 0x250a <__fp_mintl+0x20>
    24ee:	77 23       	and	r23, r23
    24f0:	21 f0       	breq	.+8      	; 0x24fa <__fp_mintl+0x10>
    24f2:	98 50       	subi	r25, 0x08	; 8
    24f4:	87 2b       	or	r24, r23
    24f6:	76 2f       	mov	r23, r22
    24f8:	07 c0       	rjmp	.+14     	; 0x2508 <__fp_mintl+0x1e>
    24fa:	66 23       	and	r22, r22
    24fc:	11 f4       	brne	.+4      	; 0x2502 <__fp_mintl+0x18>
    24fe:	99 27       	eor	r25, r25
    2500:	0d c0       	rjmp	.+26     	; 0x251c <__fp_mintl+0x32>
    2502:	90 51       	subi	r25, 0x10	; 16
    2504:	86 2b       	or	r24, r22
    2506:	70 e0       	ldi	r23, 0x00	; 0
    2508:	60 e0       	ldi	r22, 0x00	; 0
    250a:	2a f0       	brmi	.+10     	; 0x2516 <__fp_mintl+0x2c>
    250c:	9a 95       	dec	r25
    250e:	66 0f       	add	r22, r22
    2510:	77 1f       	adc	r23, r23
    2512:	88 1f       	adc	r24, r24
    2514:	da f7       	brpl	.-10     	; 0x250c <__fp_mintl+0x22>
    2516:	88 0f       	add	r24, r24
    2518:	96 95       	lsr	r25
    251a:	87 95       	ror	r24
    251c:	97 f9       	bld	r25, 7
    251e:	08 95       	ret

00002520 <__fp_mpack>:
    2520:	9f 3f       	cpi	r25, 0xFF	; 255
    2522:	31 f0       	breq	.+12     	; 0x2530 <__fp_mpack_finite+0xc>

00002524 <__fp_mpack_finite>:
    2524:	91 50       	subi	r25, 0x01	; 1
    2526:	20 f4       	brcc	.+8      	; 0x2530 <__fp_mpack_finite+0xc>
    2528:	87 95       	ror	r24
    252a:	77 95       	ror	r23
    252c:	67 95       	ror	r22
    252e:	b7 95       	ror	r27
    2530:	88 0f       	add	r24, r24
    2532:	91 1d       	adc	r25, r1
    2534:	96 95       	lsr	r25
    2536:	87 95       	ror	r24
    2538:	97 f9       	bld	r25, 7
    253a:	08 95       	ret

0000253c <__udivmodsi4>:
    253c:	a1 e2       	ldi	r26, 0x21	; 33
    253e:	1a 2e       	mov	r1, r26
    2540:	aa 1b       	sub	r26, r26
    2542:	bb 1b       	sub	r27, r27
    2544:	fd 01       	movw	r30, r26
    2546:	0d c0       	rjmp	.+26     	; 0x2562 <__udivmodsi4_ep>

00002548 <__udivmodsi4_loop>:
    2548:	aa 1f       	adc	r26, r26
    254a:	bb 1f       	adc	r27, r27
    254c:	ee 1f       	adc	r30, r30
    254e:	ff 1f       	adc	r31, r31
    2550:	a2 17       	cp	r26, r18
    2552:	b3 07       	cpc	r27, r19
    2554:	e4 07       	cpc	r30, r20
    2556:	f5 07       	cpc	r31, r21
    2558:	20 f0       	brcs	.+8      	; 0x2562 <__udivmodsi4_ep>
    255a:	a2 1b       	sub	r26, r18
    255c:	b3 0b       	sbc	r27, r19
    255e:	e4 0b       	sbc	r30, r20
    2560:	f5 0b       	sbc	r31, r21

00002562 <__udivmodsi4_ep>:
    2562:	66 1f       	adc	r22, r22
    2564:	77 1f       	adc	r23, r23
    2566:	88 1f       	adc	r24, r24
    2568:	99 1f       	adc	r25, r25
    256a:	1a 94       	dec	r1
    256c:	69 f7       	brne	.-38     	; 0x2548 <__udivmodsi4_loop>
    256e:	60 95       	com	r22
    2570:	70 95       	com	r23
    2572:	80 95       	com	r24
    2574:	90 95       	com	r25
    2576:	9b 01       	movw	r18, r22
    2578:	ac 01       	movw	r20, r24
    257a:	bd 01       	movw	r22, r26
    257c:	cf 01       	movw	r24, r30
    257e:	08 95       	ret

00002580 <__divmodsi4>:
    2580:	05 2e       	mov	r0, r21
    2582:	97 fb       	bst	r25, 7
    2584:	1e f4       	brtc	.+6      	; 0x258c <__divmodsi4+0xc>
    2586:	00 94       	com	r0
    2588:	0e 94 d7 12 	call	0x25ae	; 0x25ae <__negsi2>
    258c:	57 fd       	sbrc	r21, 7
    258e:	07 d0       	rcall	.+14     	; 0x259e <__divmodsi4_neg2>
    2590:	0e 94 9e 12 	call	0x253c	; 0x253c <__udivmodsi4>
    2594:	07 fc       	sbrc	r0, 7
    2596:	03 d0       	rcall	.+6      	; 0x259e <__divmodsi4_neg2>
    2598:	4e f4       	brtc	.+18     	; 0x25ac <__divmodsi4_exit>
    259a:	0c 94 d7 12 	jmp	0x25ae	; 0x25ae <__negsi2>

0000259e <__divmodsi4_neg2>:
    259e:	50 95       	com	r21
    25a0:	40 95       	com	r20
    25a2:	30 95       	com	r19
    25a4:	21 95       	neg	r18
    25a6:	3f 4f       	sbci	r19, 0xFF	; 255
    25a8:	4f 4f       	sbci	r20, 0xFF	; 255
    25aa:	5f 4f       	sbci	r21, 0xFF	; 255

000025ac <__divmodsi4_exit>:
    25ac:	08 95       	ret

000025ae <__negsi2>:
    25ae:	90 95       	com	r25
    25b0:	80 95       	com	r24
    25b2:	70 95       	com	r23
    25b4:	61 95       	neg	r22
    25b6:	7f 4f       	sbci	r23, 0xFF	; 255
    25b8:	8f 4f       	sbci	r24, 0xFF	; 255
    25ba:	9f 4f       	sbci	r25, 0xFF	; 255
    25bc:	08 95       	ret

000025be <__umulhisi3>:
    25be:	a2 9f       	mul	r26, r18
    25c0:	b0 01       	movw	r22, r0
    25c2:	b3 9f       	mul	r27, r19
    25c4:	c0 01       	movw	r24, r0
    25c6:	a3 9f       	mul	r26, r19
    25c8:	70 0d       	add	r23, r0
    25ca:	81 1d       	adc	r24, r1
    25cc:	11 24       	eor	r1, r1
    25ce:	91 1d       	adc	r25, r1
    25d0:	b2 9f       	mul	r27, r18
    25d2:	70 0d       	add	r23, r0
    25d4:	81 1d       	adc	r24, r1
    25d6:	11 24       	eor	r1, r1
    25d8:	91 1d       	adc	r25, r1
    25da:	08 95       	ret

000025dc <__muluhisi3>:
    25dc:	0e 94 df 12 	call	0x25be	; 0x25be <__umulhisi3>
    25e0:	a5 9f       	mul	r26, r21
    25e2:	90 0d       	add	r25, r0
    25e4:	b4 9f       	mul	r27, r20
    25e6:	90 0d       	add	r25, r0
    25e8:	a4 9f       	mul	r26, r20
    25ea:	80 0d       	add	r24, r0
    25ec:	91 1d       	adc	r25, r1
    25ee:	11 24       	eor	r1, r1
    25f0:	08 95       	ret

000025f2 <strrev>:
    25f2:	dc 01       	movw	r26, r24
    25f4:	fc 01       	movw	r30, r24
    25f6:	67 2f       	mov	r22, r23
    25f8:	71 91       	ld	r23, Z+
    25fa:	77 23       	and	r23, r23
    25fc:	e1 f7       	brne	.-8      	; 0x25f6 <strrev+0x4>
    25fe:	32 97       	sbiw	r30, 0x02	; 2
    2600:	04 c0       	rjmp	.+8      	; 0x260a <strrev+0x18>
    2602:	7c 91       	ld	r23, X
    2604:	6d 93       	st	X+, r22
    2606:	70 83       	st	Z, r23
    2608:	62 91       	ld	r22, -Z
    260a:	ae 17       	cp	r26, r30
    260c:	bf 07       	cpc	r27, r31
    260e:	c8 f3       	brcs	.-14     	; 0x2602 <strrev+0x10>
    2610:	08 95       	ret

00002612 <__eerd_dword_m32>:
    2612:	a6 e1       	ldi	r26, 0x16	; 22
    2614:	b0 e0       	ldi	r27, 0x00	; 0
    2616:	44 e0       	ldi	r20, 0x04	; 4
    2618:	50 e0       	ldi	r21, 0x00	; 0
    261a:	0c 94 1d 13 	jmp	0x263a	; 0x263a <__eerd_blraw_m32>

0000261e <__eeupd_dword_m32>:
    261e:	03 96       	adiw	r24, 0x03	; 3
    2620:	27 2f       	mov	r18, r23
    2622:	0e 94 2c 13 	call	0x2658	; 0x2658 <__eeupd_r18_m32>
    2626:	0e 94 2b 13 	call	0x2656	; 0x2656 <__eeupd_byte_m32>
    262a:	25 2f       	mov	r18, r21
    262c:	0e 94 2c 13 	call	0x2658	; 0x2658 <__eeupd_r18_m32>
    2630:	24 2f       	mov	r18, r20
    2632:	0c 94 2c 13 	jmp	0x2658	; 0x2658 <__eeupd_r18_m32>

00002636 <__eerd_block_m32>:
    2636:	dc 01       	movw	r26, r24
    2638:	cb 01       	movw	r24, r22

0000263a <__eerd_blraw_m32>:
    263a:	fc 01       	movw	r30, r24
    263c:	e1 99       	sbic	0x1c, 1	; 28
    263e:	fe cf       	rjmp	.-4      	; 0x263c <__eerd_blraw_m32+0x2>
    2640:	06 c0       	rjmp	.+12     	; 0x264e <__eerd_blraw_m32+0x14>
    2642:	ff bb       	out	0x1f, r31	; 31
    2644:	ee bb       	out	0x1e, r30	; 30
    2646:	e0 9a       	sbi	0x1c, 0	; 28
    2648:	31 96       	adiw	r30, 0x01	; 1
    264a:	0d b2       	in	r0, 0x1d	; 29
    264c:	0d 92       	st	X+, r0
    264e:	41 50       	subi	r20, 0x01	; 1
    2650:	50 40       	sbci	r21, 0x00	; 0
    2652:	b8 f7       	brcc	.-18     	; 0x2642 <__eerd_blraw_m32+0x8>
    2654:	08 95       	ret

00002656 <__eeupd_byte_m32>:
    2656:	26 2f       	mov	r18, r22

00002658 <__eeupd_r18_m32>:
    2658:	e1 99       	sbic	0x1c, 1	; 28
    265a:	fe cf       	rjmp	.-4      	; 0x2658 <__eeupd_r18_m32>
    265c:	9f bb       	out	0x1f, r25	; 31
    265e:	8e bb       	out	0x1e, r24	; 30
    2660:	e0 9a       	sbi	0x1c, 0	; 28
    2662:	01 97       	sbiw	r24, 0x01	; 1
    2664:	0d b2       	in	r0, 0x1d	; 29
    2666:	02 16       	cp	r0, r18
    2668:	31 f0       	breq	.+12     	; 0x2676 <__eeupd_r18_m32+0x1e>
    266a:	2d bb       	out	0x1d, r18	; 29
    266c:	0f b6       	in	r0, 0x3f	; 63
    266e:	f8 94       	cli
    2670:	e2 9a       	sbi	0x1c, 2	; 28
    2672:	e1 9a       	sbi	0x1c, 1	; 28
    2674:	0f be       	out	0x3f, r0	; 63
    2676:	08 95       	ret

00002678 <_exit>:
    2678:	f8 94       	cli

0000267a <__stop_program>:
    267a:	ff cf       	rjmp	.-2      	; 0x267a <__stop_program>
